	.file	"matmul9_L2_tiles.cpp"
# GNU C++20 (GCC) version 14.3.1 20251226 (x86_64-pc-linux-gnu)
#	compiled by GNU C version 14.3.1 20251226, GMP version 6.3.0, MPFR version 4.2.2, MPC version 1.3.1, isl version isl-0.27-GMP

# GGC heuristics: --param ggc-min-expand=100 --param ggc-min-heapsize=131072
# options passed: -march=znver4 -mtune=znver4 -g -g3 -O2 -std=c++20 -fno-omit-frame-pointer
	.text
.Ltext0:
	.file 0 "/home/olaf/zen4-lab/matmul" "matmul9_L2_tiles.cpp"
	.p2align 4
	.globl	_Z6matmulPKfS0_Pfi
	.type	_Z6matmulPKfS0_Pfi, @function
_Z6matmulPKfS0_Pfi:
.LVL0:
.LFB6590:
	.file 1 "matmul9_L2_tiles.cpp"
	.loc 1 20 75 view -0
	.cfi_startproc
	.loc 1 22 3 view .LVU1
# matmul9_L2_tiles.cpp:20: void matmul(const float *a, const float *b, float *__restrict__ c, int n) {
	.loc 1 20 75 is_stmt 0 view .LVU2
	pushq	%rbp	#
	.cfi_def_cfa_offset 16
	.cfi_offset 6, -16
# matmul9_L2_tiles.cpp:22:   const int ni = ((n + BI - 1) / BI) * BI;
	.loc 1 22 32 view .LVU3
	leal	254(%rcx), %eax	#, tmp170
# matmul9_L2_tiles.cpp:20: void matmul(const float *a, const float *b, float *__restrict__ c, int n) {
	.loc 1 20 75 view .LVU4
	movq	%rsp, %rbp	#,
	.cfi_def_cfa_register 6
	pushq	%r15	#
	pushq	%r14	#
	pushq	%r13	#
	pushq	%r12	#
	pushq	%rbx	#
	.cfi_offset 15, -24
	.cfi_offset 14, -32
	.cfi_offset 13, -40
	.cfi_offset 12, -48
	.cfi_offset 3, -56
	movl	%ecx, %r14d	# tmp252, n
	subq	$88, %rsp	#,
# matmul9_L2_tiles.cpp:20: void matmul(const float *a, const float *b, float *__restrict__ c, int n) {
	.loc 1 20 75 view .LVU5
	movq	%rdx, -96(%rbp)	# tmp251, %sfp
# matmul9_L2_tiles.cpp:22:   const int ni = ((n + BI - 1) / BI) * BI;
	.loc 1 22 32 view .LVU6
	movl	%ecx, %edx	# n, _1
.LVL1:
# matmul9_L2_tiles.cpp:20: void matmul(const float *a, const float *b, float *__restrict__ c, int n) {
	.loc 1 20 75 view .LVU7
	movq	%rsi, -80(%rbp)	# tmp250, %sfp
# matmul9_L2_tiles.cpp:22:   const int ni = ((n + BI - 1) / BI) * BI;
	.loc 1 22 32 view .LVU8
	addl	$127, %edx	#, _1
# matmul9_L2_tiles.cpp:24:   const int nk = ((n + BK - 1) / BK) * BK;
	.loc 1 24 32 view .LVU9
	leal	1022(%r14), %r13d	#, tmp185
# matmul9_L2_tiles.cpp:20: void matmul(const float *a, const float *b, float *__restrict__ c, int n) {
	.loc 1 20 75 view .LVU10
	movq	%rdi, -72(%rbp)	# tmp249, %sfp
# matmul9_L2_tiles.cpp:22:   const int ni = ((n + BI - 1) / BI) * BI;
	.loc 1 22 32 view .LVU11
	cmovns	%edx, %eax	# tmp170,, _1, _1
# matmul9_L2_tiles.cpp:23:   const int nj = ((n + BJ - 1) / BJ) * BJ;
	.loc 1 23 27 view .LVU12
	addl	$255, %ecx	#, _3
.LVL2:
# matmul9_L2_tiles.cpp:23:   const int nj = ((n + BJ - 1) / BJ) * BJ;
	.loc 1 23 13 view .LVU13
	movl	%ecx, %edx	# _3, tmp178
# matmul9_L2_tiles.cpp:22:   const int ni = ((n + BI - 1) / BI) * BI;
	.loc 1 22 32 view .LVU14
	movl	%eax, %esi	# _1, _2
.LVL3:
# matmul9_L2_tiles.cpp:22:   const int ni = ((n + BI - 1) / BI) * BI;
	.loc 1 22 13 view .LVU15
	andl	$-128, %eax	#, _1
# matmul9_L2_tiles.cpp:23:   const int nj = ((n + BJ - 1) / BJ) * BJ;
	.loc 1 23 13 view .LVU16
	sarl	$31, %edx	#, tmp178
# matmul9_L2_tiles.cpp:22:   const int ni = ((n + BI - 1) / BI) * BI;
	.loc 1 22 13 view .LVU17
	movl	%eax, -52(%rbp)	# _1, %sfp
.LVL4:
	.loc 1 23 3 is_stmt 1 view .LVU18
# matmul9_L2_tiles.cpp:23:   const int nj = ((n + BJ - 1) / BJ) * BJ;
	.loc 1 23 13 is_stmt 0 view .LVU19
	shrl	$24, %edx	#, tmp179
	leal	(%rcx,%rdx), %eax	#, tmp180
.LVL5:
	.loc 1 23 13 view .LVU20
	movzbl	%al, %eax	# tmp180, tmp181
	subl	%edx, %eax	# tmp179, tmp182
	subl	%eax, %ecx	# tmp182, _3
# matmul9_L2_tiles.cpp:24:   const int nk = ((n + BK - 1) / BK) * BK;
	.loc 1 24 32 view .LVU21
	movl	%r14d, %eax	# n, _5
# matmul9_L2_tiles.cpp:22:   const int ni = ((n + BI - 1) / BI) * BI;
	.loc 1 22 32 view .LVU22
	sarl	$7, %esi	#, _2
# matmul9_L2_tiles.cpp:23:   const int nj = ((n + BJ - 1) / BJ) * BJ;
	.loc 1 23 13 view .LVU23
	movl	%ecx, -84(%rbp)	# _3, %sfp
.LVL6:
	.loc 1 24 3 is_stmt 1 view .LVU24
# matmul9_L2_tiles.cpp:24:   const int nk = ((n + BK - 1) / BK) * BK;
	.loc 1 24 32 is_stmt 0 view .LVU25
	addl	$511, %eax	#, _5
# matmul9_L2_tiles.cpp:22:   const int ni = ((n + BI - 1) / BI) * BI;
	.loc 1 22 32 view .LVU26
	movl	%esi, -88(%rbp)	# _2, %sfp
# matmul9_L2_tiles.cpp:24:   const int nk = ((n + BK - 1) / BK) * BK;
	.loc 1 24 32 view .LVU27
	cmovns	%eax, %r13d	# tmp185,, _5, _5
	movl	%r13d, %eax	# _5, _6
# matmul9_L2_tiles.cpp:24:   const int nk = ((n + BK - 1) / BK) * BK;
	.loc 1 24 13 view .LVU28
	andl	$-512, %r13d	#, nk
.LVL7:
	.loc 1 26 15 is_stmt 1 view .LVU29
	.loc 1 27 15 view .LVU30
	.loc 1 28 15 view .LVU31
	.loc 1 30 3 view .LVU32
.LBB2:
	.loc 1 30 21 discriminator 1 view .LVU33
.LBE2:
# matmul9_L2_tiles.cpp:24:   const int nk = ((n + BK - 1) / BK) * BK;
	.loc 1 24 32 is_stmt 0 view .LVU34
	sarl	$9, %eax	#, _6
	movl	%eax, -100(%rbp)	# _6, %sfp
.LBB3:
# matmul9_L2_tiles.cpp:30:   for (u32 i = 0; i < n; i++) {
	.loc 1 30 21 discriminator 1 view .LVU35
	testl	%r14d, %r14d	# n
	je	.L33	#,
# matmul9_L2_tiles.cpp:31:     memcpy(A + i * ni, a + i * n, sizeof(float) * n);
	.loc 1 31 51 view .LVU36
	movslq	%r14d, %rax	# n, _7
# matmul9_L2_tiles.cpp:30:   for (u32 i = 0; i < n; i++) {
	.loc 1 30 12 view .LVU37
	xorl	%r10d, %r10d	# i
# matmul9_L2_tiles.cpp:32:     memcpy(B + i * nk, b + i * n, sizeof(float) * n);
	.loc 1 32 20 view .LVU38
	xorl	%r8d, %r8d	# ivtmp.83
	xorl	%ebx, %ebx	# ivtmp.85
# matmul9_L2_tiles.cpp:31:     memcpy(A + i * ni, a + i * n, sizeof(float) * n);
	.loc 1 31 11 view .LVU39
	salq	$2, %rax	#, _8
	movl	%ebx, -56(%rbp)	# ivtmp.85, %sfp
	movl	%r10d, %esi	# i, i
	movq	%rax, -64(%rbp)	# _8, %sfp
	movl	%r14d, %eax	# n, n
	movl	%r13d, %r10d	# nk, nk
	movl	%r8d, %r14d	# ivtmp.83, ivtmp.83
.LVL8:
# matmul9_L2_tiles.cpp:32:     memcpy(B + i * nk, b + i * n, sizeof(float) * n);
	.loc 1 32 20 view .LVU40
	xorl	%r9d, %r9d	# ivtmp.84
	leaq	_ZZ6matmulPKfS0_PfiE1A(%rip), %r15	#, tmp247
	leaq	_ZZ6matmulPKfS0_PfiE1B(%rip), %r12	#, tmp240
	movl	%eax, %r8d	# n, n
	movl	%esi, %r13d	# i, i
.LVL9:
.L3:
# matmul9_L2_tiles.cpp:31:     memcpy(A + i * ni, a + i * n, sizeof(float) * n);
	.loc 1 31 18 view .LVU41
	movl	%r9d, %eax	# ivtmp.84, _15
# matmul9_L2_tiles.cpp:31:     memcpy(A + i * ni, a + i * n, sizeof(float) * n);
	.loc 1 31 11 view .LVU42
	movq	-64(%rbp), %rdx	# %sfp,
# matmul9_L2_tiles.cpp:31:     memcpy(A + i * ni, a + i * n, sizeof(float) * n);
	.loc 1 31 30 view .LVU43
	movl	%r14d, %ebx	# ivtmp.83, _10
	movl	%r8d, -112(%rbp)	# n, %sfp
# matmul9_L2_tiles.cpp:31:     memcpy(A + i * ni, a + i * n, sizeof(float) * n);
	.loc 1 31 11 view .LVU44
	leaq	(%r15,%rax,4), %rdi	#, _17
# matmul9_L2_tiles.cpp:31:     memcpy(A + i * ni, a + i * n, sizeof(float) * n);
	.loc 1 31 26 view .LVU45
	movq	-72(%rbp), %rax	# %sfp, a
	movl	%r10d, -108(%rbp)	# nk, %sfp
.LVL10:
	.loc 1 31 5 is_stmt 1 view .LVU46
# matmul9_L2_tiles.cpp:31:     memcpy(A + i * ni, a + i * n, sizeof(float) * n);
	.loc 1 31 18 is_stmt 0 view .LVU47
	movl	%r9d, -104(%rbp)	# ivtmp.84, %sfp
# matmul9_L2_tiles.cpp:30:   for (u32 i = 0; i < n; i++) {
	.loc 1 30 3 discriminator 3 view .LVU48
	incl	%r13d	# i
.LVL11:
# matmul9_L2_tiles.cpp:31:     memcpy(A + i * ni, a + i * n, sizeof(float) * n);
	.loc 1 31 26 view .LVU49
	salq	$2, %rbx	#, _11
	leaq	(%rax,%rbx), %rsi	#, _12
# matmul9_L2_tiles.cpp:31:     memcpy(A + i * ni, a + i * n, sizeof(float) * n);
	.loc 1 31 11 view .LVU50
	call	memcpy@PLT	#
.LVL12:
	.loc 1 32 5 is_stmt 1 view .LVU51
# matmul9_L2_tiles.cpp:32:     memcpy(B + i * nk, b + i * n, sizeof(float) * n);
	.loc 1 32 18 is_stmt 0 view .LVU52
	movl	-56(%rbp), %eax	# %sfp, _21
# matmul9_L2_tiles.cpp:32:     memcpy(B + i * nk, b + i * n, sizeof(float) * n);
	.loc 1 32 26 view .LVU53
	movq	-80(%rbp), %rsi	# %sfp, b
# matmul9_L2_tiles.cpp:32:     memcpy(B + i * nk, b + i * n, sizeof(float) * n);
	.loc 1 32 11 view .LVU54
	movq	-64(%rbp), %rdx	# %sfp,
# matmul9_L2_tiles.cpp:32:     memcpy(B + i * nk, b + i * n, sizeof(float) * n);
	.loc 1 32 26 view .LVU55
	addq	%rbx, %rsi	# _11, _18
# matmul9_L2_tiles.cpp:32:     memcpy(B + i * nk, b + i * n, sizeof(float) * n);
	.loc 1 32 11 view .LVU56
	leaq	(%r12,%rax,4), %rdi	#, _23
	call	memcpy@PLT	#
.LVL13:
	.loc 1 30 3 is_stmt 1 discriminator 3 view .LVU57
	.loc 1 30 21 discriminator 1 view .LVU58
	movl	-112(%rbp), %r8d	# %sfp, n
	movl	-52(%rbp), %esi	# %sfp, ni
	movl	-104(%rbp), %r9d	# %sfp, ivtmp.84
	movl	-108(%rbp), %r10d	# %sfp, nk
	addl	%r10d, -56(%rbp)	# nk, %sfp
	addl	%r8d, %r14d	# n, ivtmp.83
	addl	%esi, %r9d	# ni, ivtmp.84
	cmpl	%r8d, %r13d	# n, i
	jne	.L3	#,
.LBE3:
# matmul9_L2_tiles.cpp:35:   memset(C, 0, sizeof(float) * n);
	.loc 1 35 9 is_stmt 0 view .LVU59
	movq	-64(%rbp), %rdx	# %sfp,
	leaq	_ZZ6matmulPKfS0_PfiE1C(%rip), %rbx	#, tmp241
	xorl	%esi, %esi	#
	movl	%r10d, %r13d	# nk, nk
.LVL14:
	.loc 1 35 9 view .LVU60
	movq	%rbx, %rdi	# tmp241,
	movl	%r8d, %r14d	# n, n
	.loc 1 35 3 is_stmt 1 view .LVU61
# matmul9_L2_tiles.cpp:35:   memset(C, 0, sizeof(float) * n);
	.loc 1 35 9 is_stmt 0 view .LVU62
	call	memset@PLT	#
.LVL15:
	.loc 1 37 3 is_stmt 1 view .LVU63
.LBB4:
	.loc 1 37 21 discriminator 1 view .LVU64
	movl	-52(%rbp), %ecx	# %sfp, ni
	testl	%ecx, %ecx	# ni
	je	.L4	#,
	movl	-88(%rbp), %eax	# %sfp, _2
	xorl	%esi, %esi	# ivtmp.79
	xorl	%edi, %edi	# ivtmp.77
	leal	510(%r14), %r11d	#, _160
	movl	%r14d, %r8d	# n, n
	sall	$7, %ecx	#, _146
	movl	%ecx, %r10d	# _146, _146
# matmul9_L2_tiles.cpp:37:   for (u32 i = 0; i < ni; i += BI) {
	.loc 1 37 12 is_stmt 0 view .LVU65
	xorl	%ecx, %ecx	# i
	sall	$14, %eax	#, _2
	negl	%eax	# tmp215
	movl	%eax, %r9d	# tmp215, _143
	movl	-100(%rbp), %eax	# %sfp, _6
	sall	$18, %eax	#, _6
	movl	%eax, -72(%rbp)	# _6, %sfp
.LVL16:
	.loc 1 37 12 view .LVU66
	movl	%r9d, %eax	# _143, _143
.LVL17:
.L5:
.LBB5:
	.loc 1 38 23 is_stmt 1 discriminator 1 view .LVU67
	testl	%r13d, %r13d	# nk
	je	.L13	#,
.LVL18:
.L17:
.LBB6:
# matmul9_L2_tiles.cpp:39:       for (u32 j = 0; j < nj; j += BJ) {
	.loc 1 39 16 is_stmt 0 view .LVU68
	movl	%edi, %r14d	# ivtmp.77, ivtmp.72
.LBE6:
# matmul9_L2_tiles.cpp:38:     for (u32 k = 0; k < nk; k += BK) {
	.loc 1 38 14 view .LVU69
	xorl	%edx, %edx	# k
.L18:
.LVL19:
.LBB15:
	.loc 1 39 25 is_stmt 1 discriminator 1 view .LVU70
	cmpl	$510, %r11d	#, _160
	ja	.L37	#,
.LBE15:
	.loc 1 38 5 discriminator 2 view .LVU71
# matmul9_L2_tiles.cpp:38:     for (u32 k = 0; k < nk; k += BK) {
	.loc 1 38 23 is_stmt 0 discriminator 1 view .LVU72
	movl	-72(%rbp), %r9d	# %sfp, _124
# matmul9_L2_tiles.cpp:38:     for (u32 k = 0; k < nk; k += BK) {
	.loc 1 38 31 discriminator 2 view .LVU73
	addl	$512, %edx	#, k
.LVL20:
	.loc 1 38 23 is_stmt 1 discriminator 1 view .LVU74
	addl	%r9d, %r14d	# _124, ivtmp.72
	cmpl	%r13d, %edx	# nk, k
	jb	.L18	#,
.LBE5:
	.loc 1 37 3 discriminator 2 view .LVU75
# matmul9_L2_tiles.cpp:37:   for (u32 i = 0; i < ni; i += BI) {
	.loc 1 37 21 is_stmt 0 discriminator 1 view .LVU76
	movl	-52(%rbp), %edx	# %sfp, ni
.LVL21:
# matmul9_L2_tiles.cpp:37:   for (u32 i = 0; i < ni; i += BI) {
	.loc 1 37 29 discriminator 2 view .LVU77
	subl	$-128, %ecx	#, i
.LVL22:
	.loc 1 37 21 is_stmt 1 discriminator 1 view .LVU78
	addl	%eax, %edi	# _143, ivtmp.77
	addl	%r10d, %esi	# _146, ivtmp.79
	cmpl	%edx, %ecx	# ni, i
	jb	.L17	#,
	movl	%r8d, %r14d	# n, n
.LVL23:
.L4:
	.loc 1 37 21 is_stmt 0 discriminator 1 view .LVU79
.LBE4:
.LBB22:
	.loc 1 56 21 is_stmt 1 discriminator 1 view .LVU80
.LBE22:
.LBB23:
# matmul9_L2_tiles.cpp:37:   for (u32 i = 0; i < ni; i += BI) {
	.loc 1 37 12 is_stmt 0 view .LVU81
	xorl	%r15d, %r15d	# ivtmp.30
	xorl	%r13d, %r13d	# ivtmp.29
.LBE23:
.LBB24:
# matmul9_L2_tiles.cpp:56:   for (u32 i = 0; i < n; i++) {
	.loc 1 56 12 view .LVU82
	xorl	%r12d, %r12d	# i
.LVL24:
.L19:
	.loc 1 57 5 is_stmt 1 view .LVU83
# matmul9_L2_tiles.cpp:57:     memcpy(c + i*n, C + i*ni, sizeof(float) * n);
	.loc 1 57 14 is_stmt 0 view .LVU84
	movq	-96(%rbp), %rcx	# %sfp, c
# matmul9_L2_tiles.cpp:57:     memcpy(c + i*n, C + i*ni, sizeof(float) * n);
	.loc 1 57 11 view .LVU85
	movq	-64(%rbp), %rdx	# %sfp,
# matmul9_L2_tiles.cpp:57:     memcpy(c + i*n, C + i*ni, sizeof(float) * n);
	.loc 1 57 17 view .LVU86
	movl	%r15d, %eax	# ivtmp.30, _45
# matmul9_L2_tiles.cpp:56:   for (u32 i = 0; i < n; i++) {
	.loc 1 56 3 discriminator 3 view .LVU87
	incl	%r12d	# i
.LVL25:
# matmul9_L2_tiles.cpp:56:   for (u32 i = 0; i < n; i++) {
	.loc 1 56 21 discriminator 1 view .LVU88
	addl	%r14d, %r15d	# n, ivtmp.30
# matmul9_L2_tiles.cpp:57:     memcpy(c + i*n, C + i*ni, sizeof(float) * n);
	.loc 1 57 14 view .LVU89
	leaq	(%rcx,%rax,4), %rdi	#, _47
# matmul9_L2_tiles.cpp:57:     memcpy(c + i*n, C + i*ni, sizeof(float) * n);
	.loc 1 57 26 view .LVU90
	movl	%r13d, %eax	# ivtmp.29, _41
# matmul9_L2_tiles.cpp:57:     memcpy(c + i*n, C + i*ni, sizeof(float) * n);
	.loc 1 57 11 view .LVU91
	leaq	(%rbx,%rax,4), %rsi	#, _43
	call	memcpy@PLT	#
.LVL26:
	.loc 1 56 3 is_stmt 1 discriminator 3 view .LVU92
	.loc 1 56 21 discriminator 1 view .LVU93
	movl	-52(%rbp), %eax	# %sfp, ni
	addl	%eax, %r13d	# ni, ivtmp.29
	cmpl	%r14d, %r12d	# n, i
	jne	.L19	#,
.LVL27:
.L33:
	.loc 1 56 21 is_stmt 0 discriminator 1 view .LVU94
.LBE24:
# matmul9_L2_tiles.cpp:59: }
	.loc 1 59 1 view .LVU95
	addq	$88, %rsp	#,
	popq	%rbx	#
	popq	%r12	#
	popq	%r13	#
	popq	%r14	#
	popq	%r15	#
	popq	%rbp	#
	.cfi_remember_state
	.cfi_def_cfa 7, 8
	ret	
.LVL28:
.L37:
	.cfi_restore_state
	.loc 1 59 1 view .LVU96
	leal	256(%rsi), %r9d	#, _155
	movl	%ecx, -88(%rbp)	# i, %sfp
	movl	%eax, %ecx	# _143, _143
	movl	%r10d, %eax	# _146, _146
	vmovd	%r9d, %xmm0	# _155, _155
	movl	%edx, %r10d	# k, k
	movl	%eax, %edx	# _146, _146
.LVL29:
.L12:
	.loc 1 59 1 view .LVU97
	movl	%esi, -104(%rbp)	# ivtmp.79, %sfp
.LBB25:
.LBB19:
.LBB16:
# matmul9_L2_tiles.cpp:39:       for (u32 j = 0; j < nj; j += BJ) {
	.loc 1 39 16 view .LVU98
	xorl	%eax, %eax	# j
	movl	%edi, %esi	# ivtmp.77, ivtmp.77
	movl	%r10d, -100(%rbp)	# k, %sfp
	movl	%r8d, -108(%rbp)	# n, %sfp
	movl	%r11d, -112(%rbp)	# _160, %sfp
.L16:
.LVL30:
.LBB7:
	.loc 1 41 29 is_stmt 1 discriminator 1 view .LVU99
	vmovd	%xmm0, %edi	# _155, _155
	leal	256(%r10), %r8d	#, _131
	movl	%edx, -120(%rbp)	# _146, %sfp
	subl	$256, %r10d	#, _156
	addl	%eax, %edi	# j, ivtmp.57
.LBE7:
.LBE16:
.LBE19:
.LBE25:
.LBB26:
# matmul9_L2_tiles.cpp:30:   for (u32 i = 0; i < n; i++) {
	.loc 1 30 12 is_stmt 0 view .LVU100
	movl	$128, %r11d	#, ivtmp_147
	movl	%eax, %edx	# j, j
	movl	%r14d, -56(%rbp)	# ivtmp.72, %sfp
	movl	%r10d, -80(%rbp)	# _156, %sfp
	movl	%r14d, -116(%rbp)	# ivtmp.72, %sfp
.LVL31:
.L11:
	.loc 1 30 12 view .LVU101
.LBE26:
.LBB27:
.LBB20:
.LBB17:
.LBB13:
.LBB8:
	.loc 1 42 31 is_stmt 1 discriminator 1 view .LVU102
	movl	-80(%rbp), %eax	# %sfp, _156
.LBE8:
.LBE13:
.LBE17:
.LBE20:
.LBE27:
.LBB28:
# matmul9_L2_tiles.cpp:30:   for (u32 i = 0; i < n; i++) {
	.loc 1 30 12 is_stmt 0 view .LVU103
	movl	-56(%rbp), %r10d	# %sfp, ivtmp.47
	movl	%r11d, -124(%rbp)	# ivtmp_147, %sfp
	vmovd	%r8d, %xmm3	# _131, _131
	movl	%ecx, %r11d	# _143, _143
.LVL32:
	.loc 1 30 12 view .LVU104
	movl	%edx, %ecx	# j, j
	leal	(%rdi,%rax), %r14d	#, ivtmp.46
	leal	-256(%rdi), %eax	#, ivtmp.38
	movl	%eax, %edx	# ivtmp.38, ivtmp.38
.LVL33:
.L9:
	.loc 1 30 12 view .LVU105
.LBE28:
.LBB29:
.LBB21:
.LBB18:
.LBB14:
.LBB12:
.LBB9:
	.loc 1 43 33 is_stmt 1 discriminator 1 view .LVU106
.LBB10:
# matmul9_L2_tiles.cpp:47:               C[i3*ni + j3] += A[i3*ni + k3] * B[k3*nk + j3];
	.loc 1 47 44 is_stmt 0 view .LVU107
	movl	%r14d, %eax	# ivtmp.46, ivtmp.46
	movl	%edx, %r9d	# ivtmp.38, ivtmp.38
	vmovss	(%r15,%rax,4), %xmm1	# A[ivtmp.46_49], _31
.LVL34:
	.loc 1 47 44 view .LVU108
	.p2align 6
	.p2align 4
	.p2align 3
.L6:
	.loc 1 44 15 is_stmt 1 view .LVU109
	.loc 1 45 15 view .LVU110
.LVL35:
	.loc 1 46 15 view .LVU111
	.loc 1 47 15 view .LVU112
# matmul9_L2_tiles.cpp:47:               C[i3*ni + j3] += A[i3*ni + k3] * B[k3*nk + j3];
	.loc 1 47 27 is_stmt 0 view .LVU113
	movl	%r9d, %eax	# ivtmp.38, ivtmp.38
# matmul9_L2_tiles.cpp:47:               C[i3*ni + j3] += A[i3*ni + k3] * B[k3*nk + j3];
	.loc 1 47 60 view .LVU114
	leal	(%r9,%r10), %r8d	#, _33
.LBE10:
# matmul9_L2_tiles.cpp:43:             for (u32 j2 = 0; j2 < BJ; j2++) {
	.loc 1 43 33 discriminator 1 view .LVU115
	incl	%r9d	# ivtmp.38
.LBB11:
# matmul9_L2_tiles.cpp:47:               C[i3*ni + j3] += A[i3*ni + k3] * B[k3*nk + j3];
	.loc 1 47 29 view .LVU116
	vmovss	(%r12,%r8,4), %xmm2	# B[_33], _36
	vfmadd213ss	(%rbx,%rax,4), %xmm1, %xmm2	# C[ivtmp.38_24], _31, _36
	vmovss	%xmm2, (%rbx,%rax,4)	# _36, C[ivtmp.38_24]
.LBE11:
	.loc 1 43 13 is_stmt 1 discriminator 3 view .LVU117
	.loc 1 43 33 discriminator 1 view .LVU118
	cmpl	%edi, %r9d	# ivtmp.57, ivtmp.38
	jne	.L6	#,
.LBE9:
	.loc 1 42 11 discriminator 2 view .LVU119
.LVL36:
	.loc 1 42 31 discriminator 1 view .LVU120
	vmovd	%xmm3, %eax	# _131, _131
	incl	%r14d	# ivtmp.46
	addl	%r13d, %r10d	# nk, ivtmp.47
	addl	%r9d, %eax	# ivtmp.38, _99
	cmpl	%eax, %r14d	# _99, ivtmp.46
	jne	.L9	#,
.LBE12:
# matmul9_L2_tiles.cpp:41:         for (u32 i2 = 0; i2 < BI; i2++) {
	.loc 1 41 29 is_stmt 0 discriminator 1 view .LVU121
	movl	%ecx, %edx	# j, j
	movl	%r11d, %ecx	# _143, _143
.LVL37:
	.loc 1 41 29 discriminator 1 view .LVU122
	movl	-124(%rbp), %r11d	# %sfp, ivtmp_147
	movl	-52(%rbp), %eax	# %sfp, ni
	subl	%eax, -56(%rbp)	# ni, %sfp
	vmovd	%xmm3, %r8d	# _131, _131
	.loc 1 41 9 is_stmt 1 discriminator 2 view .LVU123
.LVL38:
	.loc 1 41 29 discriminator 1 view .LVU124
	decl	%r11d	# ivtmp_147
.LVL39:
	.loc 1 41 29 is_stmt 0 discriminator 1 view .LVU125
	leal	(%r9,%rax), %edi	#, ivtmp.57
	jne	.L11	#,
	.loc 1 41 29 discriminator 1 view .LVU126
.LBE14:
# matmul9_L2_tiles.cpp:39:       for (u32 j = 0; j < nj; j += BJ) {
	.loc 1 39 25 discriminator 1 view .LVU127
	movl	-84(%rbp), %edi	# %sfp, nj
# matmul9_L2_tiles.cpp:39:       for (u32 j = 0; j < nj; j += BJ) {
	.loc 1 39 33 discriminator 2 view .LVU128
	movl	%edx, %eax	# j, j
	movl	-116(%rbp), %r14d	# %sfp, ivtmp.72
	movl	-120(%rbp), %edx	# %sfp, _146
.LVL40:
	.loc 1 39 7 is_stmt 1 discriminator 2 view .LVU129
# matmul9_L2_tiles.cpp:39:       for (u32 j = 0; j < nj; j += BJ) {
	.loc 1 39 33 is_stmt 0 discriminator 2 view .LVU130
	addl	$256, %eax	#, j
.LVL41:
	.loc 1 39 25 is_stmt 1 discriminator 1 view .LVU131
	cmpl	%edi, %eax	# nj, j
	jnb	.L10	#,
	movl	-80(%rbp), %r10d	# %sfp, ivtmp.64
	jmp	.L16	#
.L10:
.LBE18:
# matmul9_L2_tiles.cpp:38:     for (u32 k = 0; k < nk; k += BK) {
	.loc 1 38 31 is_stmt 0 discriminator 2 view .LVU132
	movl	-100(%rbp), %r10d	# %sfp, k
# matmul9_L2_tiles.cpp:38:     for (u32 k = 0; k < nk; k += BK) {
	.loc 1 38 23 discriminator 1 view .LVU133
	movl	-72(%rbp), %eax	# %sfp, _124
.LVL42:
# matmul9_L2_tiles.cpp:38:     for (u32 k = 0; k < nk; k += BK) {
	.loc 1 38 31 discriminator 2 view .LVU134
	movl	%esi, %edi	# ivtmp.77, ivtmp.77
	movl	-108(%rbp), %r8d	# %sfp, n
	movl	-104(%rbp), %esi	# %sfp, ivtmp.79
	movl	-112(%rbp), %r11d	# %sfp, _160
	.loc 1 38 5 is_stmt 1 discriminator 2 view .LVU135
# matmul9_L2_tiles.cpp:38:     for (u32 k = 0; k < nk; k += BK) {
	.loc 1 38 31 is_stmt 0 discriminator 2 view .LVU136
	addl	$512, %r10d	#, k
.LVL43:
	.loc 1 38 23 is_stmt 1 discriminator 1 view .LVU137
	addl	%eax, %r14d	# _124, ivtmp.72
	cmpl	%r13d, %r10d	# nk, k
	jb	.L12	#,
	movl	%ecx, %eax	# _143, _143
	movl	-88(%rbp), %ecx	# %sfp, i
	movl	%edx, %r10d	# _146, _146
.LVL44:
.L13:
	.loc 1 38 23 is_stmt 0 discriminator 1 view .LVU138
.LBE21:
	.loc 1 37 3 is_stmt 1 discriminator 2 view .LVU139
# matmul9_L2_tiles.cpp:37:   for (u32 i = 0; i < ni; i += BI) {
	.loc 1 37 21 is_stmt 0 discriminator 1 view .LVU140
	movl	-52(%rbp), %edx	# %sfp, ni
# matmul9_L2_tiles.cpp:37:   for (u32 i = 0; i < ni; i += BI) {
	.loc 1 37 29 discriminator 2 view .LVU141
	subl	$-128, %ecx	#, i
.LVL45:
	.loc 1 37 21 is_stmt 1 discriminator 1 view .LVU142
	addl	%eax, %edi	# _143, ivtmp.77
	addl	%r10d, %esi	# _146, ivtmp.79
	cmpl	%edx, %ecx	# ni, i
	jb	.L5	#,
	movl	%r8d, %r14d	# n, n
	jmp	.L4	#
.LBE29:
	.cfi_endproc
.LFE6590:
	.size	_Z6matmulPKfS0_Pfi, .-_Z6matmulPKfS0_Pfi
	.local	_ZZ6matmulPKfS0_PfiE1C
	.comm	_ZZ6matmulPKfS0_PfiE1C,16777216,64
	.local	_ZZ6matmulPKfS0_PfiE1B
	.comm	_ZZ6matmulPKfS0_PfiE1B,16777216,64
	.local	_ZZ6matmulPKfS0_PfiE1A
	.comm	_ZZ6matmulPKfS0_PfiE1A,16777216,64
.Letext0:
	.file 2 "/usr/lib/gcc/x86_64-pc-linux-gnu/14.3.1/include/stddef.h"
	.file 3 "/usr/include/stdlib.h"
	.file 4 "/usr/include/bits/types.h"
	.file 5 "/usr/include/bits/stdint-intn.h"
	.file 6 "/usr/lib/gcc/x86_64-pc-linux-gnu/14.3.1/include/c++/cstdlib"
	.file 7 "/usr/lib/gcc/x86_64-pc-linux-gnu/14.3.1/include/c++/bits/std_abs.h"
	.file 8 "/usr/lib/gcc/x86_64-pc-linux-gnu/14.3.1/include/c++/cstdint"
	.file 9 "/usr/lib/gcc/x86_64-pc-linux-gnu/14.3.1/include/c++/cstring"
	.file 10 "/usr/include/bits/stdlib-float.h"
	.file 11 "/usr/include/bits/stdlib-bsearch.h"
	.file 12 "/usr/lib/gcc/x86_64-pc-linux-gnu/14.3.1/include/c++/stdlib.h"
	.file 13 "/usr/include/bits/stdint-uintn.h"
	.file 14 "/usr/include/bits/stdint-least.h"
	.file 15 "/usr/include/stdint.h"
	.file 16 "/usr/include/string.h"
	.file 17 "/usr/lib/gcc/x86_64-pc-linux-gnu/14.3.1/include/c++/x86_64-pc-linux-gnu/bits/c++config.h"
	.section	.debug_info,"",@progbits
.Ldebug_info0:
	.long	0x101e
	.value	0x5
	.byte	0x1
	.byte	0x8
	.long	.Ldebug_abbrev0
	.uleb128 0x1c
	.long	.LASF2681
	.byte	0x21
	.long	.LASF0
	.long	.LASF1
	.quad	.Ltext0
	.quad	.Letext0-.Ltext0
	.long	.Ldebug_line0
	.long	.Ldebug_macro0
	.uleb128 0x3
	.long	.LASF2599
	.byte	0x2
	.byte	0xe5
	.byte	0x17
	.long	0x3e
	.uleb128 0x4
	.byte	0x8
	.byte	0x7
	.long	.LASF2598
	.uleb128 0x11
	.byte	0x8
	.byte	0x3c
	.long	.LASF2601
	.long	0x68
	.uleb128 0x12
	.long	.LASF2597
	.byte	0x3d
	.byte	0x9
	.long	0x68
	.uleb128 0x13
	.string	"rem"
	.byte	0x3e
	.byte	0x9
	.long	0x68
	.byte	0x4
	.byte	0
	.uleb128 0x1d
	.byte	0x4
	.byte	0x5
	.string	"int"
	.uleb128 0xe
	.long	0x68
	.uleb128 0x3
	.long	.LASF2600
	.byte	0x3
	.byte	0x3f
	.byte	0x5
	.long	0x45
	.uleb128 0x11
	.byte	0x10
	.byte	0x44
	.long	.LASF2602
	.long	0xa3
	.uleb128 0x12
	.long	.LASF2597
	.byte	0x45
	.byte	0xe
	.long	0xa3
	.uleb128 0x13
	.string	"rem"
	.byte	0x46
	.byte	0xe
	.long	0xa3
	.byte	0x8
	.byte	0
	.uleb128 0x4
	.byte	0x8
	.byte	0x5
	.long	.LASF2603
	.uleb128 0x3
	.long	.LASF2604
	.byte	0x3
	.byte	0x47
	.byte	0x5
	.long	0x80
	.uleb128 0x11
	.byte	0x10
	.byte	0x4e
	.long	.LASF2605
	.long	0xd9
	.uleb128 0x12
	.long	.LASF2597
	.byte	0x4f
	.byte	0x13
	.long	0xd9
	.uleb128 0x13
	.string	"rem"
	.byte	0x50
	.byte	0x13
	.long	0xd9
	.byte	0x8
	.byte	0
	.uleb128 0x4
	.byte	0x8
	.byte	0x5
	.long	.LASF2606
	.uleb128 0x3
	.long	.LASF2607
	.byte	0x3
	.byte	0x51
	.byte	0x5
	.long	0xb6
	.uleb128 0x4
	.byte	0x2
	.byte	0x7
	.long	.LASF2608
	.uleb128 0x8
	.long	0xff
	.uleb128 0x4
	.byte	0x1
	.byte	0x6
	.long	.LASF2609
	.uleb128 0xe
	.long	0xf8
	.uleb128 0x4
	.byte	0x1
	.byte	0x8
	.long	.LASF2610
	.uleb128 0x4
	.byte	0x4
	.byte	0x7
	.long	.LASF2611
	.uleb128 0x3
	.long	.LASF2612
	.byte	0x4
	.byte	0x25
	.byte	0x15
	.long	0x11e
	.uleb128 0x4
	.byte	0x1
	.byte	0x6
	.long	.LASF2613
	.uleb128 0x3
	.long	.LASF2614
	.byte	0x4
	.byte	0x26
	.byte	0x17
	.long	0x104
	.uleb128 0x3
	.long	.LASF2615
	.byte	0x4
	.byte	0x27
	.byte	0x1a
	.long	0x13d
	.uleb128 0x4
	.byte	0x2
	.byte	0x5
	.long	.LASF2616
	.uleb128 0x3
	.long	.LASF2617
	.byte	0x4
	.byte	0x28
	.byte	0x1c
	.long	0xec
	.uleb128 0x3
	.long	.LASF2618
	.byte	0x4
	.byte	0x29
	.byte	0x14
	.long	0x68
	.uleb128 0x3
	.long	.LASF2619
	.byte	0x4
	.byte	0x2a
	.byte	0x16
	.long	0x10b
	.uleb128 0x3
	.long	.LASF2620
	.byte	0x4
	.byte	0x2c
	.byte	0x19
	.long	0xa3
	.uleb128 0x3
	.long	.LASF2621
	.byte	0x4
	.byte	0x2d
	.byte	0x1b
	.long	0x3e
	.uleb128 0x3
	.long	.LASF2622
	.byte	0x4
	.byte	0x34
	.byte	0x12
	.long	0x112
	.uleb128 0x3
	.long	.LASF2623
	.byte	0x4
	.byte	0x35
	.byte	0x13
	.long	0x125
	.uleb128 0x3
	.long	.LASF2624
	.byte	0x4
	.byte	0x36
	.byte	0x13
	.long	0x131
	.uleb128 0x3
	.long	.LASF2625
	.byte	0x4
	.byte	0x37
	.byte	0x14
	.long	0x144
	.uleb128 0x3
	.long	.LASF2626
	.byte	0x4
	.byte	0x38
	.byte	0x13
	.long	0x150
	.uleb128 0x3
	.long	.LASF2627
	.byte	0x4
	.byte	0x39
	.byte	0x14
	.long	0x15c
	.uleb128 0x3
	.long	.LASF2628
	.byte	0x4
	.byte	0x3a
	.byte	0x13
	.long	0x168
	.uleb128 0x3
	.long	.LASF2629
	.byte	0x4
	.byte	0x3b
	.byte	0x14
	.long	0x174
	.uleb128 0x3
	.long	.LASF2630
	.byte	0x4
	.byte	0x48
	.byte	0x12
	.long	0xa3
	.uleb128 0x3
	.long	.LASF2631
	.byte	0x4
	.byte	0x49
	.byte	0x1b
	.long	0x3e
	.uleb128 0x1e
	.byte	0x8
	.uleb128 0x8
	.long	0xf8
	.uleb128 0x3
	.long	.LASF2632
	.byte	0x5
	.byte	0x18
	.byte	0x12
	.long	0x112
	.uleb128 0x3
	.long	.LASF2633
	.byte	0x5
	.byte	0x19
	.byte	0x13
	.long	0x131
	.uleb128 0x3
	.long	.LASF2634
	.byte	0x5
	.byte	0x1a
	.byte	0x13
	.long	0x150
	.uleb128 0x3
	.long	.LASF2635
	.byte	0x5
	.byte	0x1b
	.byte	0x13
	.long	0x168
	.uleb128 0x4
	.byte	0x8
	.byte	0x7
	.long	.LASF2636
	.uleb128 0x1f
	.long	.LASF2637
	.byte	0x3
	.value	0x3b4
	.byte	0xf
	.long	0x243
	.uleb128 0x8
	.long	0x248
	.uleb128 0x20
	.long	0x68
	.long	0x25c
	.uleb128 0x2
	.long	0x25c
	.uleb128 0x2
	.long	0x25c
	.byte	0
	.uleb128 0x8
	.long	0x261
	.uleb128 0x21
	.uleb128 0x22
	.string	"std"
	.byte	0x11
	.value	0x134
	.byte	0xb
	.long	0x557
	.uleb128 0x1
	.byte	0x6
	.byte	0x83
	.byte	0xb
	.long	0x74
	.uleb128 0x1
	.byte	0x6
	.byte	0x84
	.byte	0xb
	.long	0xaa
	.uleb128 0x1
	.byte	0x6
	.byte	0x8a
	.byte	0xb
	.long	0x557
	.uleb128 0x1
	.byte	0x6
	.byte	0x8d
	.byte	0xb
	.long	0x574
	.uleb128 0x1
	.byte	0x6
	.byte	0x90
	.byte	0xb
	.long	0x58f
	.uleb128 0x1
	.byte	0x6
	.byte	0x91
	.byte	0xb
	.long	0x5ac
	.uleb128 0x1
	.byte	0x6
	.byte	0x92
	.byte	0xb
	.long	0x5c3
	.uleb128 0x1
	.byte	0x6
	.byte	0x93
	.byte	0xb
	.long	0x5da
	.uleb128 0x1
	.byte	0x6
	.byte	0x95
	.byte	0xb
	.long	0x604
	.uleb128 0x1
	.byte	0x6
	.byte	0x98
	.byte	0xb
	.long	0x620
	.uleb128 0x1
	.byte	0x6
	.byte	0x9a
	.byte	0xb
	.long	0x637
	.uleb128 0x1
	.byte	0x6
	.byte	0x9d
	.byte	0xb
	.long	0x653
	.uleb128 0x1
	.byte	0x6
	.byte	0x9e
	.byte	0xb
	.long	0x66f
	.uleb128 0x1
	.byte	0x6
	.byte	0x9f
	.byte	0xb
	.long	0x6a1
	.uleb128 0x1
	.byte	0x6
	.byte	0xa1
	.byte	0xb
	.long	0x6c2
	.uleb128 0x1
	.byte	0x6
	.byte	0xa4
	.byte	0xb
	.long	0x6e2
	.uleb128 0x1
	.byte	0x6
	.byte	0xa7
	.byte	0xb
	.long	0x6f5
	.uleb128 0x1
	.byte	0x6
	.byte	0xa9
	.byte	0xb
	.long	0x702
	.uleb128 0x1
	.byte	0x6
	.byte	0xaa
	.byte	0xb
	.long	0x713
	.uleb128 0x1
	.byte	0x6
	.byte	0xab
	.byte	0xb
	.long	0x733
	.uleb128 0x1
	.byte	0x6
	.byte	0xac
	.byte	0xb
	.long	0x757
	.uleb128 0x1
	.byte	0x6
	.byte	0xad
	.byte	0xb
	.long	0x77b
	.uleb128 0x1
	.byte	0x6
	.byte	0xaf
	.byte	0xb
	.long	0x792
	.uleb128 0x1
	.byte	0x6
	.byte	0xb0
	.byte	0xb
	.long	0x7b8
	.uleb128 0x1
	.byte	0x6
	.byte	0xf7
	.byte	0x16
	.long	0xe0
	.uleb128 0x1
	.byte	0x6
	.byte	0xfc
	.byte	0x16
	.long	0x819
	.uleb128 0x1
	.byte	0x6
	.byte	0xfd
	.byte	0x16
	.long	0x835
	.uleb128 0x1
	.byte	0x6
	.byte	0xff
	.byte	0x16
	.long	0x851
	.uleb128 0xf
	.value	0x100
	.long	0x8b0
	.uleb128 0xf
	.value	0x101
	.long	0x868
	.uleb128 0xf
	.value	0x102
	.long	0x88c
	.uleb128 0xf
	.value	0x103
	.long	0x8d7
	.uleb128 0xc
	.string	"abs"
	.byte	0x7
	.byte	0x4f
	.long	.LASF2638
	.long	0x8f2
	.long	0x384
	.uleb128 0x2
	.long	0x8f2
	.byte	0
	.uleb128 0xc
	.string	"abs"
	.byte	0x7
	.byte	0x4b
	.long	.LASF2639
	.long	0x8cb
	.long	0x39d
	.uleb128 0x2
	.long	0x8cb
	.byte	0
	.uleb128 0xc
	.string	"abs"
	.byte	0x7
	.byte	0x47
	.long	.LASF2640
	.long	0x5a5
	.long	0x3b6
	.uleb128 0x2
	.long	0x5a5
	.byte	0
	.uleb128 0xc
	.string	"abs"
	.byte	0x7
	.byte	0x3d
	.long	.LASF2641
	.long	0xd9
	.long	0x3cf
	.uleb128 0x2
	.long	0xd9
	.byte	0
	.uleb128 0xc
	.string	"abs"
	.byte	0x7
	.byte	0x38
	.long	.LASF2642
	.long	0xa3
	.long	0x3e8
	.uleb128 0x2
	.long	0xa3
	.byte	0
	.uleb128 0xc
	.string	"div"
	.byte	0x6
	.byte	0xb5
	.long	.LASF2643
	.long	0xaa
	.long	0x406
	.uleb128 0x2
	.long	0xa3
	.uleb128 0x2
	.long	0xa3
	.byte	0
	.uleb128 0x1
	.byte	0x8
	.byte	0x33
	.byte	0xb
	.long	0x1ff
	.uleb128 0x1
	.byte	0x8
	.byte	0x34
	.byte	0xb
	.long	0x20b
	.uleb128 0x1
	.byte	0x8
	.byte	0x35
	.byte	0xb
	.long	0x217
	.uleb128 0x1
	.byte	0x8
	.byte	0x36
	.byte	0xb
	.long	0x223
	.uleb128 0x1
	.byte	0x8
	.byte	0x38
	.byte	0xb
	.long	0xa8f
	.uleb128 0x1
	.byte	0x8
	.byte	0x39
	.byte	0xb
	.long	0xa9b
	.uleb128 0x1
	.byte	0x8
	.byte	0x3a
	.byte	0xb
	.long	0xaa7
	.uleb128 0x1
	.byte	0x8
	.byte	0x3b
	.byte	0xb
	.long	0xab3
	.uleb128 0x1
	.byte	0x8
	.byte	0x3d
	.byte	0xb
	.long	0xa2f
	.uleb128 0x1
	.byte	0x8
	.byte	0x3e
	.byte	0xb
	.long	0xa3b
	.uleb128 0x1
	.byte	0x8
	.byte	0x3f
	.byte	0xb
	.long	0xa47
	.uleb128 0x1
	.byte	0x8
	.byte	0x40
	.byte	0xb
	.long	0xa53
	.uleb128 0x1
	.byte	0x8
	.byte	0x42
	.byte	0xb
	.long	0xb07
	.uleb128 0x1
	.byte	0x8
	.byte	0x43
	.byte	0xb
	.long	0xaef
	.uleb128 0x1
	.byte	0x8
	.byte	0x45
	.byte	0xb
	.long	0x9ff
	.uleb128 0x1
	.byte	0x8
	.byte	0x46
	.byte	0xb
	.long	0xa0b
	.uleb128 0x1
	.byte	0x8
	.byte	0x47
	.byte	0xb
	.long	0xa17
	.uleb128 0x1
	.byte	0x8
	.byte	0x48
	.byte	0xb
	.long	0xa23
	.uleb128 0x1
	.byte	0x8
	.byte	0x4a
	.byte	0xb
	.long	0xabf
	.uleb128 0x1
	.byte	0x8
	.byte	0x4b
	.byte	0xb
	.long	0xacb
	.uleb128 0x1
	.byte	0x8
	.byte	0x4c
	.byte	0xb
	.long	0xad7
	.uleb128 0x1
	.byte	0x8
	.byte	0x4d
	.byte	0xb
	.long	0xae3
	.uleb128 0x1
	.byte	0x8
	.byte	0x4f
	.byte	0xb
	.long	0xa5f
	.uleb128 0x1
	.byte	0x8
	.byte	0x50
	.byte	0xb
	.long	0xa6b
	.uleb128 0x1
	.byte	0x8
	.byte	0x51
	.byte	0xb
	.long	0xa77
	.uleb128 0x1
	.byte	0x8
	.byte	0x52
	.byte	0xb
	.long	0xa83
	.uleb128 0x1
	.byte	0x8
	.byte	0x54
	.byte	0xb
	.long	0xb13
	.uleb128 0x1
	.byte	0x8
	.byte	0x55
	.byte	0xb
	.long	0xafb
	.uleb128 0x1
	.byte	0x9
	.byte	0x4e
	.byte	0xb
	.long	0xb1f
	.uleb128 0x1
	.byte	0x9
	.byte	0x4e
	.byte	0xb
	.long	0xb43
	.uleb128 0x1
	.byte	0x9
	.byte	0x55
	.byte	0xb
	.long	0xb67
	.uleb128 0x1
	.byte	0x9
	.byte	0x58
	.byte	0xb
	.long	0xb82
	.uleb128 0x1
	.byte	0x9
	.byte	0x5f
	.byte	0xb
	.long	0xb99
	.uleb128 0x1
	.byte	0x9
	.byte	0x61
	.byte	0xb
	.long	0xbb5
	.uleb128 0x1
	.byte	0x9
	.byte	0x62
	.byte	0xb
	.long	0xbd5
	.uleb128 0x1
	.byte	0x9
	.byte	0x62
	.byte	0xb
	.long	0xbf4
	.uleb128 0x1
	.byte	0x9
	.byte	0x63
	.byte	0xb
	.long	0xc13
	.uleb128 0x1
	.byte	0x9
	.byte	0x63
	.byte	0xb
	.long	0xc33
	.uleb128 0x1
	.byte	0x9
	.byte	0x64
	.byte	0xb
	.long	0xc53
	.uleb128 0x1
	.byte	0x9
	.byte	0x64
	.byte	0xb
	.long	0xc73
	.uleb128 0x1
	.byte	0x9
	.byte	0x65
	.byte	0xb
	.long	0xc93
	.uleb128 0x1
	.byte	0x9
	.byte	0x65
	.byte	0xb
	.long	0xcb3
	.byte	0
	.uleb128 0x5
	.long	.LASF1426
	.byte	0x3
	.value	0x2de
	.byte	0xc
	.long	0x68
	.long	0x56e
	.uleb128 0x2
	.long	0x56e
	.byte	0
	.uleb128 0x8
	.long	0x573
	.uleb128 0x23
	.uleb128 0xb
	.long	.LASF1427
	.byte	0x3
	.value	0x2e3
	.byte	0x12
	.long	.LASF1427
	.long	0x68
	.long	0x58f
	.uleb128 0x2
	.long	0x56e
	.byte	0
	.uleb128 0x9
	.long	.LASF1428
	.byte	0xa
	.byte	0x19
	.byte	0x1
	.long	0x5a5
	.long	0x5a5
	.uleb128 0x2
	.long	0xf3
	.byte	0
	.uleb128 0x4
	.byte	0x8
	.byte	0x4
	.long	.LASF2644
	.uleb128 0x5
	.long	.LASF1429
	.byte	0x3
	.value	0x1e1
	.byte	0x1
	.long	0x68
	.long	0x5c3
	.uleb128 0x2
	.long	0xf3
	.byte	0
	.uleb128 0x5
	.long	.LASF1430
	.byte	0x3
	.value	0x1e6
	.byte	0x1
	.long	0xa3
	.long	0x5da
	.uleb128 0x2
	.long	0xf3
	.byte	0
	.uleb128 0x9
	.long	.LASF1431
	.byte	0xb
	.byte	0x14
	.byte	0x1
	.long	0x1f8
	.long	0x604
	.uleb128 0x2
	.long	0x25c
	.uleb128 0x2
	.long	0x25c
	.uleb128 0x2
	.long	0x32
	.uleb128 0x2
	.long	0x32
	.uleb128 0x2
	.long	0x236
	.byte	0
	.uleb128 0x24
	.string	"div"
	.byte	0x3
	.value	0x3e6
	.byte	0xe
	.long	0x74
	.long	0x620
	.uleb128 0x2
	.long	0x68
	.uleb128 0x2
	.long	0x68
	.byte	0
	.uleb128 0x5
	.long	.LASF1435
	.byte	0x3
	.value	0x305
	.byte	0xe
	.long	0x1fa
	.long	0x637
	.uleb128 0x2
	.long	0xf3
	.byte	0
	.uleb128 0x5
	.long	.LASF1437
	.byte	0x3
	.value	0x3e8
	.byte	0xf
	.long	0xaa
	.long	0x653
	.uleb128 0x2
	.long	0xa3
	.uleb128 0x2
	.long	0xa3
	.byte	0
	.uleb128 0x5
	.long	.LASF1439
	.byte	0x3
	.value	0x42c
	.byte	0xc
	.long	0x68
	.long	0x66f
	.uleb128 0x2
	.long	0xf3
	.uleb128 0x2
	.long	0x32
	.byte	0
	.uleb128 0x5
	.long	.LASF1440
	.byte	0x3
	.value	0x437
	.byte	0xf
	.long	0x32
	.long	0x690
	.uleb128 0x2
	.long	0x690
	.uleb128 0x2
	.long	0xf3
	.uleb128 0x2
	.long	0x32
	.byte	0
	.uleb128 0x8
	.long	0x695
	.uleb128 0x4
	.byte	0x4
	.byte	0x5
	.long	.LASF2645
	.uleb128 0xe
	.long	0x695
	.uleb128 0x5
	.long	.LASF1441
	.byte	0x3
	.value	0x42f
	.byte	0xc
	.long	0x68
	.long	0x6c2
	.uleb128 0x2
	.long	0x690
	.uleb128 0x2
	.long	0xf3
	.uleb128 0x2
	.long	0x32
	.byte	0
	.uleb128 0x19
	.long	.LASF1442
	.value	0x3ca
	.long	0x6e2
	.uleb128 0x2
	.long	0x1f8
	.uleb128 0x2
	.long	0x32
	.uleb128 0x2
	.long	0x32
	.uleb128 0x2
	.long	0x236
	.byte	0
	.uleb128 0x25
	.long	.LASF1443
	.byte	0x3
	.value	0x2fa
	.byte	0xd
	.long	0x6f5
	.uleb128 0x2
	.long	0x68
	.byte	0
	.uleb128 0x26
	.long	.LASF1444
	.byte	0x3
	.value	0x23d
	.byte	0xc
	.long	0x68
	.uleb128 0x19
	.long	.LASF1446
	.value	0x23f
	.long	0x713
	.uleb128 0x2
	.long	0x10b
	.byte	0
	.uleb128 0x9
	.long	.LASF1447
	.byte	0x3
	.byte	0x76
	.byte	0xf
	.long	0x5a5
	.long	0x72e
	.uleb128 0x2
	.long	0xf3
	.uleb128 0x2
	.long	0x72e
	.byte	0
	.uleb128 0x8
	.long	0x1fa
	.uleb128 0xa
	.long	.LASF1448
	.byte	0x3
	.byte	0xd7
	.byte	0x11
	.long	.LASF2646
	.long	0xa3
	.long	0x757
	.uleb128 0x2
	.long	0xf3
	.uleb128 0x2
	.long	0x72e
	.uleb128 0x2
	.long	0x68
	.byte	0
	.uleb128 0xa
	.long	.LASF1449
	.byte	0x3
	.byte	0xdb
	.byte	0x1a
	.long	.LASF2647
	.long	0x3e
	.long	0x77b
	.uleb128 0x2
	.long	0xf3
	.uleb128 0x2
	.long	0x72e
	.uleb128 0x2
	.long	0x68
	.byte	0
	.uleb128 0x5
	.long	.LASF1450
	.byte	0x3
	.value	0x39b
	.byte	0xc
	.long	0x68
	.long	0x792
	.uleb128 0x2
	.long	0xf3
	.byte	0
	.uleb128 0x5
	.long	.LASF1451
	.byte	0x3
	.value	0x43b
	.byte	0xf
	.long	0x32
	.long	0x7b3
	.uleb128 0x2
	.long	0x1fa
	.uleb128 0x2
	.long	0x7b3
	.uleb128 0x2
	.long	0x32
	.byte	0
	.uleb128 0x8
	.long	0x69c
	.uleb128 0x5
	.long	.LASF1452
	.byte	0x3
	.value	0x433
	.byte	0xc
	.long	0x68
	.long	0x7d4
	.uleb128 0x2
	.long	0x1fa
	.uleb128 0x2
	.long	0x695
	.byte	0
	.uleb128 0x27
	.long	.LASF2648
	.byte	0x11
	.value	0x159
	.byte	0xb
	.long	0x835
	.uleb128 0x1
	.byte	0x6
	.byte	0xcc
	.byte	0xb
	.long	0xe0
	.uleb128 0x1
	.byte	0x6
	.byte	0xde
	.byte	0xb
	.long	0x835
	.uleb128 0x1
	.byte	0x6
	.byte	0xea
	.byte	0xb
	.long	0x851
	.uleb128 0x1
	.byte	0x6
	.byte	0xeb
	.byte	0xb
	.long	0x868
	.uleb128 0x1
	.byte	0x6
	.byte	0xec
	.byte	0xb
	.long	0x88c
	.uleb128 0x1
	.byte	0x6
	.byte	0xee
	.byte	0xb
	.long	0x8b0
	.uleb128 0x1
	.byte	0x6
	.byte	0xef
	.byte	0xb
	.long	0x8d7
	.uleb128 0x28
	.string	"div"
	.byte	0x6
	.byte	0xdb
	.byte	0x3
	.long	.LASF2682
	.long	0xe0
	.uleb128 0x2
	.long	0xd9
	.uleb128 0x2
	.long	0xd9
	.byte	0
	.byte	0
	.uleb128 0x5
	.long	.LASF1455
	.byte	0x3
	.value	0x3ec
	.byte	0x1e
	.long	0xe0
	.long	0x851
	.uleb128 0x2
	.long	0xd9
	.uleb128 0x2
	.long	0xd9
	.byte	0
	.uleb128 0x5
	.long	.LASF1456
	.byte	0x3
	.value	0x1ed
	.byte	0x1
	.long	0xd9
	.long	0x868
	.uleb128 0x2
	.long	0xf3
	.byte	0
	.uleb128 0xa
	.long	.LASF1457
	.byte	0x3
	.byte	0xee
	.byte	0x16
	.long	.LASF2649
	.long	0xd9
	.long	0x88c
	.uleb128 0x2
	.long	0xf3
	.uleb128 0x2
	.long	0x72e
	.uleb128 0x2
	.long	0x68
	.byte	0
	.uleb128 0xa
	.long	.LASF1458
	.byte	0x3
	.byte	0xf3
	.byte	0x1f
	.long	.LASF2650
	.long	0x22f
	.long	0x8b0
	.uleb128 0x2
	.long	0xf3
	.uleb128 0x2
	.long	0x72e
	.uleb128 0x2
	.long	0x68
	.byte	0
	.uleb128 0x9
	.long	.LASF1459
	.byte	0x3
	.byte	0x7c
	.byte	0xe
	.long	0x8cb
	.long	0x8cb
	.uleb128 0x2
	.long	0xf3
	.uleb128 0x2
	.long	0x72e
	.byte	0
	.uleb128 0x4
	.byte	0x4
	.byte	0x4
	.long	.LASF2651
	.uleb128 0xe
	.long	0x8cb
	.uleb128 0x9
	.long	.LASF1460
	.byte	0x3
	.byte	0x7f
	.byte	0x14
	.long	0x8f2
	.long	0x8f2
	.uleb128 0x2
	.long	0xf3
	.uleb128 0x2
	.long	0x72e
	.byte	0
	.uleb128 0x4
	.byte	0x10
	.byte	0x4
	.long	.LASF2652
	.uleb128 0x1
	.byte	0xc
	.byte	0x27
	.byte	0xc
	.long	0x557
	.uleb128 0x1
	.byte	0xc
	.byte	0x2b
	.byte	0xe
	.long	0x574
	.uleb128 0x1
	.byte	0xc
	.byte	0x2e
	.byte	0xe
	.long	0x6e2
	.uleb128 0x1
	.byte	0xc
	.byte	0x36
	.byte	0xc
	.long	0x74
	.uleb128 0x1
	.byte	0xc
	.byte	0x37
	.byte	0xc
	.long	0xaa
	.uleb128 0x1
	.byte	0xc
	.byte	0x39
	.byte	0xc
	.long	0x36b
	.uleb128 0x1
	.byte	0xc
	.byte	0x39
	.byte	0xc
	.long	0x384
	.uleb128 0x1
	.byte	0xc
	.byte	0x39
	.byte	0xc
	.long	0x39d
	.uleb128 0x1
	.byte	0xc
	.byte	0x39
	.byte	0xc
	.long	0x3b6
	.uleb128 0x1
	.byte	0xc
	.byte	0x39
	.byte	0xc
	.long	0x3cf
	.uleb128 0x1
	.byte	0xc
	.byte	0x3a
	.byte	0xc
	.long	0x58f
	.uleb128 0x1
	.byte	0xc
	.byte	0x3b
	.byte	0xc
	.long	0x5ac
	.uleb128 0x1
	.byte	0xc
	.byte	0x3c
	.byte	0xc
	.long	0x5c3
	.uleb128 0x1
	.byte	0xc
	.byte	0x3d
	.byte	0xc
	.long	0x5da
	.uleb128 0x1
	.byte	0xc
	.byte	0x3f
	.byte	0xc
	.long	0x819
	.uleb128 0x1
	.byte	0xc
	.byte	0x3f
	.byte	0xc
	.long	0x3e8
	.uleb128 0x1
	.byte	0xc
	.byte	0x3f
	.byte	0xc
	.long	0x604
	.uleb128 0x1
	.byte	0xc
	.byte	0x41
	.byte	0xc
	.long	0x620
	.uleb128 0x1
	.byte	0xc
	.byte	0x43
	.byte	0xc
	.long	0x637
	.uleb128 0x1
	.byte	0xc
	.byte	0x46
	.byte	0xc
	.long	0x653
	.uleb128 0x1
	.byte	0xc
	.byte	0x47
	.byte	0xc
	.long	0x66f
	.uleb128 0x1
	.byte	0xc
	.byte	0x48
	.byte	0xc
	.long	0x6a1
	.uleb128 0x1
	.byte	0xc
	.byte	0x4a
	.byte	0xc
	.long	0x6c2
	.uleb128 0x1
	.byte	0xc
	.byte	0x4b
	.byte	0xc
	.long	0x6f5
	.uleb128 0x1
	.byte	0xc
	.byte	0x4d
	.byte	0xc
	.long	0x702
	.uleb128 0x1
	.byte	0xc
	.byte	0x4e
	.byte	0xc
	.long	0x713
	.uleb128 0x1
	.byte	0xc
	.byte	0x4f
	.byte	0xc
	.long	0x733
	.uleb128 0x1
	.byte	0xc
	.byte	0x50
	.byte	0xc
	.long	0x757
	.uleb128 0x1
	.byte	0xc
	.byte	0x51
	.byte	0xc
	.long	0x77b
	.uleb128 0x1
	.byte	0xc
	.byte	0x53
	.byte	0xc
	.long	0x792
	.uleb128 0x1
	.byte	0xc
	.byte	0x54
	.byte	0xc
	.long	0x7b8
	.uleb128 0x4
	.byte	0x2
	.byte	0x4
	.long	.LASF2653
	.uleb128 0x4
	.byte	0x2
	.byte	0x4
	.long	.LASF2654
	.uleb128 0x3
	.long	.LASF2655
	.byte	0xd
	.byte	0x18
	.byte	0x13
	.long	0x125
	.uleb128 0x3
	.long	.LASF2656
	.byte	0xd
	.byte	0x19
	.byte	0x14
	.long	0x144
	.uleb128 0x3
	.long	.LASF2657
	.byte	0xd
	.byte	0x1a
	.byte	0x14
	.long	0x15c
	.uleb128 0x3
	.long	.LASF2658
	.byte	0xd
	.byte	0x1b
	.byte	0x14
	.long	0x174
	.uleb128 0x3
	.long	.LASF2659
	.byte	0xe
	.byte	0x19
	.byte	0x18
	.long	0x180
	.uleb128 0x3
	.long	.LASF2660
	.byte	0xe
	.byte	0x1a
	.byte	0x19
	.long	0x198
	.uleb128 0x3
	.long	.LASF2661
	.byte	0xe
	.byte	0x1b
	.byte	0x19
	.long	0x1b0
	.uleb128 0x3
	.long	.LASF2662
	.byte	0xe
	.byte	0x1c
	.byte	0x19
	.long	0x1c8
	.uleb128 0x3
	.long	.LASF2663
	.byte	0xe
	.byte	0x1f
	.byte	0x19
	.long	0x18c
	.uleb128 0x3
	.long	.LASF2664
	.byte	0xe
	.byte	0x20
	.byte	0x1a
	.long	0x1a4
	.uleb128 0x3
	.long	.LASF2665
	.byte	0xe
	.byte	0x21
	.byte	0x1a
	.long	0x1bc
	.uleb128 0x3
	.long	.LASF2666
	.byte	0xe
	.byte	0x22
	.byte	0x1a
	.long	0x1d4
	.uleb128 0x3
	.long	.LASF2667
	.byte	0xf
	.byte	0x2f
	.byte	0x16
	.long	0x11e
	.uleb128 0x3
	.long	.LASF2668
	.byte	0xf
	.byte	0x31
	.byte	0x13
	.long	0xa3
	.uleb128 0x3
	.long	.LASF2669
	.byte	0xf
	.byte	0x32
	.byte	0x13
	.long	0xa3
	.uleb128 0x3
	.long	.LASF2670
	.byte	0xf
	.byte	0x33
	.byte	0x13
	.long	0xa3
	.uleb128 0x3
	.long	.LASF2671
	.byte	0xf
	.byte	0x3c
	.byte	0x18
	.long	0x104
	.uleb128 0x3
	.long	.LASF2672
	.byte	0xf
	.byte	0x3e
	.byte	0x1b
	.long	0x3e
	.uleb128 0x3
	.long	.LASF2673
	.byte	0xf
	.byte	0x3f
	.byte	0x1b
	.long	0x3e
	.uleb128 0x3
	.long	.LASF2674
	.byte	0xf
	.byte	0x40
	.byte	0x1b
	.long	0x3e
	.uleb128 0x3
	.long	.LASF2675
	.byte	0xf
	.byte	0x4c
	.byte	0x13
	.long	0xa3
	.uleb128 0x3
	.long	.LASF2676
	.byte	0xf
	.byte	0x4f
	.byte	0x1b
	.long	0x3e
	.uleb128 0x3
	.long	.LASF2677
	.byte	0xf
	.byte	0x5a
	.byte	0x15
	.long	0x1e0
	.uleb128 0x3
	.long	.LASF2678
	.byte	0xf
	.byte	0x5b
	.byte	0x16
	.long	0x1ec
	.uleb128 0xa
	.long	.LASF2575
	.byte	0x10
	.byte	0x64
	.byte	0x1
	.long	.LASF2575
	.long	0x25c
	.long	0xb43
	.uleb128 0x2
	.long	0x25c
	.uleb128 0x2
	.long	0x68
	.uleb128 0x2
	.long	0x32
	.byte	0
	.uleb128 0xa
	.long	.LASF2575
	.byte	0x10
	.byte	0x5e
	.byte	0x1
	.long	.LASF2575
	.long	0x1f8
	.long	0xb67
	.uleb128 0x2
	.long	0x1f8
	.uleb128 0x2
	.long	0x68
	.uleb128 0x2
	.long	0x32
	.byte	0
	.uleb128 0x9
	.long	.LASF2583
	.byte	0x10
	.byte	0xa3
	.byte	0xc
	.long	0x68
	.long	0xb82
	.uleb128 0x2
	.long	0xf3
	.uleb128 0x2
	.long	0xf3
	.byte	0
	.uleb128 0x5
	.long	.LASF2586
	.byte	0x10
	.value	0x1a3
	.byte	0xe
	.long	0x1fa
	.long	0xb99
	.uleb128 0x2
	.long	0x68
	.byte	0
	.uleb128 0x5
	.long	.LASF2595
	.byte	0x10
	.value	0x164
	.byte	0xe
	.long	0x1fa
	.long	0xbb5
	.uleb128 0x2
	.long	0x1fa
	.uleb128 0x2
	.long	0xf3
	.byte	0
	.uleb128 0x9
	.long	.LASF2596
	.byte	0x10
	.byte	0xa6
	.byte	0xf
	.long	0x32
	.long	0xbd5
	.uleb128 0x2
	.long	0x1fa
	.uleb128 0x2
	.long	0xf3
	.uleb128 0x2
	.long	0x32
	.byte	0
	.uleb128 0xa
	.long	.LASF2581
	.byte	0x10
	.byte	0xef
	.byte	0x1
	.long	.LASF2581
	.long	0xf3
	.long	0xbf4
	.uleb128 0x2
	.long	0xf3
	.uleb128 0x2
	.long	0x68
	.byte	0
	.uleb128 0xa
	.long	.LASF2581
	.byte	0x10
	.byte	0xe9
	.byte	0x1
	.long	.LASF2581
	.long	0x1fa
	.long	0xc13
	.uleb128 0x2
	.long	0x1fa
	.uleb128 0x2
	.long	0x68
	.byte	0
	.uleb128 0xb
	.long	.LASF2591
	.byte	0x10
	.value	0x13c
	.byte	0x1
	.long	.LASF2591
	.long	0xf3
	.long	0xc33
	.uleb128 0x2
	.long	0xf3
	.uleb128 0x2
	.long	0xf3
	.byte	0
	.uleb128 0xb
	.long	.LASF2591
	.byte	0x10
	.value	0x136
	.byte	0x1
	.long	.LASF2591
	.long	0x1fa
	.long	0xc53
	.uleb128 0x2
	.long	0x1fa
	.uleb128 0x2
	.long	0xf3
	.byte	0
	.uleb128 0xb
	.long	.LASF2592
	.byte	0x10
	.value	0x10a
	.byte	0x1
	.long	.LASF2592
	.long	0xf3
	.long	0xc73
	.uleb128 0x2
	.long	0xf3
	.uleb128 0x2
	.long	0x68
	.byte	0
	.uleb128 0xb
	.long	.LASF2592
	.byte	0x10
	.value	0x104
	.byte	0x1
	.long	.LASF2592
	.long	0x1fa
	.long	0xc93
	.uleb128 0x2
	.long	0x1fa
	.uleb128 0x2
	.long	0x68
	.byte	0
	.uleb128 0xb
	.long	.LASF2594
	.byte	0x10
	.value	0x157
	.byte	0x1
	.long	.LASF2594
	.long	0xf3
	.long	0xcb3
	.uleb128 0x2
	.long	0xf3
	.uleb128 0x2
	.long	0xf3
	.byte	0
	.uleb128 0xb
	.long	.LASF2594
	.byte	0x10
	.value	0x151
	.byte	0x1
	.long	.LASF2594
	.long	0x1fa
	.long	0xcd3
	.uleb128 0x2
	.long	0x1fa
	.uleb128 0x2
	.long	0xf3
	.byte	0
	.uleb128 0x29
	.string	"u32"
	.byte	0x1
	.byte	0x6
	.byte	0x7
	.long	0xa17
	.uleb128 0x14
	.string	"L1"
	.byte	0x8
	.long	0x6f
	.value	0x8000
	.uleb128 0x1a
	.string	"L2"
	.byte	0x9
	.long	0x6f
	.long	0x100000
	.uleb128 0x1a
	.string	"L3"
	.byte	0xa
	.long	0x6f
	.long	0x2000000
	.uleb128 0x2a
	.long	.LASF2683
	.byte	0x1
	.byte	0xc
	.byte	0xb
	.long	0x6f
	.value	0x800
	.uleb128 0x2b
	.string	"BI"
	.byte	0x1
	.byte	0xe
	.byte	0xf
	.long	0x6f
	.byte	0x80
	.uleb128 0x14
	.string	"BJ"
	.byte	0xf
	.long	0x6f
	.value	0x100
	.uleb128 0x14
	.string	"BK"
	.byte	0x10
	.long	0x6f
	.value	0x200
	.uleb128 0x9
	.long	.LASF2579
	.byte	0x10
	.byte	0x3d
	.byte	0xe
	.long	0x1f8
	.long	0xd54
	.uleb128 0x2
	.long	0x1f8
	.uleb128 0x2
	.long	0x68
	.uleb128 0x2
	.long	0x32
	.byte	0
	.uleb128 0x9
	.long	.LASF2577
	.byte	0x10
	.byte	0x2b
	.byte	0xe
	.long	0x1f8
	.long	0xd74
	.uleb128 0x2
	.long	0x1f8
	.uleb128 0x2
	.long	0x25c
	.uleb128 0x2
	.long	0x32
	.byte	0
	.uleb128 0x2c
	.long	.LASF2684
	.byte	0x1
	.byte	0x14
	.byte	0x6
	.long	.LASF2685
	.quad	.LFB6590
	.quad	.LFE6590-.LFB6590
	.uleb128 0x1
	.byte	0x9c
	.long	0xfed
	.uleb128 0x10
	.string	"a"
	.byte	0x1a
	.long	0xfed
	.long	.LLST0
	.long	.LVUS0
	.uleb128 0x10
	.string	"b"
	.byte	0x2a
	.long	0xfed
	.long	.LLST1
	.long	.LVUS1
	.uleb128 0x10
	.string	"c"
	.byte	0x41
	.long	0xff7
	.long	.LLST2
	.long	.LVUS2
	.uleb128 0x10
	.string	"n"
	.byte	0x48
	.long	0x68
	.long	.LLST3
	.long	.LVUS3
	.uleb128 0x6
	.string	"ni"
	.byte	0x16
	.byte	0xd
	.long	0x6f
	.long	.LLST4
	.long	.LVUS4
	.uleb128 0x6
	.string	"nj"
	.byte	0x17
	.byte	0xd
	.long	0x6f
	.long	.LLST5
	.long	.LVUS5
	.uleb128 0x6
	.string	"nk"
	.byte	0x18
	.byte	0xd
	.long	0x6f
	.long	.LLST6
	.long	.LVUS6
	.uleb128 0x15
	.string	"A"
	.byte	0x1a
	.long	0xffc
	.uleb128 0x9
	.byte	0x3
	.quad	_ZZ6matmulPKfS0_PfiE1A
	.uleb128 0x15
	.string	"B"
	.byte	0x1b
	.long	0xffc
	.uleb128 0x9
	.byte	0x3
	.quad	_ZZ6matmulPKfS0_PfiE1B
	.uleb128 0x15
	.string	"C"
	.byte	0x1c
	.long	0xffc
	.uleb128 0x9
	.byte	0x3
	.quad	_ZZ6matmulPKfS0_PfiE1C
	.uleb128 0x16
	.long	.LLRL7
	.long	0xecb
	.uleb128 0x6
	.string	"i"
	.byte	0x1e
	.byte	0xc
	.long	0xcd3
	.long	.LLST8
	.long	.LVUS8
	.uleb128 0x2d
	.quad	.LVL12
	.long	0x100f
	.long	0xe95
	.uleb128 0x7
	.uleb128 0x1
	.byte	0x55
	.uleb128 0x10
	.byte	0x91
	.sleb128 -120
	.byte	0x94
	.byte	0x4
	.byte	0xc
	.long	0xffffffff
	.byte	0x1a
	.byte	0x32
	.byte	0x24
	.byte	0x7f
	.sleb128 0
	.byte	0x22
	.uleb128 0x7
	.uleb128 0x1
	.byte	0x54
	.uleb128 0x7
	.byte	0x91
	.sleb128 -88
	.byte	0x6
	.byte	0x73
	.sleb128 0
	.byte	0x22
	.uleb128 0x7
	.uleb128 0x1
	.byte	0x51
	.uleb128 0x4
	.byte	0x91
	.sleb128 -80
	.byte	0x6
	.byte	0
	.uleb128 0x17
	.quad	.LVL13
	.long	0x100f
	.uleb128 0x7
	.uleb128 0x1
	.byte	0x55
	.uleb128 0x10
	.byte	0x91
	.sleb128 -72
	.byte	0x94
	.byte	0x4
	.byte	0xc
	.long	0xffffffff
	.byte	0x1a
	.byte	0x32
	.byte	0x24
	.byte	0x7c
	.sleb128 0
	.byte	0x22
	.uleb128 0x7
	.uleb128 0x1
	.byte	0x54
	.uleb128 0x7
	.byte	0x91
	.sleb128 -96
	.byte	0x6
	.byte	0x73
	.sleb128 0
	.byte	0x22
	.uleb128 0x7
	.uleb128 0x1
	.byte	0x51
	.uleb128 0x4
	.byte	0x91
	.sleb128 -80
	.byte	0x6
	.byte	0
	.byte	0
	.uleb128 0x16
	.long	.LLRL9
	.long	0xf89
	.uleb128 0x6
	.string	"i"
	.byte	0x25
	.byte	0xc
	.long	0xcd3
	.long	.LLST10
	.long	.LVUS10
	.uleb128 0xd
	.long	.LLRL11
	.uleb128 0x6
	.string	"k"
	.byte	0x26
	.byte	0xe
	.long	0xcd3
	.long	.LLST12
	.long	.LVUS12
	.uleb128 0xd
	.long	.LLRL13
	.uleb128 0x6
	.string	"j"
	.byte	0x27
	.byte	0x10
	.long	0xcd3
	.long	.LLST14
	.long	.LVUS14
	.uleb128 0xd
	.long	.LLRL15
	.uleb128 0x6
	.string	"i2"
	.byte	0x29
	.byte	0x12
	.long	0xcd3
	.long	.LLST16
	.long	.LVUS16
	.uleb128 0xd
	.long	.LLRL17
	.uleb128 0x6
	.string	"k2"
	.byte	0x2a
	.byte	0x14
	.long	0xcd3
	.long	.LLST18
	.long	.LVUS18
	.uleb128 0x2e
	.quad	.LBB9
	.quad	.LBE9-.LBB9
	.uleb128 0x6
	.string	"j2"
	.byte	0x2b
	.byte	0x16
	.long	0xcd3
	.long	.LLST19
	.long	.LVUS19
	.uleb128 0xd
	.long	.LLRL20
	.uleb128 0x18
	.string	"i3"
	.byte	0x2c
	.long	0xcd3
	.uleb128 0x18
	.string	"j3"
	.byte	0x2d
	.long	0xcd3
	.uleb128 0x18
	.string	"k3"
	.byte	0x2e
	.long	0xcd3
	.byte	0
	.byte	0
	.byte	0
	.byte	0
	.byte	0
	.byte	0
	.byte	0
	.uleb128 0x16
	.long	.LLRL21
	.long	0xfcb
	.uleb128 0x6
	.string	"i"
	.byte	0x38
	.byte	0xc
	.long	0xcd3
	.long	.LLST22
	.long	.LVUS22
	.uleb128 0x17
	.quad	.LVL26
	.long	0x100f
	.uleb128 0x7
	.uleb128 0x1
	.byte	0x54
	.uleb128 0xd
	.byte	0x7d
	.sleb128 0
	.byte	0xc
	.long	0xffffffff
	.byte	0x1a
	.byte	0x32
	.byte	0x24
	.byte	0x73
	.sleb128 0
	.byte	0x22
	.uleb128 0x7
	.uleb128 0x1
	.byte	0x51
	.uleb128 0x4
	.byte	0x91
	.sleb128 -80
	.byte	0x6
	.byte	0
	.byte	0
	.uleb128 0x17
	.quad	.LVL15
	.long	0x1018
	.uleb128 0x7
	.uleb128 0x1
	.byte	0x55
	.uleb128 0x2
	.byte	0x73
	.sleb128 0
	.uleb128 0x7
	.uleb128 0x1
	.byte	0x54
	.uleb128 0x1
	.byte	0x30
	.uleb128 0x7
	.uleb128 0x1
	.byte	0x51
	.uleb128 0x4
	.byte	0x91
	.sleb128 -80
	.byte	0x6
	.byte	0
	.byte	0
	.uleb128 0x8
	.long	0x8d2
	.uleb128 0x8
	.long	0x8cb
	.uleb128 0x2f
	.long	0xff2
	.uleb128 0x30
	.long	0x8cb
	.long	0x100f
	.uleb128 0x31
	.long	0x3e
	.long	0x3fffff
	.byte	0
	.uleb128 0x1b
	.long	.LASF2577
	.long	.LASF2679
	.uleb128 0x1b
	.long	.LASF2579
	.long	.LASF2680
	.byte	0
	.section	.debug_abbrev,"",@progbits
.Ldebug_abbrev0:
	.uleb128 0x1
	.uleb128 0x8
	.byte	0
	.uleb128 0x3a
	.uleb128 0xb
	.uleb128 0x3b
	.uleb128 0xb
	.uleb128 0x39
	.uleb128 0xb
	.uleb128 0x18
	.uleb128 0x13
	.byte	0
	.byte	0
	.uleb128 0x2
	.uleb128 0x5
	.byte	0
	.uleb128 0x49
	.uleb128 0x13
	.byte	0
	.byte	0
	.uleb128 0x3
	.uleb128 0x16
	.byte	0
	.uleb128 0x3
	.uleb128 0xe
	.uleb128 0x3a
	.uleb128 0xb
	.uleb128 0x3b
	.uleb128 0xb
	.uleb128 0x39
	.uleb128 0xb
	.uleb128 0x49
	.uleb128 0x13
	.byte	0
	.byte	0
	.uleb128 0x4
	.uleb128 0x24
	.byte	0
	.uleb128 0xb
	.uleb128 0xb
	.uleb128 0x3e
	.uleb128 0xb
	.uleb128 0x3
	.uleb128 0xe
	.byte	0
	.byte	0
	.uleb128 0x5
	.uleb128 0x2e
	.byte	0x1
	.uleb128 0x3f
	.uleb128 0x19
	.uleb128 0x3
	.uleb128 0xe
	.uleb128 0x3a
	.uleb128 0xb
	.uleb128 0x3b
	.uleb128 0x5
	.uleb128 0x39
	.uleb128 0xb
	.uleb128 0x49
	.uleb128 0x13
	.uleb128 0x3c
	.uleb128 0x19
	.uleb128 0x1
	.uleb128 0x13
	.byte	0
	.byte	0
	.uleb128 0x6
	.uleb128 0x34
	.byte	0
	.uleb128 0x3
	.uleb128 0x8
	.uleb128 0x3a
	.uleb128 0x21
	.sleb128 1
	.uleb128 0x3b
	.uleb128 0xb
	.uleb128 0x39
	.uleb128 0xb
	.uleb128 0x49
	.uleb128 0x13
	.uleb128 0x2
	.uleb128 0x17
	.uleb128 0x2137
	.uleb128 0x17
	.byte	0
	.byte	0
	.uleb128 0x7
	.uleb128 0x49
	.byte	0
	.uleb128 0x2
	.uleb128 0x18
	.uleb128 0x7e
	.uleb128 0x18
	.byte	0
	.byte	0
	.uleb128 0x8
	.uleb128 0xf
	.byte	0
	.uleb128 0xb
	.uleb128 0x21
	.sleb128 8
	.uleb128 0x49
	.uleb128 0x13
	.byte	0
	.byte	0
	.uleb128 0x9
	.uleb128 0x2e
	.byte	0x1
	.uleb128 0x3f
	.uleb128 0x19
	.uleb128 0x3
	.uleb128 0xe
	.uleb128 0x3a
	.uleb128 0xb
	.uleb128 0x3b
	.uleb128 0xb
	.uleb128 0x39
	.uleb128 0xb
	.uleb128 0x49
	.uleb128 0x13
	.uleb128 0x3c
	.uleb128 0x19
	.uleb128 0x1
	.uleb128 0x13
	.byte	0
	.byte	0
	.uleb128 0xa
	.uleb128 0x2e
	.byte	0x1
	.uleb128 0x3f
	.uleb128 0x19
	.uleb128 0x3
	.uleb128 0xe
	.uleb128 0x3a
	.uleb128 0xb
	.uleb128 0x3b
	.uleb128 0xb
	.uleb128 0x39
	.uleb128 0xb
	.uleb128 0x6e
	.uleb128 0xe
	.uleb128 0x49
	.uleb128 0x13
	.uleb128 0x3c
	.uleb128 0x19
	.uleb128 0x1
	.uleb128 0x13
	.byte	0
	.byte	0
	.uleb128 0xb
	.uleb128 0x2e
	.byte	0x1
	.uleb128 0x3f
	.uleb128 0x19
	.uleb128 0x3
	.uleb128 0xe
	.uleb128 0x3a
	.uleb128 0xb
	.uleb128 0x3b
	.uleb128 0x5
	.uleb128 0x39
	.uleb128 0xb
	.uleb128 0x6e
	.uleb128 0xe
	.uleb128 0x49
	.uleb128 0x13
	.uleb128 0x3c
	.uleb128 0x19
	.uleb128 0x1
	.uleb128 0x13
	.byte	0
	.byte	0
	.uleb128 0xc
	.uleb128 0x2e
	.byte	0x1
	.uleb128 0x3f
	.uleb128 0x19
	.uleb128 0x3
	.uleb128 0x8
	.uleb128 0x3a
	.uleb128 0xb
	.uleb128 0x3b
	.uleb128 0xb
	.uleb128 0x39
	.uleb128 0x21
	.sleb128 3
	.uleb128 0x6e
	.uleb128 0xe
	.uleb128 0x49
	.uleb128 0x13
	.uleb128 0x3c
	.uleb128 0x19
	.uleb128 0x1
	.uleb128 0x13
	.byte	0
	.byte	0
	.uleb128 0xd
	.uleb128 0xb
	.byte	0x1
	.uleb128 0x55
	.uleb128 0x17
	.byte	0
	.byte	0
	.uleb128 0xe
	.uleb128 0x26
	.byte	0
	.uleb128 0x49
	.uleb128 0x13
	.byte	0
	.byte	0
	.uleb128 0xf
	.uleb128 0x8
	.byte	0
	.uleb128 0x3a
	.uleb128 0x21
	.sleb128 6
	.uleb128 0x3b
	.uleb128 0x5
	.uleb128 0x39
	.uleb128 0x21
	.sleb128 22
	.uleb128 0x18
	.uleb128 0x13
	.byte	0
	.byte	0
	.uleb128 0x10
	.uleb128 0x5
	.byte	0
	.uleb128 0x3
	.uleb128 0x8
	.uleb128 0x3a
	.uleb128 0x21
	.sleb128 1
	.uleb128 0x3b
	.uleb128 0x21
	.sleb128 20
	.uleb128 0x39
	.uleb128 0xb
	.uleb128 0x49
	.uleb128 0x13
	.uleb128 0x2
	.uleb128 0x17
	.uleb128 0x2137
	.uleb128 0x17
	.byte	0
	.byte	0
	.uleb128 0x11
	.uleb128 0x13
	.byte	0x1
	.uleb128 0xb
	.uleb128 0xb
	.uleb128 0x3a
	.uleb128 0x21
	.sleb128 3
	.uleb128 0x3b
	.uleb128 0xb
	.uleb128 0x39
	.uleb128 0x21
	.sleb128 3
	.uleb128 0x6e
	.uleb128 0xe
	.uleb128 0x1
	.uleb128 0x13
	.byte	0
	.byte	0
	.uleb128 0x12
	.uleb128 0xd
	.byte	0
	.uleb128 0x3
	.uleb128 0xe
	.uleb128 0x3a
	.uleb128 0x21
	.sleb128 3
	.uleb128 0x3b
	.uleb128 0xb
	.uleb128 0x39
	.uleb128 0xb
	.uleb128 0x49
	.uleb128 0x13
	.uleb128 0x38
	.uleb128 0x21
	.sleb128 0
	.byte	0
	.byte	0
	.uleb128 0x13
	.uleb128 0xd
	.byte	0
	.uleb128 0x3
	.uleb128 0x8
	.uleb128 0x3a
	.uleb128 0x21
	.sleb128 3
	.uleb128 0x3b
	.uleb128 0xb
	.uleb128 0x39
	.uleb128 0xb
	.uleb128 0x49
	.uleb128 0x13
	.uleb128 0x38
	.uleb128 0xb
	.byte	0
	.byte	0
	.uleb128 0x14
	.uleb128 0x34
	.byte	0
	.uleb128 0x3
	.uleb128 0x8
	.uleb128 0x3a
	.uleb128 0x21
	.sleb128 1
	.uleb128 0x3b
	.uleb128 0xb
	.uleb128 0x39
	.uleb128 0x21
	.sleb128 15
	.uleb128 0x49
	.uleb128 0x13
	.uleb128 0x6c
	.uleb128 0x19
	.uleb128 0x1c
	.uleb128 0x5
	.byte	0
	.byte	0
	.uleb128 0x15
	.uleb128 0x34
	.byte	0
	.uleb128 0x3
	.uleb128 0x8
	.uleb128 0x3a
	.uleb128 0x21
	.sleb128 1
	.uleb128 0x3b
	.uleb128 0xb
	.uleb128 0x39
	.uleb128 0x21
	.sleb128 28
	.uleb128 0x49
	.uleb128 0x13
	.uleb128 0x88
	.uleb128 0x21
	.sleb128 64
	.uleb128 0x2
	.uleb128 0x18
	.byte	0
	.byte	0
	.uleb128 0x16
	.uleb128 0xb
	.byte	0x1
	.uleb128 0x55
	.uleb128 0x17
	.uleb128 0x1
	.uleb128 0x13
	.byte	0
	.byte	0
	.uleb128 0x17
	.uleb128 0x48
	.byte	0x1
	.uleb128 0x7d
	.uleb128 0x1
	.uleb128 0x7f
	.uleb128 0x13
	.byte	0
	.byte	0
	.uleb128 0x18
	.uleb128 0x34
	.byte	0
	.uleb128 0x3
	.uleb128 0x8
	.uleb128 0x3a
	.uleb128 0x21
	.sleb128 1
	.uleb128 0x3b
	.uleb128 0xb
	.uleb128 0x39
	.uleb128 0x21
	.sleb128 19
	.uleb128 0x49
	.uleb128 0x13
	.byte	0
	.byte	0
	.uleb128 0x19
	.uleb128 0x2e
	.byte	0x1
	.uleb128 0x3f
	.uleb128 0x19
	.uleb128 0x3
	.uleb128 0xe
	.uleb128 0x3a
	.uleb128 0x21
	.sleb128 3
	.uleb128 0x3b
	.uleb128 0x5
	.uleb128 0x39
	.uleb128 0x21
	.sleb128 13
	.uleb128 0x3c
	.uleb128 0x19
	.uleb128 0x1
	.uleb128 0x13
	.byte	0
	.byte	0
	.uleb128 0x1a
	.uleb128 0x34
	.byte	0
	.uleb128 0x3
	.uleb128 0x8
	.uleb128 0x3a
	.uleb128 0x21
	.sleb128 1
	.uleb128 0x3b
	.uleb128 0xb
	.uleb128 0x39
	.uleb128 0x21
	.sleb128 15
	.uleb128 0x49
	.uleb128 0x13
	.uleb128 0x6c
	.uleb128 0x19
	.uleb128 0x1c
	.uleb128 0x6
	.byte	0
	.byte	0
	.uleb128 0x1b
	.uleb128 0x2e
	.byte	0
	.uleb128 0x3f
	.uleb128 0x19
	.uleb128 0x3c
	.uleb128 0x19
	.uleb128 0x6e
	.uleb128 0xe
	.uleb128 0x3
	.uleb128 0xe
	.byte	0
	.byte	0
	.uleb128 0x1c
	.uleb128 0x11
	.byte	0x1
	.uleb128 0x25
	.uleb128 0xe
	.uleb128 0x13
	.uleb128 0xb
	.uleb128 0x3
	.uleb128 0x1f
	.uleb128 0x1b
	.uleb128 0x1f
	.uleb128 0x11
	.uleb128 0x1
	.uleb128 0x12
	.uleb128 0x7
	.uleb128 0x10
	.uleb128 0x17
	.uleb128 0x79
	.uleb128 0x17
	.byte	0
	.byte	0
	.uleb128 0x1d
	.uleb128 0x24
	.byte	0
	.uleb128 0xb
	.uleb128 0xb
	.uleb128 0x3e
	.uleb128 0xb
	.uleb128 0x3
	.uleb128 0x8
	.byte	0
	.byte	0
	.uleb128 0x1e
	.uleb128 0xf
	.byte	0
	.uleb128 0xb
	.uleb128 0xb
	.byte	0
	.byte	0
	.uleb128 0x1f
	.uleb128 0x16
	.byte	0
	.uleb128 0x3
	.uleb128 0xe
	.uleb128 0x3a
	.uleb128 0xb
	.uleb128 0x3b
	.uleb128 0x5
	.uleb128 0x39
	.uleb128 0xb
	.uleb128 0x49
	.uleb128 0x13
	.byte	0
	.byte	0
	.uleb128 0x20
	.uleb128 0x15
	.byte	0x1
	.uleb128 0x49
	.uleb128 0x13
	.uleb128 0x1
	.uleb128 0x13
	.byte	0
	.byte	0
	.uleb128 0x21
	.uleb128 0x26
	.byte	0
	.byte	0
	.byte	0
	.uleb128 0x22
	.uleb128 0x39
	.byte	0x1
	.uleb128 0x3
	.uleb128 0x8
	.uleb128 0x3a
	.uleb128 0xb
	.uleb128 0x3b
	.uleb128 0x5
	.uleb128 0x39
	.uleb128 0xb
	.uleb128 0x1
	.uleb128 0x13
	.byte	0
	.byte	0
	.uleb128 0x23
	.uleb128 0x15
	.byte	0
	.byte	0
	.byte	0
	.uleb128 0x24
	.uleb128 0x2e
	.byte	0x1
	.uleb128 0x3f
	.uleb128 0x19
	.uleb128 0x3
	.uleb128 0x8
	.uleb128 0x3a
	.uleb128 0xb
	.uleb128 0x3b
	.uleb128 0x5
	.uleb128 0x39
	.uleb128 0xb
	.uleb128 0x49
	.uleb128 0x13
	.uleb128 0x3c
	.uleb128 0x19
	.uleb128 0x1
	.uleb128 0x13
	.byte	0
	.byte	0
	.uleb128 0x25
	.uleb128 0x2e
	.byte	0x1
	.uleb128 0x3f
	.uleb128 0x19
	.uleb128 0x3
	.uleb128 0xe
	.uleb128 0x3a
	.uleb128 0xb
	.uleb128 0x3b
	.uleb128 0x5
	.uleb128 0x39
	.uleb128 0xb
	.uleb128 0x87
	.uleb128 0x19
	.uleb128 0x3c
	.uleb128 0x19
	.uleb128 0x1
	.uleb128 0x13
	.byte	0
	.byte	0
	.uleb128 0x26
	.uleb128 0x2e
	.byte	0
	.uleb128 0x3f
	.uleb128 0x19
	.uleb128 0x3
	.uleb128 0xe
	.uleb128 0x3a
	.uleb128 0xb
	.uleb128 0x3b
	.uleb128 0x5
	.uleb128 0x39
	.uleb128 0xb
	.uleb128 0x49
	.uleb128 0x13
	.uleb128 0x3c
	.uleb128 0x19
	.byte	0
	.byte	0
	.uleb128 0x27
	.uleb128 0x39
	.byte	0x1
	.uleb128 0x3
	.uleb128 0xe
	.uleb128 0x3a
	.uleb128 0xb
	.uleb128 0x3b
	.uleb128 0x5
	.uleb128 0x39
	.uleb128 0xb
	.uleb128 0x1
	.uleb128 0x13
	.byte	0
	.byte	0
	.uleb128 0x28
	.uleb128 0x2e
	.byte	0x1
	.uleb128 0x3f
	.uleb128 0x19
	.uleb128 0x3
	.uleb128 0x8
	.uleb128 0x3a
	.uleb128 0xb
	.uleb128 0x3b
	.uleb128 0xb
	.uleb128 0x39
	.uleb128 0xb
	.uleb128 0x6e
	.uleb128 0xe
	.uleb128 0x49
	.uleb128 0x13
	.uleb128 0x3c
	.uleb128 0x19
	.byte	0
	.byte	0
	.uleb128 0x29
	.uleb128 0x16
	.byte	0
	.uleb128 0x3
	.uleb128 0x8
	.uleb128 0x3a
	.uleb128 0xb
	.uleb128 0x3b
	.uleb128 0xb
	.uleb128 0x39
	.uleb128 0xb
	.uleb128 0x49
	.uleb128 0x13
	.byte	0
	.byte	0
	.uleb128 0x2a
	.uleb128 0x34
	.byte	0
	.uleb128 0x3
	.uleb128 0xe
	.uleb128 0x3a
	.uleb128 0xb
	.uleb128 0x3b
	.uleb128 0xb
	.uleb128 0x39
	.uleb128 0xb
	.uleb128 0x49
	.uleb128 0x13
	.uleb128 0x1c
	.uleb128 0x5
	.byte	0
	.byte	0
	.uleb128 0x2b
	.uleb128 0x34
	.byte	0
	.uleb128 0x3
	.uleb128 0x8
	.uleb128 0x3a
	.uleb128 0xb
	.uleb128 0x3b
	.uleb128 0xb
	.uleb128 0x39
	.uleb128 0xb
	.uleb128 0x49
	.uleb128 0x13
	.uleb128 0x6c
	.uleb128 0x19
	.uleb128 0x1c
	.uleb128 0xb
	.byte	0
	.byte	0
	.uleb128 0x2c
	.uleb128 0x2e
	.byte	0x1
	.uleb128 0x3f
	.uleb128 0x19
	.uleb128 0x3
	.uleb128 0xe
	.uleb128 0x3a
	.uleb128 0xb
	.uleb128 0x3b
	.uleb128 0xb
	.uleb128 0x39
	.uleb128 0xb
	.uleb128 0x6e
	.uleb128 0xe
	.uleb128 0x11
	.uleb128 0x1
	.uleb128 0x12
	.uleb128 0x7
	.uleb128 0x40
	.uleb128 0x18
	.uleb128 0x7a
	.uleb128 0x19
	.uleb128 0x1
	.uleb128 0x13
	.byte	0
	.byte	0
	.uleb128 0x2d
	.uleb128 0x48
	.byte	0x1
	.uleb128 0x7d
	.uleb128 0x1
	.uleb128 0x7f
	.uleb128 0x13
	.uleb128 0x1
	.uleb128 0x13
	.byte	0
	.byte	0
	.uleb128 0x2e
	.uleb128 0xb
	.byte	0x1
	.uleb128 0x11
	.uleb128 0x1
	.uleb128 0x12
	.uleb128 0x7
	.byte	0
	.byte	0
	.uleb128 0x2f
	.uleb128 0x37
	.byte	0
	.uleb128 0x49
	.uleb128 0x13
	.byte	0
	.byte	0
	.uleb128 0x30
	.uleb128 0x1
	.byte	0x1
	.uleb128 0x49
	.uleb128 0x13
	.uleb128 0x1
	.uleb128 0x13
	.byte	0
	.byte	0
	.uleb128 0x31
	.uleb128 0x21
	.byte	0
	.uleb128 0x49
	.uleb128 0x13
	.uleb128 0x2f
	.uleb128 0x6
	.byte	0
	.byte	0
	.byte	0
	.section	.debug_loclists,"",@progbits
	.long	.Ldebug_loc3-.Ldebug_loc2
.Ldebug_loc2:
	.value	0x5
	.byte	0x8
	.byte	0
	.long	0
.Ldebug_loc0:
.LVUS0:
	.uleb128 0
	.uleb128 .LVU41
	.uleb128 .LVU41
	.uleb128 .LVU66
	.uleb128 .LVU66
	.uleb128 0
.LLST0:
	.byte	0x4
	.uleb128 .LVL0-.Ltext0
	.uleb128 .LVL9-.Ltext0
	.uleb128 0x1
	.byte	0x55
	.byte	0x4
	.uleb128 .LVL9-.Ltext0
	.uleb128 .LVL16-.Ltext0
	.uleb128 0x3
	.byte	0x91
	.sleb128 -88
	.byte	0x4
	.uleb128 .LVL16-.Ltext0
	.uleb128 .LFE6590-.Ltext0
	.uleb128 0x4
	.byte	0xa3
	.uleb128 0x1
	.byte	0x55
	.byte	0x9f
	.byte	0
.LVUS1:
	.uleb128 0
	.uleb128 .LVU15
	.uleb128 .LVU15
	.uleb128 .LVU67
	.uleb128 .LVU67
	.uleb128 0
.LLST1:
	.byte	0x4
	.uleb128 .LVL0-.Ltext0
	.uleb128 .LVL3-.Ltext0
	.uleb128 0x1
	.byte	0x54
	.byte	0x4
	.uleb128 .LVL3-.Ltext0
	.uleb128 .LVL17-.Ltext0
	.uleb128 0x3
	.byte	0x91
	.sleb128 -96
	.byte	0x4
	.uleb128 .LVL17-.Ltext0
	.uleb128 .LFE6590-.Ltext0
	.uleb128 0x4
	.byte	0xa3
	.uleb128 0x1
	.byte	0x54
	.byte	0x9f
	.byte	0
.LVUS2:
	.uleb128 0
	.uleb128 .LVU7
	.uleb128 .LVU7
	.uleb128 0
.LLST2:
	.byte	0x4
	.uleb128 .LVL0-.Ltext0
	.uleb128 .LVL1-.Ltext0
	.uleb128 0x1
	.byte	0x51
	.byte	0x4
	.uleb128 .LVL1-.Ltext0
	.uleb128 .LFE6590-.Ltext0
	.uleb128 0x3
	.byte	0x91
	.sleb128 -112
	.byte	0
.LVUS3:
	.uleb128 0
	.uleb128 .LVU13
	.uleb128 .LVU13
	.uleb128 .LVU40
	.uleb128 .LVU40
	.uleb128 .LVU41
	.uleb128 .LVU41
	.uleb128 0
.LLST3:
	.byte	0x4
	.uleb128 .LVL0-.Ltext0
	.uleb128 .LVL2-.Ltext0
	.uleb128 0x1
	.byte	0x52
	.byte	0x4
	.uleb128 .LVL2-.Ltext0
	.uleb128 .LVL8-.Ltext0
	.uleb128 0x1
	.byte	0x5e
	.byte	0x4
	.uleb128 .LVL8-.Ltext0
	.uleb128 .LVL9-.Ltext0
	.uleb128 0x1
	.byte	0x50
	.byte	0x4
	.uleb128 .LVL9-.Ltext0
	.uleb128 .LFE6590-.Ltext0
	.uleb128 0x4
	.byte	0xa3
	.uleb128 0x1
	.byte	0x52
	.byte	0x9f
	.byte	0
.LVUS4:
	.uleb128 .LVU18
	.uleb128 .LVU20
	.uleb128 .LVU20
	.uleb128 0
.LLST4:
	.byte	0x4
	.uleb128 .LVL4-.Ltext0
	.uleb128 .LVL5-.Ltext0
	.uleb128 0x1
	.byte	0x50
	.byte	0x4
	.uleb128 .LVL5-.Ltext0
	.uleb128 .LFE6590-.Ltext0
	.uleb128 0x3
	.byte	0x91
	.sleb128 -68
	.byte	0
.LVUS5:
	.uleb128 .LVU24
	.uleb128 .LVU41
	.uleb128 .LVU41
	.uleb128 0
.LLST5:
	.byte	0x4
	.uleb128 .LVL6-.Ltext0
	.uleb128 .LVL9-.Ltext0
	.uleb128 0x1
	.byte	0x52
	.byte	0x4
	.uleb128 .LVL9-.Ltext0
	.uleb128 .LFE6590-.Ltext0
	.uleb128 0x3
	.byte	0x91
	.sleb128 -100
	.byte	0
.LVUS6:
	.uleb128 .LVU29
	.uleb128 .LVU41
	.uleb128 .LVU41
	.uleb128 0
.LLST6:
	.byte	0x4
	.uleb128 .LVL7-.Ltext0
	.uleb128 .LVL9-.Ltext0
	.uleb128 0x1
	.byte	0x5d
	.byte	0x4
	.uleb128 .LVL9-.Ltext0
	.uleb128 .LFE6590-.Ltext0
	.uleb128 0x21
	.byte	0xa3
	.uleb128 0x1
	.byte	0x52
	.byte	0x23
	.uleb128 0x3fe
	.byte	0xa3
	.uleb128 0x1
	.byte	0x52
	.byte	0x23
	.uleb128 0x1ff
	.byte	0xa3
	.uleb128 0x1
	.byte	0x52
	.byte	0x23
	.uleb128 0x1ff
	.byte	0x8
	.byte	0x20
	.byte	0x24
	.byte	0x30
	.byte	0x2d
	.byte	0x28
	.value	0x1
	.byte	0x16
	.byte	0x13
	.byte	0xb
	.value	0xfe00
	.byte	0x1a
	.byte	0x9f
	.byte	0
.LVUS8:
	.uleb128 .LVU33
	.uleb128 .LVU41
	.uleb128 .LVU46
	.uleb128 .LVU49
	.uleb128 .LVU49
	.uleb128 .LVU58
	.uleb128 .LVU58
	.uleb128 .LVU60
.LLST8:
	.byte	0x4
	.uleb128 .LVL7-.Ltext0
	.uleb128 .LVL9-.Ltext0
	.uleb128 0x2
	.byte	0x30
	.byte	0x9f
	.byte	0x4
	.uleb128 .LVL10-.Ltext0
	.uleb128 .LVL11-.Ltext0
	.uleb128 0x1
	.byte	0x5d
	.byte	0x4
	.uleb128 .LVL11-.Ltext0
	.uleb128 .LVL13-.Ltext0
	.uleb128 0x3
	.byte	0x7d
	.sleb128 -1
	.byte	0x9f
	.byte	0x4
	.uleb128 .LVL13-.Ltext0
	.uleb128 .LVL14-.Ltext0
	.uleb128 0x1
	.byte	0x5d
	.byte	0
.LVUS10:
	.uleb128 .LVU64
	.uleb128 .LVU67
	.uleb128 .LVU67
	.uleb128 .LVU68
	.uleb128 .LVU78
	.uleb128 .LVU79
	.uleb128 .LVU142
	.uleb128 0
.LLST10:
	.byte	0x4
	.uleb128 .LVL15-.Ltext0
	.uleb128 .LVL17-.Ltext0
	.uleb128 0x2
	.byte	0x30
	.byte	0x9f
	.byte	0x4
	.uleb128 .LVL17-.Ltext0
	.uleb128 .LVL18-.Ltext0
	.uleb128 0x1
	.byte	0x52
	.byte	0x4
	.uleb128 .LVL22-.Ltext0
	.uleb128 .LVL23-.Ltext0
	.uleb128 0x1
	.byte	0x52
	.byte	0x4
	.uleb128 .LVL45-.Ltext0
	.uleb128 .LFE6590-.Ltext0
	.uleb128 0x1
	.byte	0x52
	.byte	0
.LVUS12:
	.uleb128 .LVU67
	.uleb128 .LVU68
	.uleb128 .LVU70
	.uleb128 .LVU77
	.uleb128 .LVU96
	.uleb128 .LVU97
	.uleb128 .LVU137
	.uleb128 .LVU138
.LLST12:
	.byte	0x4
	.uleb128 .LVL17-.Ltext0
	.uleb128 .LVL18-.Ltext0
	.uleb128 0x2
	.byte	0x30
	.byte	0x9f
	.byte	0x4
	.uleb128 .LVL19-.Ltext0
	.uleb128 .LVL21-.Ltext0
	.uleb128 0x1
	.byte	0x51
	.byte	0x4
	.uleb128 .LVL28-.Ltext0
	.uleb128 .LVL29-.Ltext0
	.uleb128 0x1
	.byte	0x51
	.byte	0x4
	.uleb128 .LVL43-.Ltext0
	.uleb128 .LVL44-.Ltext0
	.uleb128 0x1
	.byte	0x5a
	.byte	0
.LVUS14:
	.uleb128 .LVU70
	.uleb128 .LVU79
	.uleb128 .LVU96
	.uleb128 .LVU97
	.uleb128 .LVU99
	.uleb128 .LVU101
	.uleb128 .LVU101
	.uleb128 .LVU105
	.uleb128 .LVU105
	.uleb128 .LVU122
	.uleb128 .LVU122
	.uleb128 .LVU129
	.uleb128 .LVU129
	.uleb128 .LVU134
.LLST14:
	.byte	0x4
	.uleb128 .LVL19-.Ltext0
	.uleb128 .LVL23-.Ltext0
	.uleb128 0x2
	.byte	0x30
	.byte	0x9f
	.byte	0x4
	.uleb128 .LVL28-.Ltext0
	.uleb128 .LVL29-.Ltext0
	.uleb128 0x2
	.byte	0x30
	.byte	0x9f
	.byte	0x4
	.uleb128 .LVL30-.Ltext0
	.uleb128 .LVL31-.Ltext0
	.uleb128 0x1
	.byte	0x50
	.byte	0x4
	.uleb128 .LVL31-.Ltext0
	.uleb128 .LVL33-.Ltext0
	.uleb128 0x1
	.byte	0x51
	.byte	0x4
	.uleb128 .LVL33-.Ltext0
	.uleb128 .LVL37-.Ltext0
	.uleb128 0x1
	.byte	0x52
	.byte	0x4
	.uleb128 .LVL37-.Ltext0
	.uleb128 .LVL40-.Ltext0
	.uleb128 0x1
	.byte	0x51
	.byte	0x4
	.uleb128 .LVL40-.Ltext0
	.uleb128 .LVL42-.Ltext0
	.uleb128 0x1
	.byte	0x50
	.byte	0
.LVUS16:
	.uleb128 .LVU99
	.uleb128 .LVU101
	.uleb128 .LVU101
	.uleb128 .LVU104
	.uleb128 .LVU104
	.uleb128 .LVU124
	.uleb128 .LVU124
	.uleb128 .LVU125
	.uleb128 .LVU125
	.uleb128 .LVU138
.LLST16:
	.byte	0x4
	.uleb128 .LVL30-.Ltext0
	.uleb128 .LVL31-.Ltext0
	.uleb128 0x2
	.byte	0x30
	.byte	0x9f
	.byte	0x4
	.uleb128 .LVL31-.Ltext0
	.uleb128 .LVL32-.Ltext0
	.uleb128 0x6
	.byte	0x8
	.byte	0x80
	.byte	0x7b
	.sleb128 0
	.byte	0x1c
	.byte	0x9f
	.byte	0x4
	.uleb128 .LVL32-.Ltext0
	.uleb128 .LVL38-.Ltext0
	.uleb128 0x9
	.byte	0x8
	.byte	0x80
	.byte	0x91
	.sleb128 -140
	.byte	0x94
	.byte	0x4
	.byte	0x1c
	.byte	0x9f
	.byte	0x4
	.uleb128 .LVL38-.Ltext0
	.uleb128 .LVL39-.Ltext0
	.uleb128 0x6
	.byte	0x8
	.byte	0x81
	.byte	0x7b
	.sleb128 0
	.byte	0x1c
	.byte	0x9f
	.byte	0x4
	.uleb128 .LVL39-.Ltext0
	.uleb128 .LVL44-.Ltext0
	.uleb128 0x9
	.byte	0x8
	.byte	0x81
	.byte	0x91
	.sleb128 -140
	.byte	0x94
	.byte	0x4
	.byte	0x1c
	.byte	0x9f
	.byte	0
.LVUS18:
	.uleb128 .LVU101
	.uleb128 .LVU105
.LLST18:
	.byte	0x4
	.uleb128 .LVL31-.Ltext0
	.uleb128 .LVL33-.Ltext0
	.uleb128 0x2
	.byte	0x30
	.byte	0x9f
	.byte	0
.LVUS19:
	.uleb128 .LVU105
	.uleb128 .LVU108
.LLST19:
	.byte	0x4
	.uleb128 .LVL33-.Ltext0
	.uleb128 .LVL34-.Ltext0
	.uleb128 0x2
	.byte	0x30
	.byte	0x9f
	.byte	0
.LVUS22:
	.uleb128 .LVU79
	.uleb128 .LVU83
	.uleb128 .LVU83
	.uleb128 .LVU88
	.uleb128 .LVU88
	.uleb128 .LVU93
	.uleb128 .LVU93
	.uleb128 .LVU94
.LLST22:
	.byte	0x4
	.uleb128 .LVL23-.Ltext0
	.uleb128 .LVL24-.Ltext0
	.uleb128 0x2
	.byte	0x30
	.byte	0x9f
	.byte	0x4
	.uleb128 .LVL24-.Ltext0
	.uleb128 .LVL25-.Ltext0
	.uleb128 0x1
	.byte	0x5c
	.byte	0x4
	.uleb128 .LVL25-.Ltext0
	.uleb128 .LVL26-.Ltext0
	.uleb128 0x3
	.byte	0x7c
	.sleb128 -1
	.byte	0x9f
	.byte	0x4
	.uleb128 .LVL26-.Ltext0
	.uleb128 .LVL27-.Ltext0
	.uleb128 0x1
	.byte	0x5c
	.byte	0
.Ldebug_loc3:
	.section	.debug_aranges,"",@progbits
	.long	0x2c
	.value	0x2
	.long	.Ldebug_info0
	.byte	0x8
	.byte	0
	.value	0
	.value	0
	.quad	.Ltext0
	.quad	.Letext0-.Ltext0
	.quad	0
	.quad	0
	.section	.debug_rnglists,"",@progbits
.Ldebug_ranges0:
	.long	.Ldebug_ranges3-.Ldebug_ranges2
.Ldebug_ranges2:
	.value	0x5
	.byte	0x8
	.byte	0
	.long	0
.LLRL7:
	.byte	0x4
	.uleb128 .LBB2-.Ltext0
	.uleb128 .LBE2-.Ltext0
	.byte	0x4
	.uleb128 .LBB3-.Ltext0
	.uleb128 .LBE3-.Ltext0
	.byte	0x4
	.uleb128 .LBB26-.Ltext0
	.uleb128 .LBE26-.Ltext0
	.byte	0x4
	.uleb128 .LBB28-.Ltext0
	.uleb128 .LBE28-.Ltext0
	.byte	0
.LLRL9:
	.byte	0x4
	.uleb128 .LBB4-.Ltext0
	.uleb128 .LBE4-.Ltext0
	.byte	0x4
	.uleb128 .LBB23-.Ltext0
	.uleb128 .LBE23-.Ltext0
	.byte	0x4
	.uleb128 .LBB25-.Ltext0
	.uleb128 .LBE25-.Ltext0
	.byte	0x4
	.uleb128 .LBB27-.Ltext0
	.uleb128 .LBE27-.Ltext0
	.byte	0x4
	.uleb128 .LBB29-.Ltext0
	.uleb128 .LBE29-.Ltext0
	.byte	0
.LLRL11:
	.byte	0x4
	.uleb128 .LBB5-.Ltext0
	.uleb128 .LBE5-.Ltext0
	.byte	0x4
	.uleb128 .LBB19-.Ltext0
	.uleb128 .LBE19-.Ltext0
	.byte	0x4
	.uleb128 .LBB20-.Ltext0
	.uleb128 .LBE20-.Ltext0
	.byte	0x4
	.uleb128 .LBB21-.Ltext0
	.uleb128 .LBE21-.Ltext0
	.byte	0
.LLRL13:
	.byte	0x4
	.uleb128 .LBB6-.Ltext0
	.uleb128 .LBE6-.Ltext0
	.byte	0x4
	.uleb128 .LBB15-.Ltext0
	.uleb128 .LBE15-.Ltext0
	.byte	0x4
	.uleb128 .LBB16-.Ltext0
	.uleb128 .LBE16-.Ltext0
	.byte	0x4
	.uleb128 .LBB17-.Ltext0
	.uleb128 .LBE17-.Ltext0
	.byte	0x4
	.uleb128 .LBB18-.Ltext0
	.uleb128 .LBE18-.Ltext0
	.byte	0
.LLRL15:
	.byte	0x4
	.uleb128 .LBB7-.Ltext0
	.uleb128 .LBE7-.Ltext0
	.byte	0x4
	.uleb128 .LBB13-.Ltext0
	.uleb128 .LBE13-.Ltext0
	.byte	0x4
	.uleb128 .LBB14-.Ltext0
	.uleb128 .LBE14-.Ltext0
	.byte	0
.LLRL17:
	.byte	0x4
	.uleb128 .LBB8-.Ltext0
	.uleb128 .LBE8-.Ltext0
	.byte	0x4
	.uleb128 .LBB12-.Ltext0
	.uleb128 .LBE12-.Ltext0
	.byte	0
.LLRL20:
	.byte	0x4
	.uleb128 .LBB10-.Ltext0
	.uleb128 .LBE10-.Ltext0
	.byte	0x4
	.uleb128 .LBB11-.Ltext0
	.uleb128 .LBE11-.Ltext0
	.byte	0
.LLRL21:
	.byte	0x4
	.uleb128 .LBB22-.Ltext0
	.uleb128 .LBE22-.Ltext0
	.byte	0x4
	.uleb128 .LBB24-.Ltext0
	.uleb128 .LBE24-.Ltext0
	.byte	0
.Ldebug_ranges3:
	.section	.debug_macro,"",@progbits
.Ldebug_macro0:
	.value	0x5
	.byte	0x2
	.long	.Ldebug_line0
	.byte	0x7
	.long	.Ldebug_macro2
	.byte	0x3
	.uleb128 0
	.uleb128 0x1
	.file 18 "/usr/include/stdc-predef.h"
	.byte	0x3
	.uleb128 0
	.uleb128 0x12
	.byte	0x7
	.long	.Ldebug_macro3
	.byte	0x4
	.byte	0x3
	.uleb128 0x1
	.uleb128 0x6
	.byte	0x3
	.uleb128 0x29
	.uleb128 0x11
	.byte	0x7
	.long	.Ldebug_macro4
	.file 19 "/usr/lib/gcc/x86_64-pc-linux-gnu/14.3.1/include/c++/x86_64-pc-linux-gnu/bits/os_defines.h"
	.byte	0x3
	.uleb128 0x2ab
	.uleb128 0x13
	.byte	0x7
	.long	.Ldebug_macro5
	.file 20 "/usr/include/features.h"
	.byte	0x3
	.uleb128 0x27
	.uleb128 0x14
	.byte	0x7
	.long	.Ldebug_macro6
	.file 21 "/usr/include/features-time64.h"
	.byte	0x3
	.uleb128 0x19f
	.uleb128 0x15
	.file 22 "/usr/include/bits/wordsize.h"
	.byte	0x3
	.uleb128 0x14
	.uleb128 0x16
	.byte	0x7
	.long	.Ldebug_macro7
	.byte	0x4
	.file 23 "/usr/include/bits/timesize.h"
	.byte	0x3
	.uleb128 0x15
	.uleb128 0x17
	.byte	0x3
	.uleb128 0x13
	.uleb128 0x16
	.byte	0x7
	.long	.Ldebug_macro7
	.byte	0x4
	.byte	0x5
	.uleb128 0x1a
	.long	.LASF696
	.byte	0x4
	.byte	0x5
	.uleb128 0x25
	.long	.LASF697
	.byte	0x4
	.byte	0x7
	.long	.Ldebug_macro8
	.file 24 "/usr/include/sys/cdefs.h"
	.byte	0x3
	.uleb128 0x20c
	.uleb128 0x18
	.byte	0x7
	.long	.Ldebug_macro9
	.byte	0x3
	.uleb128 0x2da
	.uleb128 0x16
	.byte	0x7
	.long	.Ldebug_macro7
	.byte	0x4
	.file 25 "/usr/include/bits/long-double.h"
	.byte	0x3
	.uleb128 0x2db
	.uleb128 0x19
	.byte	0x5
	.uleb128 0x15
	.long	.LASF777
	.byte	0x4
	.byte	0x7
	.long	.Ldebug_macro10
	.byte	0x4
	.byte	0x5
	.uleb128 0x21c
	.long	.LASF796
	.file 26 "/usr/include/gnu/stubs.h"
	.byte	0x3
	.uleb128 0x224
	.uleb128 0x1a
	.file 27 "/usr/include/gnu/stubs-64.h"
	.byte	0x3
	.uleb128 0xa
	.uleb128 0x1b
	.byte	0x7
	.long	.Ldebug_macro11
	.byte	0x4
	.byte	0x4
	.byte	0x4
	.byte	0x7
	.long	.Ldebug_macro12
	.byte	0x4
	.file 28 "/usr/lib/gcc/x86_64-pc-linux-gnu/14.3.1/include/c++/x86_64-pc-linux-gnu/bits/cpu_defines.h"
	.byte	0x3
	.uleb128 0x2ae
	.uleb128 0x1c
	.byte	0x5
	.uleb128 0x1f
	.long	.LASF811
	.byte	0x4
	.byte	0x7
	.long	.Ldebug_macro13
	.file 29 "/usr/lib/gcc/x86_64-pc-linux-gnu/14.3.1/include/c++/pstl/pstl_config.h"
	.byte	0x3
	.uleb128 0x37a
	.uleb128 0x1d
	.byte	0x7
	.long	.Ldebug_macro14
	.byte	0x4
	.byte	0x7
	.long	.Ldebug_macro15
	.byte	0x4
	.byte	0x7
	.long	.Ldebug_macro16
	.byte	0x3
	.uleb128 0x4f
	.uleb128 0x3
	.byte	0x5
	.uleb128 0x19
	.long	.LASF1130
	.file 30 "/usr/include/bits/libc-header-start.h"
	.byte	0x3
	.uleb128 0x1a
	.uleb128 0x1e
	.byte	0x7
	.long	.Ldebug_macro17
	.byte	0x4
	.byte	0x7
	.long	.Ldebug_macro18
	.byte	0x3
	.uleb128 0x20
	.uleb128 0x2
	.byte	0x7
	.long	.Ldebug_macro19
	.byte	0x4
	.byte	0x5
	.uleb128 0x24
	.long	.LASF1189
	.file 31 "/usr/include/bits/waitflags.h"
	.byte	0x3
	.uleb128 0x28
	.uleb128 0x1f
	.byte	0x7
	.long	.Ldebug_macro20
	.byte	0x4
	.file 32 "/usr/include/bits/waitstatus.h"
	.byte	0x3
	.uleb128 0x29
	.uleb128 0x20
	.byte	0x7
	.long	.Ldebug_macro21
	.byte	0x4
	.byte	0x7
	.long	.Ldebug_macro22
	.file 33 "/usr/include/bits/floatn.h"
	.byte	0x3
	.uleb128 0x38
	.uleb128 0x21
	.byte	0x7
	.long	.Ldebug_macro23
	.file 34 "/usr/include/bits/floatn-common.h"
	.byte	0x3
	.uleb128 0x83
	.uleb128 0x22
	.byte	0x5
	.uleb128 0x15
	.long	.LASF1225
	.byte	0x3
	.uleb128 0x18
	.uleb128 0x19
	.byte	0x5
	.uleb128 0x15
	.long	.LASF777
	.byte	0x4
	.byte	0x7
	.long	.Ldebug_macro24
	.byte	0x4
	.byte	0x4
	.byte	0x7
	.long	.Ldebug_macro25
	.file 35 "/usr/include/bits/types/locale_t.h"
	.byte	0x3
	.uleb128 0x152
	.uleb128 0x23
	.byte	0x5
	.uleb128 0x14
	.long	.LASF1253
	.file 36 "/usr/include/bits/types/__locale_t.h"
	.byte	0x3
	.uleb128 0x16
	.uleb128 0x24
	.byte	0x5
	.uleb128 0x14
	.long	.LASF1254
	.byte	0x4
	.byte	0x4
	.file 37 "/usr/include/sys/types.h"
	.byte	0x3
	.uleb128 0x202
	.uleb128 0x25
	.byte	0x5
	.uleb128 0x17
	.long	.LASF1255
	.byte	0x3
	.uleb128 0x1d
	.uleb128 0x4
	.byte	0x5
	.uleb128 0x18
	.long	.LASF1256
	.byte	0x3
	.uleb128 0x1b
	.uleb128 0x16
	.byte	0x7
	.long	.Ldebug_macro7
	.byte	0x4
	.byte	0x3
	.uleb128 0x1c
	.uleb128 0x17
	.byte	0x3
	.uleb128 0x13
	.uleb128 0x16
	.byte	0x7
	.long	.Ldebug_macro7
	.byte	0x4
	.byte	0x5
	.uleb128 0x1a
	.long	.LASF696
	.byte	0x4
	.byte	0x7
	.long	.Ldebug_macro26
	.file 38 "/usr/include/bits/typesizes.h"
	.byte	0x3
	.uleb128 0x8d
	.uleb128 0x26
	.byte	0x7
	.long	.Ldebug_macro27
	.byte	0x4
	.file 39 "/usr/include/bits/time64.h"
	.byte	0x3
	.uleb128 0x8e
	.uleb128 0x27
	.byte	0x7
	.long	.Ldebug_macro28
	.byte	0x4
	.byte	0x6
	.uleb128 0xe2
	.long	.LASF1316
	.byte	0x4
	.byte	0x7
	.long	.Ldebug_macro29
	.file 40 "/usr/include/bits/types/clock_t.h"
	.byte	0x3
	.uleb128 0x7e
	.uleb128 0x28
	.byte	0x5
	.uleb128 0x2
	.long	.LASF1332
	.byte	0x4
	.file 41 "/usr/include/bits/types/clockid_t.h"
	.byte	0x3
	.uleb128 0x80
	.uleb128 0x29
	.byte	0x5
	.uleb128 0x2
	.long	.LASF1333
	.byte	0x4
	.file 42 "/usr/include/bits/types/time_t.h"
	.byte	0x3
	.uleb128 0x81
	.uleb128 0x2a
	.byte	0x5
	.uleb128 0x2
	.long	.LASF1334
	.byte	0x4
	.file 43 "/usr/include/bits/types/timer_t.h"
	.byte	0x3
	.uleb128 0x82
	.uleb128 0x2b
	.byte	0x5
	.uleb128 0x2
	.long	.LASF1335
	.byte	0x4
	.byte	0x7
	.long	.Ldebug_macro30
	.byte	0x3
	.uleb128 0x90
	.uleb128 0x2
	.byte	0x7
	.long	.Ldebug_macro31
	.byte	0x4
	.byte	0x3
	.uleb128 0x9b
	.uleb128 0x5
	.byte	0x5
	.uleb128 0x14
	.long	.LASF1338
	.byte	0x4
	.byte	0x5
	.uleb128 0xab
	.long	.LASF1339
	.file 44 "/usr/include/endian.h"
	.byte	0x3
	.uleb128 0xb0
	.uleb128 0x2c
	.byte	0x5
	.uleb128 0x13
	.long	.LASF1340
	.file 45 "/usr/include/bits/endian.h"
	.byte	0x3
	.uleb128 0x18
	.uleb128 0x2d
	.byte	0x7
	.long	.Ldebug_macro32
	.file 46 "/usr/include/bits/endianness.h"
	.byte	0x3
	.uleb128 0x23
	.uleb128 0x2e
	.byte	0x7
	.long	.Ldebug_macro33
	.byte	0x4
	.byte	0x7
	.long	.Ldebug_macro34
	.byte	0x4
	.byte	0x7
	.long	.Ldebug_macro35
	.file 47 "/usr/include/bits/byteswap.h"
	.byte	0x3
	.uleb128 0x23
	.uleb128 0x2f
	.byte	0x7
	.long	.Ldebug_macro36
	.byte	0x4
	.file 48 "/usr/include/bits/uintn-identity.h"
	.byte	0x3
	.uleb128 0x24
	.uleb128 0x30
	.byte	0x5
	.uleb128 0x18
	.long	.LASF1357
	.byte	0x4
	.byte	0x7
	.long	.Ldebug_macro37
	.byte	0x4
	.file 49 "/usr/include/sys/select.h"
	.byte	0x3
	.uleb128 0xb3
	.uleb128 0x31
	.byte	0x5
	.uleb128 0x16
	.long	.LASF1370
	.file 50 "/usr/include/bits/select.h"
	.byte	0x3
	.uleb128 0x1e
	.uleb128 0x32
	.byte	0x7
	.long	.Ldebug_macro38
	.byte	0x4
	.file 51 "/usr/include/bits/types/sigset_t.h"
	.byte	0x3
	.uleb128 0x21
	.uleb128 0x33
	.byte	0x5
	.uleb128 0x2
	.long	.LASF1375
	.file 52 "/usr/include/bits/types/__sigset_t.h"
	.byte	0x3
	.uleb128 0x4
	.uleb128 0x34
	.byte	0x7
	.long	.Ldebug_macro39
	.byte	0x4
	.byte	0x4
	.file 53 "/usr/include/bits/types/struct_timeval.h"
	.byte	0x3
	.uleb128 0x25
	.uleb128 0x35
	.byte	0x5
	.uleb128 0x2
	.long	.LASF1378
	.byte	0x4
	.file 54 "/usr/include/bits/types/struct_timespec.h"
	.byte	0x3
	.uleb128 0x27
	.uleb128 0x36
	.byte	0x5
	.uleb128 0x3
	.long	.LASF1379
	.byte	0x4
	.byte	0x7
	.long	.Ldebug_macro40
	.byte	0x4
	.byte	0x7
	.long	.Ldebug_macro41
	.file 55 "/usr/include/bits/pthreadtypes.h"
	.byte	0x3
	.uleb128 0xe3
	.uleb128 0x37
	.byte	0x5
	.uleb128 0x14
	.long	.LASF1395
	.file 56 "/usr/include/bits/thread-shared-types.h"
	.byte	0x3
	.uleb128 0x17
	.uleb128 0x38
	.byte	0x5
	.uleb128 0x14
	.long	.LASF1396
	.file 57 "/usr/include/bits/pthreadtypes-arch.h"
	.byte	0x3
	.uleb128 0x2c
	.uleb128 0x39
	.byte	0x5
	.uleb128 0x13
	.long	.LASF1397
	.byte	0x3
	.uleb128 0x15
	.uleb128 0x16
	.byte	0x7
	.long	.Ldebug_macro7
	.byte	0x4
	.byte	0x7
	.long	.Ldebug_macro42
	.byte	0x4
	.file 58 "/usr/include/bits/atomic_wide_counter.h"
	.byte	0x3
	.uleb128 0x2e
	.uleb128 0x3a
	.byte	0x5
	.uleb128 0x14
	.long	.LASF1409
	.byte	0x4
	.file 59 "/usr/include/bits/struct_mutex.h"
	.byte	0x3
	.uleb128 0x4c
	.uleb128 0x3b
	.byte	0x7
	.long	.Ldebug_macro43
	.byte	0x4
	.file 60 "/usr/include/bits/struct_rwlock.h"
	.byte	0x3
	.uleb128 0x59
	.uleb128 0x3c
	.byte	0x7
	.long	.Ldebug_macro44
	.byte	0x4
	.byte	0x5
	.uleb128 0x72
	.long	.LASF1416
	.byte	0x4
	.byte	0x5
	.uleb128 0x3f
	.long	.LASF1417
	.byte	0x4
	.byte	0x4
	.file 61 "/usr/include/alloca.h"
	.byte	0x3
	.uleb128 0x2c2
	.uleb128 0x3d
	.byte	0x7
	.long	.Ldebug_macro45
	.byte	0x3
	.uleb128 0x18
	.uleb128 0x2
	.byte	0x7
	.long	.Ldebug_macro31
	.byte	0x4
	.byte	0x7
	.long	.Ldebug_macro46
	.byte	0x4
	.byte	0x5
	.uleb128 0x3b3
	.long	.LASF1421
	.byte	0x3
	.uleb128 0x3c5
	.uleb128 0xb
	.byte	0x4
	.byte	0x3
	.uleb128 0x489
	.uleb128 0xa
	.byte	0x4
	.byte	0x4
	.byte	0x6
	.uleb128 0x50
	.long	.LASF1422
	.byte	0x3
	.uleb128 0x51
	.uleb128 0x7
	.byte	0x7
	.long	.Ldebug_macro47
	.byte	0x4
	.byte	0x7
	.long	.Ldebug_macro48
	.byte	0x4
	.file 62 "/usr/lib/gcc/x86_64-pc-linux-gnu/14.3.1/include/immintrin.h"
	.byte	0x3
	.uleb128 0x2
	.uleb128 0x3e
	.byte	0x5
	.uleb128 0x19
	.long	.LASF1461
	.file 63 "/usr/lib/gcc/x86_64-pc-linux-gnu/14.3.1/include/x86gprintrin.h"
	.byte	0x3
	.uleb128 0x1b
	.uleb128 0x3f
	.byte	0x7
	.long	.Ldebug_macro49
	.file 64 "/usr/lib/gcc/x86_64-pc-linux-gnu/14.3.1/include/ia32intrin.h"
	.byte	0x3
	.uleb128 0x21
	.uleb128 0x40
	.byte	0x7
	.long	.Ldebug_macro50
	.byte	0x4
	.byte	0x3
	.uleb128 0x25
	.uleb128 0x2
	.byte	0x7
	.long	.Ldebug_macro51
	.byte	0x4
	.file 65 "/usr/lib/gcc/x86_64-pc-linux-gnu/14.3.1/include/adxintrin.h"
	.byte	0x3
	.uleb128 0x27
	.uleb128 0x41
	.byte	0x5
	.uleb128 0x1d
	.long	.LASF1527
	.byte	0x4
	.file 66 "/usr/lib/gcc/x86_64-pc-linux-gnu/14.3.1/include/bmiintrin.h"
	.byte	0x3
	.uleb128 0x29
	.uleb128 0x42
	.byte	0x5
	.uleb128 0x1d
	.long	.LASF1528
	.byte	0x4
	.file 67 "/usr/lib/gcc/x86_64-pc-linux-gnu/14.3.1/include/bmi2intrin.h"
	.byte	0x3
	.uleb128 0x2b
	.uleb128 0x43
	.byte	0x5
	.uleb128 0x1d
	.long	.LASF1529
	.byte	0x4
	.file 68 "/usr/lib/gcc/x86_64-pc-linux-gnu/14.3.1/include/cetintrin.h"
	.byte	0x3
	.uleb128 0x2d
	.uleb128 0x44
	.byte	0x7
	.long	.Ldebug_macro52
	.byte	0x4
	.file 69 "/usr/lib/gcc/x86_64-pc-linux-gnu/14.3.1/include/cldemoteintrin.h"
	.byte	0x3
	.uleb128 0x2f
	.uleb128 0x45
	.byte	0x7
	.long	.Ldebug_macro53
	.byte	0x4
	.file 70 "/usr/lib/gcc/x86_64-pc-linux-gnu/14.3.1/include/clflushoptintrin.h"
	.byte	0x3
	.uleb128 0x31
	.uleb128 0x46
	.byte	0x5
	.uleb128 0x1d
	.long	.LASF1540
	.byte	0x4
	.file 71 "/usr/lib/gcc/x86_64-pc-linux-gnu/14.3.1/include/clwbintrin.h"
	.byte	0x3
	.uleb128 0x33
	.uleb128 0x47
	.byte	0x5
	.uleb128 0x1d
	.long	.LASF1541
	.byte	0x4
	.file 72 "/usr/lib/gcc/x86_64-pc-linux-gnu/14.3.1/include/clzerointrin.h"
	.byte	0x3
	.uleb128 0x35
	.uleb128 0x48
	.byte	0x5
	.uleb128 0x19
	.long	.LASF1542
	.byte	0x4
	.file 73 "/usr/lib/gcc/x86_64-pc-linux-gnu/14.3.1/include/cmpccxaddintrin.h"
	.byte	0x3
	.uleb128 0x37
	.uleb128 0x49
	.byte	0x7
	.long	.Ldebug_macro54
	.byte	0x4
	.file 74 "/usr/lib/gcc/x86_64-pc-linux-gnu/14.3.1/include/enqcmdintrin.h"
	.byte	0x3
	.uleb128 0x39
	.uleb128 0x4a
	.byte	0x7
	.long	.Ldebug_macro55
	.byte	0x4
	.file 75 "/usr/lib/gcc/x86_64-pc-linux-gnu/14.3.1/include/fxsrintrin.h"
	.byte	0x3
	.uleb128 0x3b
	.uleb128 0x4b
	.byte	0x5
	.uleb128 0x1d
	.long	.LASF1553
	.byte	0x4
	.file 76 "/usr/lib/gcc/x86_64-pc-linux-gnu/14.3.1/include/lzcntintrin.h"
	.byte	0x3
	.uleb128 0x3d
	.uleb128 0x4c
	.byte	0x5
	.uleb128 0x1e
	.long	.LASF1554
	.byte	0x4
	.file 77 "/usr/lib/gcc/x86_64-pc-linux-gnu/14.3.1/include/lwpintrin.h"
	.byte	0x3
	.uleb128 0x3f
	.uleb128 0x4d
	.byte	0x7
	.long	.Ldebug_macro56
	.byte	0x4
	.file 78 "/usr/lib/gcc/x86_64-pc-linux-gnu/14.3.1/include/movdirintrin.h"
	.byte	0x3
	.uleb128 0x41
	.uleb128 0x4e
	.byte	0x7
	.long	.Ldebug_macro57
	.byte	0x4
	.file 79 "/usr/lib/gcc/x86_64-pc-linux-gnu/14.3.1/include/mwaitintrin.h"
	.byte	0x3
	.uleb128 0x43
	.uleb128 0x4f
	.byte	0x7
	.long	.Ldebug_macro58
	.byte	0x4
	.file 80 "/usr/lib/gcc/x86_64-pc-linux-gnu/14.3.1/include/mwaitxintrin.h"
	.byte	0x3
	.uleb128 0x45
	.uleb128 0x50
	.byte	0x5
	.uleb128 0x19
	.long	.LASF1572
	.byte	0x4
	.file 81 "/usr/lib/gcc/x86_64-pc-linux-gnu/14.3.1/include/pconfigintrin.h"
	.byte	0x3
	.uleb128 0x47
	.uleb128 0x51
	.byte	0x7
	.long	.Ldebug_macro59
	.byte	0x4
	.file 82 "/usr/lib/gcc/x86_64-pc-linux-gnu/14.3.1/include/popcntintrin.h"
	.byte	0x3
	.uleb128 0x49
	.uleb128 0x52
	.byte	0x5
	.uleb128 0x19
	.long	.LASF1580
	.byte	0x4
	.file 83 "/usr/lib/gcc/x86_64-pc-linux-gnu/14.3.1/include/pkuintrin.h"
	.byte	0x3
	.uleb128 0x4b
	.uleb128 0x53
	.byte	0x5
	.uleb128 0x1d
	.long	.LASF1581
	.byte	0x4
	.file 84 "/usr/lib/gcc/x86_64-pc-linux-gnu/14.3.1/include/prfchiintrin.h"
	.byte	0x3
	.uleb128 0x4d
	.uleb128 0x54
	.byte	0x7
	.long	.Ldebug_macro60
	.byte	0x4
	.file 85 "/usr/lib/gcc/x86_64-pc-linux-gnu/14.3.1/include/raointintrin.h"
	.byte	0x3
	.uleb128 0x4f
	.uleb128 0x55
	.byte	0x7
	.long	.Ldebug_macro61
	.byte	0x4
	.file 86 "/usr/lib/gcc/x86_64-pc-linux-gnu/14.3.1/include/rdseedintrin.h"
	.byte	0x3
	.uleb128 0x51
	.uleb128 0x56
	.byte	0x5
	.uleb128 0x1d
	.long	.LASF1592
	.byte	0x4
	.file 87 "/usr/lib/gcc/x86_64-pc-linux-gnu/14.3.1/include/rtmintrin.h"
	.byte	0x3
	.uleb128 0x53
	.uleb128 0x57
	.byte	0x7
	.long	.Ldebug_macro62
	.byte	0x4
	.file 88 "/usr/lib/gcc/x86_64-pc-linux-gnu/14.3.1/include/serializeintrin.h"
	.byte	0x3
	.uleb128 0x55
	.uleb128 0x58
	.byte	0x7
	.long	.Ldebug_macro63
	.byte	0x4
	.file 89 "/usr/lib/gcc/x86_64-pc-linux-gnu/14.3.1/include/sgxintrin.h"
	.byte	0x3
	.uleb128 0x57
	.uleb128 0x59
	.byte	0x7
	.long	.Ldebug_macro64
	.byte	0x4
	.file 90 "/usr/lib/gcc/x86_64-pc-linux-gnu/14.3.1/include/tbmintrin.h"
	.byte	0x3
	.uleb128 0x59
	.uleb128 0x5a
	.byte	0x7
	.long	.Ldebug_macro65
	.byte	0x4
	.file 91 "/usr/lib/gcc/x86_64-pc-linux-gnu/14.3.1/include/tsxldtrkintrin.h"
	.byte	0x3
	.uleb128 0x5b
	.uleb128 0x5b
	.byte	0x7
	.long	.Ldebug_macro66
	.byte	0x4
	.file 92 "/usr/lib/gcc/x86_64-pc-linux-gnu/14.3.1/include/uintrintrin.h"
	.byte	0x3
	.uleb128 0x5d
	.uleb128 0x5c
	.byte	0x7
	.long	.Ldebug_macro67
	.byte	0x4
	.file 93 "/usr/lib/gcc/x86_64-pc-linux-gnu/14.3.1/include/waitpkgintrin.h"
	.byte	0x3
	.uleb128 0x5f
	.uleb128 0x5d
	.byte	0x7
	.long	.Ldebug_macro68
	.byte	0x4
	.file 94 "/usr/lib/gcc/x86_64-pc-linux-gnu/14.3.1/include/wbnoinvdintrin.h"
	.byte	0x3
	.uleb128 0x61
	.uleb128 0x5e
	.byte	0x5
	.uleb128 0x1d
	.long	.LASF1649
	.byte	0x4
	.file 95 "/usr/lib/gcc/x86_64-pc-linux-gnu/14.3.1/include/xsaveintrin.h"
	.byte	0x3
	.uleb128 0x63
	.uleb128 0x5f
	.byte	0x5
	.uleb128 0x1d
	.long	.LASF1650
	.byte	0x4
	.file 96 "/usr/lib/gcc/x86_64-pc-linux-gnu/14.3.1/include/xsavecintrin.h"
	.byte	0x3
	.uleb128 0x65
	.uleb128 0x60
	.byte	0x5
	.uleb128 0x1d
	.long	.LASF1651
	.byte	0x4
	.file 97 "/usr/lib/gcc/x86_64-pc-linux-gnu/14.3.1/include/xsaveoptintrin.h"
	.byte	0x3
	.uleb128 0x67
	.uleb128 0x61
	.byte	0x5
	.uleb128 0x1d
	.long	.LASF1652
	.byte	0x4
	.file 98 "/usr/lib/gcc/x86_64-pc-linux-gnu/14.3.1/include/xsavesintrin.h"
	.byte	0x3
	.uleb128 0x69
	.uleb128 0x62
	.byte	0x5
	.uleb128 0x1d
	.long	.LASF1653
	.byte	0x4
	.file 99 "/usr/lib/gcc/x86_64-pc-linux-gnu/14.3.1/include/xtestintrin.h"
	.byte	0x3
	.uleb128 0x6b
	.uleb128 0x63
	.byte	0x7
	.long	.Ldebug_macro69
	.byte	0x4
	.file 100 "/usr/lib/gcc/x86_64-pc-linux-gnu/14.3.1/include/hresetintrin.h"
	.byte	0x3
	.uleb128 0x6d
	.uleb128 0x64
	.byte	0x7
	.long	.Ldebug_macro70
	.byte	0x4
	.file 101 "/usr/lib/gcc/x86_64-pc-linux-gnu/14.3.1/include/usermsrintrin.h"
	.byte	0x3
	.uleb128 0x6f
	.uleb128 0x65
	.byte	0x7
	.long	.Ldebug_macro71
	.byte	0x4
	.byte	0x7
	.long	.Ldebug_macro72
	.byte	0x4
	.file 102 "/usr/lib/gcc/x86_64-pc-linux-gnu/14.3.1/include/mmintrin.h"
	.byte	0x3
	.uleb128 0x1d
	.uleb128 0x66
	.byte	0x5
	.uleb128 0x1c
	.long	.LASF1671
	.byte	0x4
	.file 103 "/usr/lib/gcc/x86_64-pc-linux-gnu/14.3.1/include/xmmintrin.h"
	.byte	0x3
	.uleb128 0x1f
	.uleb128 0x67
	.byte	0x5
	.uleb128 0x1c
	.long	.LASF1672
	.file 104 "/usr/lib/gcc/x86_64-pc-linux-gnu/14.3.1/include/mm_malloc.h"
	.byte	0x3
	.uleb128 0x22
	.uleb128 0x68
	.byte	0x5
	.uleb128 0x19
	.long	.LASF1673
	.byte	0x3
	.uleb128 0x1b
	.uleb128 0xc
	.byte	0x5
	.uleb128 0x22
	.long	.LASF1674
	.byte	0x3
	.uleb128 0x24
	.uleb128 0x6
	.byte	0x4
	.byte	0x4
	.byte	0x4
	.byte	0x7
	.long	.Ldebug_macro73
	.file 105 "/usr/lib/gcc/x86_64-pc-linux-gnu/14.3.1/include/emmintrin.h"
	.byte	0x3
	.uleb128 0x52a
	.uleb128 0x69
	.byte	0x5
	.uleb128 0x1c
	.long	.LASF1699
	.byte	0x3
	.uleb128 0x1f
	.uleb128 0x67
	.byte	0x4
	.byte	0x5
	.uleb128 0x3d
	.long	.LASF1700
	.byte	0x4
	.byte	0x4
	.file 106 "/usr/lib/gcc/x86_64-pc-linux-gnu/14.3.1/include/pmmintrin.h"
	.byte	0x3
	.uleb128 0x23
	.uleb128 0x6a
	.byte	0x7
	.long	.Ldebug_macro74
	.byte	0x4
	.file 107 "/usr/lib/gcc/x86_64-pc-linux-gnu/14.3.1/include/tmmintrin.h"
	.byte	0x3
	.uleb128 0x25
	.uleb128 0x6b
	.byte	0x5
	.uleb128 0x1c
	.long	.LASF1707
	.byte	0x4
	.file 108 "/usr/lib/gcc/x86_64-pc-linux-gnu/14.3.1/include/smmintrin.h"
	.byte	0x3
	.uleb128 0x27
	.uleb128 0x6c
	.byte	0x7
	.long	.Ldebug_macro75
	.byte	0x4
	.file 109 "/usr/lib/gcc/x86_64-pc-linux-gnu/14.3.1/include/wmmintrin.h"
	.byte	0x3
	.uleb128 0x29
	.uleb128 0x6d
	.byte	0x7
	.long	.Ldebug_macro76
	.byte	0x4
	.file 110 "/usr/lib/gcc/x86_64-pc-linux-gnu/14.3.1/include/avxintrin.h"
	.byte	0x3
	.uleb128 0x2b
	.uleb128 0x6e
	.byte	0x7
	.long	.Ldebug_macro77
	.byte	0x4
	.file 111 "/usr/lib/gcc/x86_64-pc-linux-gnu/14.3.1/include/avxvnniintrin.h"
	.byte	0x3
	.uleb128 0x2d
	.uleb128 0x6f
	.byte	0x7
	.long	.Ldebug_macro78
	.byte	0x4
	.file 112 "/usr/lib/gcc/x86_64-pc-linux-gnu/14.3.1/include/avxifmaintrin.h"
	.byte	0x3
	.uleb128 0x2f
	.uleb128 0x70
	.byte	0x7
	.long	.Ldebug_macro79
	.byte	0x4
	.file 113 "/usr/lib/gcc/x86_64-pc-linux-gnu/14.3.1/include/avxvnniint8intrin.h"
	.byte	0x3
	.uleb128 0x31
	.uleb128 0x71
	.byte	0x7
	.long	.Ldebug_macro80
	.byte	0x4
	.file 114 "/usr/lib/gcc/x86_64-pc-linux-gnu/14.3.1/include/avxvnniint16intrin.h"
	.byte	0x3
	.uleb128 0x33
	.uleb128 0x72
	.byte	0x7
	.long	.Ldebug_macro81
	.byte	0x4
	.file 115 "/usr/lib/gcc/x86_64-pc-linux-gnu/14.3.1/include/avx2intrin.h"
	.byte	0x3
	.uleb128 0x35
	.uleb128 0x73
	.byte	0x7
	.long	.Ldebug_macro82
	.byte	0x4
	.file 116 "/usr/lib/gcc/x86_64-pc-linux-gnu/14.3.1/include/avx512fintrin.h"
	.byte	0x3
	.uleb128 0x37
	.uleb128 0x74
	.byte	0x7
	.long	.Ldebug_macro83
	.byte	0x4
	.file 117 "/usr/lib/gcc/x86_64-pc-linux-gnu/14.3.1/include/avx512erintrin.h"
	.byte	0x3
	.uleb128 0x39
	.uleb128 0x75
	.byte	0x7
	.long	.Ldebug_macro84
	.byte	0x4
	.file 118 "/usr/lib/gcc/x86_64-pc-linux-gnu/14.3.1/include/avx512pfintrin.h"
	.byte	0x3
	.uleb128 0x3b
	.uleb128 0x76
	.byte	0x7
	.long	.Ldebug_macro85
	.byte	0x4
	.file 119 "/usr/lib/gcc/x86_64-pc-linux-gnu/14.3.1/include/avx512cdintrin.h"
	.byte	0x3
	.uleb128 0x3d
	.uleb128 0x77
	.byte	0x5
	.uleb128 0x1d
	.long	.LASF1909
	.byte	0x4
	.file 120 "/usr/lib/gcc/x86_64-pc-linux-gnu/14.3.1/include/avx512vlintrin.h"
	.byte	0x3
	.uleb128 0x3f
	.uleb128 0x78
	.byte	0x7
	.long	.Ldebug_macro86
	.byte	0x4
	.file 121 "/usr/lib/gcc/x86_64-pc-linux-gnu/14.3.1/include/avx512bwintrin.h"
	.byte	0x3
	.uleb128 0x41
	.uleb128 0x79
	.byte	0x7
	.long	.Ldebug_macro87
	.byte	0x4
	.file 122 "/usr/lib/gcc/x86_64-pc-linux-gnu/14.3.1/include/avx512dqintrin.h"
	.byte	0x3
	.uleb128 0x43
	.uleb128 0x7a
	.byte	0x7
	.long	.Ldebug_macro88
	.byte	0x4
	.file 123 "/usr/lib/gcc/x86_64-pc-linux-gnu/14.3.1/include/avx512vlbwintrin.h"
	.byte	0x3
	.uleb128 0x45
	.uleb128 0x7b
	.byte	0x7
	.long	.Ldebug_macro89
	.byte	0x4
	.file 124 "/usr/lib/gcc/x86_64-pc-linux-gnu/14.3.1/include/avx512vldqintrin.h"
	.byte	0x3
	.uleb128 0x47
	.uleb128 0x7c
	.byte	0x7
	.long	.Ldebug_macro90
	.byte	0x4
	.file 125 "/usr/lib/gcc/x86_64-pc-linux-gnu/14.3.1/include/avx512ifmaintrin.h"
	.byte	0x3
	.uleb128 0x49
	.uleb128 0x7d
	.byte	0x5
	.uleb128 0x1d
	.long	.LASF1934
	.byte	0x4
	.file 126 "/usr/lib/gcc/x86_64-pc-linux-gnu/14.3.1/include/avx512ifmavlintrin.h"
	.byte	0x3
	.uleb128 0x4b
	.uleb128 0x7e
	.byte	0x7
	.long	.Ldebug_macro91
	.byte	0x4
	.file 127 "/usr/lib/gcc/x86_64-pc-linux-gnu/14.3.1/include/avx512vbmiintrin.h"
	.byte	0x3
	.uleb128 0x4d
	.uleb128 0x7f
	.byte	0x5
	.uleb128 0x1d
	.long	.LASF1942
	.byte	0x4
	.file 128 "/usr/lib/gcc/x86_64-pc-linux-gnu/14.3.1/include/avx512vbmivlintrin.h"
	.byte	0x3
	.uleb128 0x4f
	.uleb128 0x80
	.byte	0x7
	.long	.Ldebug_macro92
	.byte	0x4
	.file 129 "/usr/lib/gcc/x86_64-pc-linux-gnu/14.3.1/include/avx5124fmapsintrin.h"
	.byte	0x3
	.uleb128 0x51
	.uleb128 0x81
	.byte	0x7
	.long	.Ldebug_macro93
	.byte	0x4
	.file 130 "/usr/lib/gcc/x86_64-pc-linux-gnu/14.3.1/include/avx5124vnniwintrin.h"
	.byte	0x3
	.uleb128 0x53
	.uleb128 0x82
	.byte	0x7
	.long	.Ldebug_macro94
	.byte	0x4
	.file 131 "/usr/lib/gcc/x86_64-pc-linux-gnu/14.3.1/include/avx512vpopcntdqintrin.h"
	.byte	0x3
	.uleb128 0x55
	.uleb128 0x83
	.byte	0x5
	.uleb128 0x1d
	.long	.LASF1956
	.byte	0x4
	.file 132 "/usr/lib/gcc/x86_64-pc-linux-gnu/14.3.1/include/avx512vbmi2intrin.h"
	.byte	0x3
	.uleb128 0x57
	.uleb128 0x84
	.byte	0x5
	.uleb128 0x1d
	.long	.LASF1957
	.byte	0x4
	.file 133 "/usr/lib/gcc/x86_64-pc-linux-gnu/14.3.1/include/avx512vbmi2vlintrin.h"
	.byte	0x3
	.uleb128 0x59
	.uleb128 0x85
	.byte	0x7
	.long	.Ldebug_macro95
	.byte	0x4
	.file 134 "/usr/lib/gcc/x86_64-pc-linux-gnu/14.3.1/include/avx512vnniintrin.h"
	.byte	0x3
	.uleb128 0x5b
	.uleb128 0x86
	.byte	0x5
	.uleb128 0x1d
	.long	.LASF1961
	.byte	0x4
	.file 135 "/usr/lib/gcc/x86_64-pc-linux-gnu/14.3.1/include/avx512vnnivlintrin.h"
	.byte	0x3
	.uleb128 0x5d
	.uleb128 0x87
	.byte	0x7
	.long	.Ldebug_macro96
	.byte	0x4
	.file 136 "/usr/lib/gcc/x86_64-pc-linux-gnu/14.3.1/include/avx512vpopcntdqvlintrin.h"
	.byte	0x3
	.uleb128 0x5f
	.uleb128 0x88
	.byte	0x7
	.long	.Ldebug_macro97
	.byte	0x4
	.file 137 "/usr/lib/gcc/x86_64-pc-linux-gnu/14.3.1/include/avx512bitalgintrin.h"
	.byte	0x3
	.uleb128 0x61
	.uleb128 0x89
	.byte	0x5
	.uleb128 0x1d
	.long	.LASF1976
	.byte	0x4
	.file 138 "/usr/lib/gcc/x86_64-pc-linux-gnu/14.3.1/include/avx512bitalgvlintrin.h"
	.byte	0x3
	.uleb128 0x63
	.uleb128 0x8a
	.byte	0x7
	.long	.Ldebug_macro98
	.byte	0x4
	.file 139 "/usr/lib/gcc/x86_64-pc-linux-gnu/14.3.1/include/avx512vp2intersectintrin.h"
	.byte	0x3
	.uleb128 0x65
	.uleb128 0x8b
	.byte	0x7
	.long	.Ldebug_macro99
	.byte	0x4
	.file 140 "/usr/lib/gcc/x86_64-pc-linux-gnu/14.3.1/include/avx512vp2intersectvlintrin.h"
	.byte	0x3
	.uleb128 0x67
	.uleb128 0x8c
	.byte	0x7
	.long	.Ldebug_macro100
	.byte	0x4
	.file 141 "/usr/lib/gcc/x86_64-pc-linux-gnu/14.3.1/include/avx512fp16intrin.h"
	.byte	0x3
	.uleb128 0x69
	.uleb128 0x8d
	.byte	0x7
	.long	.Ldebug_macro101
	.byte	0x4
	.file 142 "/usr/lib/gcc/x86_64-pc-linux-gnu/14.3.1/include/avx512fp16vlintrin.h"
	.byte	0x3
	.uleb128 0x6b
	.uleb128 0x8e
	.byte	0x7
	.long	.Ldebug_macro102
	.byte	0x4
	.file 143 "/usr/lib/gcc/x86_64-pc-linux-gnu/14.3.1/include/shaintrin.h"
	.byte	0x3
	.uleb128 0x6d
	.uleb128 0x8f
	.byte	0x5
	.uleb128 0x1d
	.long	.LASF2051
	.byte	0x4
	.file 144 "/usr/lib/gcc/x86_64-pc-linux-gnu/14.3.1/include/sm3intrin.h"
	.byte	0x3
	.uleb128 0x6f
	.uleb128 0x90
	.byte	0x7
	.long	.Ldebug_macro103
	.byte	0x4
	.file 145 "/usr/lib/gcc/x86_64-pc-linux-gnu/14.3.1/include/sha512intrin.h"
	.byte	0x3
	.uleb128 0x71
	.uleb128 0x91
	.byte	0x7
	.long	.Ldebug_macro104
	.byte	0x4
	.file 146 "/usr/lib/gcc/x86_64-pc-linux-gnu/14.3.1/include/sm4intrin.h"
	.byte	0x3
	.uleb128 0x73
	.uleb128 0x92
	.byte	0x7
	.long	.Ldebug_macro105
	.byte	0x4
	.file 147 "/usr/lib/gcc/x86_64-pc-linux-gnu/14.3.1/include/fmaintrin.h"
	.byte	0x3
	.uleb128 0x75
	.uleb128 0x93
	.byte	0x5
	.uleb128 0x1d
	.long	.LASF2067
	.byte	0x4
	.file 148 "/usr/lib/gcc/x86_64-pc-linux-gnu/14.3.1/include/f16cintrin.h"
	.byte	0x3
	.uleb128 0x77
	.uleb128 0x94
	.byte	0x5
	.uleb128 0x1d
	.long	.LASF2068
	.byte	0x4
	.byte	0x3
	.uleb128 0x79
	.uleb128 0x57
	.byte	0x4
	.file 149 "/usr/lib/gcc/x86_64-pc-linux-gnu/14.3.1/include/gfniintrin.h"
	.byte	0x3
	.uleb128 0x7b
	.uleb128 0x95
	.byte	0x5
	.uleb128 0x1d
	.long	.LASF2069
	.byte	0x4
	.file 150 "/usr/lib/gcc/x86_64-pc-linux-gnu/14.3.1/include/vaesintrin.h"
	.byte	0x3
	.uleb128 0x7d
	.uleb128 0x96
	.byte	0x5
	.uleb128 0x19
	.long	.LASF2070
	.byte	0x4
	.file 151 "/usr/lib/gcc/x86_64-pc-linux-gnu/14.3.1/include/vpclmulqdqintrin.h"
	.byte	0x3
	.uleb128 0x7f
	.uleb128 0x97
	.byte	0x5
	.uleb128 0x1d
	.long	.LASF2071
	.byte	0x4
	.file 152 "/usr/lib/gcc/x86_64-pc-linux-gnu/14.3.1/include/avx512bf16vlintrin.h"
	.byte	0x3
	.uleb128 0x81
	.uleb128 0x98
	.byte	0x7
	.long	.Ldebug_macro106
	.byte	0x4
	.file 153 "/usr/lib/gcc/x86_64-pc-linux-gnu/14.3.1/include/avx512bf16intrin.h"
	.byte	0x3
	.uleb128 0x83
	.uleb128 0x99
	.byte	0x7
	.long	.Ldebug_macro107
	.byte	0x4
	.file 154 "/usr/lib/gcc/x86_64-pc-linux-gnu/14.3.1/include/avxneconvertintrin.h"
	.byte	0x3
	.uleb128 0x85
	.uleb128 0x9a
	.byte	0x7
	.long	.Ldebug_macro108
	.byte	0x4
	.file 155 "/usr/lib/gcc/x86_64-pc-linux-gnu/14.3.1/include/amxtileintrin.h"
	.byte	0x3
	.uleb128 0x87
	.uleb128 0x9b
	.byte	0x7
	.long	.Ldebug_macro109
	.byte	0x4
	.file 156 "/usr/lib/gcc/x86_64-pc-linux-gnu/14.3.1/include/amxint8intrin.h"
	.byte	0x3
	.uleb128 0x89
	.uleb128 0x9c
	.byte	0x7
	.long	.Ldebug_macro110
	.byte	0x4
	.file 157 "/usr/lib/gcc/x86_64-pc-linux-gnu/14.3.1/include/amxbf16intrin.h"
	.byte	0x3
	.uleb128 0x8b
	.uleb128 0x9d
	.byte	0x7
	.long	.Ldebug_macro111
	.byte	0x4
	.file 158 "/usr/lib/gcc/x86_64-pc-linux-gnu/14.3.1/include/amxcomplexintrin.h"
	.byte	0x3
	.uleb128 0x8d
	.uleb128 0x9e
	.byte	0x7
	.long	.Ldebug_macro112
	.byte	0x4
	.file 159 "/usr/lib/gcc/x86_64-pc-linux-gnu/14.3.1/include/prfchwintrin.h"
	.byte	0x3
	.uleb128 0x8f
	.uleb128 0x9f
	.byte	0x5
	.uleb128 0x1d
	.long	.LASF2124
	.byte	0x4
	.file 160 "/usr/lib/gcc/x86_64-pc-linux-gnu/14.3.1/include/keylockerintrin.h"
	.byte	0x3
	.uleb128 0x91
	.uleb128 0xa0
	.byte	0x7
	.long	.Ldebug_macro113
	.byte	0x4
	.file 161 "/usr/lib/gcc/x86_64-pc-linux-gnu/14.3.1/include/amxfp16intrin.h"
	.byte	0x3
	.uleb128 0x93
	.uleb128 0xa1
	.byte	0x7
	.long	.Ldebug_macro114
	.byte	0x4
	.byte	0x4
	.byte	0x3
	.uleb128 0x3
	.uleb128 0x8
	.byte	0x5
	.uleb128 0x1e
	.long	.LASF2137
	.file 162 "/usr/lib/gcc/x86_64-pc-linux-gnu/14.3.1/include/stdint.h"
	.byte	0x3
	.uleb128 0x2d
	.uleb128 0xa2
	.byte	0x7
	.long	.Ldebug_macro115
	.byte	0x3
	.uleb128 0x9
	.uleb128 0xf
	.byte	0x7
	.long	.Ldebug_macro116
	.byte	0x3
	.uleb128 0x1a
	.uleb128 0x1e
	.byte	0x7
	.long	.Ldebug_macro17
	.byte	0x4
	.file 163 "/usr/include/bits/wchar.h"
	.byte	0x3
	.uleb128 0x1c
	.uleb128 0xa3
	.byte	0x7
	.long	.Ldebug_macro117
	.byte	0x4
	.byte	0x3
	.uleb128 0x1d
	.uleb128 0x16
	.byte	0x7
	.long	.Ldebug_macro7
	.byte	0x4
	.byte	0x3
	.uleb128 0x25
	.uleb128 0xd
	.byte	0x5
	.uleb128 0x14
	.long	.LASF2146
	.byte	0x4
	.byte	0x3
	.uleb128 0x29
	.uleb128 0xe
	.byte	0x5
	.uleb128 0x14
	.long	.LASF2147
	.byte	0x4
	.byte	0x7
	.long	.Ldebug_macro118
	.byte	0x4
	.byte	0x5
	.uleb128 0xd
	.long	.LASF2243
	.byte	0x4
	.byte	0x4
	.byte	0x3
	.uleb128 0x4
	.uleb128 0x9
	.byte	0x5
	.uleb128 0x29
	.long	.LASF2244
	.file 164 "/usr/lib/gcc/x86_64-pc-linux-gnu/14.3.1/include/c++/bits/version.h"
	.byte	0x3
	.uleb128 0x2a
	.uleb128 0xa4
	.byte	0x7
	.long	.Ldebug_macro119
	.byte	0x4
	.byte	0x3
	.uleb128 0x2b
	.uleb128 0x10
	.byte	0x7
	.long	.Ldebug_macro120
	.byte	0x3
	.uleb128 0x1a
	.uleb128 0x1e
	.byte	0x7
	.long	.Ldebug_macro17
	.byte	0x4
	.byte	0x7
	.long	.Ldebug_macro121
	.byte	0x3
	.uleb128 0x21
	.uleb128 0x2
	.byte	0x7
	.long	.Ldebug_macro122
	.byte	0x4
	.byte	0x7
	.long	.Ldebug_macro123
	.file 165 "/usr/include/strings.h"
	.byte	0x3
	.uleb128 0x1ce
	.uleb128 0xa5
	.byte	0x7
	.long	.Ldebug_macro124
	.byte	0x3
	.uleb128 0x17
	.uleb128 0x2
	.byte	0x7
	.long	.Ldebug_macro122
	.byte	0x4
	.byte	0x5
	.uleb128 0x1b
	.long	.LASF2573
	.byte	0x4
	.byte	0x4
	.byte	0x7
	.long	.Ldebug_macro125
	.byte	0x4
	.byte	0x6
	.uleb128 0x3c
	.long	.LASF1463
	.byte	0x6
	.uleb128 0x3c
	.long	.LASF1464
	.byte	0x6
	.uleb128 0x3c
	.long	.LASF1465
	.byte	0x6
	.uleb128 0x3c
	.long	.LASF1466
	.byte	0x6
	.uleb128 0x3c
	.long	.LASF1467
	.byte	0x6
	.uleb128 0x3c
	.long	.LASF1468
	.byte	0x6
	.uleb128 0x3c
	.long	.LASF1469
	.byte	0x6
	.uleb128 0x3c
	.long	.LASF1470
	.byte	0x6
	.uleb128 0x3c
	.long	.LASF1471
	.byte	0x6
	.uleb128 0x3c
	.long	.LASF1472
	.byte	0x6
	.uleb128 0x3c
	.long	.LASF1473
	.byte	0x6
	.uleb128 0x3c
	.long	.LASF1474
	.byte	0x6
	.uleb128 0x3c
	.long	.LASF1475
	.byte	0x6
	.uleb128 0x3c
	.long	.LASF1476
	.byte	0x6
	.uleb128 0x3c
	.long	.LASF1477
	.byte	0x6
	.uleb128 0x3c
	.long	.LASF1478
	.byte	0x6
	.uleb128 0x3c
	.long	.LASF1479
	.byte	0x6
	.uleb128 0x3c
	.long	.LASF1480
	.byte	0x6
	.uleb128 0x3c
	.long	.LASF1481
	.byte	0x6
	.uleb128 0x3c
	.long	.LASF1482
	.byte	0x6
	.uleb128 0x3c
	.long	.LASF1483
	.byte	0x6
	.uleb128 0x3c
	.long	.LASF1484
	.byte	0x6
	.uleb128 0x3c
	.long	.LASF1485
	.byte	0x6
	.uleb128 0x3c
	.long	.LASF1486
	.byte	0x6
	.uleb128 0x3c
	.long	.LASF1487
	.byte	0x6
	.uleb128 0x3c
	.long	.LASF1488
	.byte	0x6
	.uleb128 0x3c
	.long	.LASF1489
	.byte	0x6
	.uleb128 0x3c
	.long	.LASF1490
	.byte	0x6
	.uleb128 0x3c
	.long	.LASF1491
	.byte	0x6
	.uleb128 0x3c
	.long	.LASF1492
	.byte	0x5
	.uleb128 0x3c
	.long	.LASF460
	.byte	0x6
	.uleb128 0x3c
	.long	.LASF1463
	.byte	0x5
	.uleb128 0x3c
	.long	.LASF460
	.byte	0x5
	.uleb128 0x3c
	.long	.LASF1531
	.byte	0x6
	.uleb128 0x3c
	.long	.LASF1463
	.byte	0x6
	.uleb128 0x3c
	.long	.LASF1534
	.byte	0x5
	.uleb128 0x3c
	.long	.LASF460
	.byte	0x6
	.uleb128 0x3c
	.long	.LASF1463
	.byte	0x5
	.uleb128 0x3c
	.long	.LASF460
	.byte	0x5
	.uleb128 0x3c
	.long	.LASF1536
	.byte	0x6
	.uleb128 0x3c
	.long	.LASF1463
	.byte	0x6
	.uleb128 0x3c
	.long	.LASF1539
	.byte	0x5
	.uleb128 0x3c
	.long	.LASF460
	.byte	0x6
	.uleb128 0x3c
	.long	.LASF1463
	.byte	0x5
	.uleb128 0x3c
	.long	.LASF460
	.byte	0x5
	.uleb128 0x3c
	.long	.LASF1544
	.byte	0x6
	.uleb128 0x3c
	.long	.LASF1463
	.byte	0x6
	.uleb128 0x3c
	.long	.LASF1547
	.byte	0x5
	.uleb128 0x3c
	.long	.LASF460
	.byte	0x6
	.uleb128 0x3c
	.long	.LASF1463
	.byte	0x5
	.uleb128 0x3c
	.long	.LASF460
	.byte	0x5
	.uleb128 0x3c
	.long	.LASF1549
	.byte	0x6
	.uleb128 0x3c
	.long	.LASF1463
	.byte	0x6
	.uleb128 0x3c
	.long	.LASF1552
	.byte	0x5
	.uleb128 0x3c
	.long	.LASF460
	.byte	0x6
	.uleb128 0x3c
	.long	.LASF1463
	.byte	0x5
	.uleb128 0x3c
	.long	.LASF460
	.byte	0x5
	.uleb128 0x3c
	.long	.LASF1556
	.byte	0x6
	.uleb128 0x3c
	.long	.LASF1463
	.byte	0x6
	.uleb128 0x3c
	.long	.LASF1559
	.byte	0x5
	.uleb128 0x3c
	.long	.LASF460
	.byte	0x6
	.uleb128 0x3c
	.long	.LASF1463
	.byte	0x5
	.uleb128 0x3c
	.long	.LASF460
	.byte	0x5
	.uleb128 0x3c
	.long	.LASF1561
	.byte	0x6
	.uleb128 0x3c
	.long	.LASF1463
	.byte	0x6
	.uleb128 0x3c
	.long	.LASF1564
	.byte	0x5
	.uleb128 0x3c
	.long	.LASF460
	.byte	0x6
	.uleb128 0x3c
	.long	.LASF1463
	.byte	0x5
	.uleb128 0x3c
	.long	.LASF460
	.byte	0x5
	.uleb128 0x3c
	.long	.LASF1565
	.byte	0x6
	.uleb128 0x3c
	.long	.LASF1463
	.byte	0x6
	.uleb128 0x3c
	.long	.LASF1568
	.byte	0x5
	.uleb128 0x3c
	.long	.LASF460
	.byte	0x6
	.uleb128 0x3c
	.long	.LASF1463
	.byte	0x5
	.uleb128 0x3c
	.long	.LASF460
	.byte	0x6
	.uleb128 0x3c
	.long	.LASF1463
	.byte	0x5
	.uleb128 0x3c
	.long	.LASF460
	.byte	0x5
	.uleb128 0x3c
	.long	.LASF1574
	.byte	0x6
	.uleb128 0x3c
	.long	.LASF1463
	.byte	0x6
	.uleb128 0x3c
	.long	.LASF1579
	.byte	0x5
	.uleb128 0x3c
	.long	.LASF460
	.byte	0x6
	.uleb128 0x3c
	.long	.LASF1463
	.byte	0x5
	.uleb128 0x3c
	.long	.LASF460
	.byte	0x5
	.uleb128 0x3c
	.long	.LASF1583
	.byte	0x6
	.uleb128 0x3c
	.long	.LASF1463
	.byte	0x6
	.uleb128 0x3c
	.long	.LASF1586
	.byte	0x5
	.uleb128 0x3c
	.long	.LASF460
	.byte	0x6
	.uleb128 0x3c
	.long	.LASF1463
	.byte	0x5
	.uleb128 0x3c
	.long	.LASF460
	.byte	0x5
	.uleb128 0x3c
	.long	.LASF1588
	.byte	0x6
	.uleb128 0x3c
	.long	.LASF1463
	.byte	0x6
	.uleb128 0x3c
	.long	.LASF1591
	.byte	0x5
	.uleb128 0x3c
	.long	.LASF460
	.byte	0x6
	.uleb128 0x3c
	.long	.LASF1463
	.byte	0x5
	.uleb128 0x3c
	.long	.LASF460
	.byte	0x5
	.uleb128 0x3c
	.long	.LASF1594
	.byte	0x6
	.uleb128 0x3c
	.long	.LASF1463
	.byte	0x6
	.uleb128 0x3c
	.long	.LASF1605
	.byte	0x5
	.uleb128 0x3c
	.long	.LASF460
	.byte	0x6
	.uleb128 0x3c
	.long	.LASF1463
	.byte	0x5
	.uleb128 0x3c
	.long	.LASF460
	.byte	0x5
	.uleb128 0x3c
	.long	.LASF1607
	.byte	0x6
	.uleb128 0x3c
	.long	.LASF1463
	.byte	0x6
	.uleb128 0x3c
	.long	.LASF1610
	.byte	0x5
	.uleb128 0x3c
	.long	.LASF460
	.byte	0x6
	.uleb128 0x3c
	.long	.LASF1463
	.byte	0x5
	.uleb128 0x3c
	.long	.LASF460
	.byte	0x5
	.uleb128 0x3c
	.long	.LASF1612
	.byte	0x6
	.uleb128 0x3c
	.long	.LASF1463
	.byte	0x6
	.uleb128 0x3c
	.long	.LASF1628
	.byte	0x5
	.uleb128 0x3c
	.long	.LASF460
	.byte	0x6
	.uleb128 0x3c
	.long	.LASF1463
	.byte	0x5
	.uleb128 0x3c
	.long	.LASF460
	.byte	0x5
	.uleb128 0x3c
	.long	.LASF1630
	.byte	0x6
	.uleb128 0x3c
	.long	.LASF1463
	.byte	0x6
	.uleb128 0x3c
	.long	.LASF1633
	.byte	0x5
	.uleb128 0x3c
	.long	.LASF460
	.byte	0x6
	.uleb128 0x3c
	.long	.LASF1463
	.byte	0x5
	.uleb128 0x3c
	.long	.LASF460
	.byte	0x5
	.uleb128 0x3c
	.long	.LASF1635
	.byte	0x6
	.uleb128 0x3c
	.long	.LASF1463
	.byte	0x6
	.uleb128 0x3c
	.long	.LASF1638
	.byte	0x5
	.uleb128 0x3c
	.long	.LASF460
	.byte	0x6
	.uleb128 0x3c
	.long	.LASF1463
	.byte	0x5
	.uleb128 0x3c
	.long	.LASF460
	.byte	0x5
	.uleb128 0x3c
	.long	.LASF1640
	.byte	0x6
	.uleb128 0x3c
	.long	.LASF1463
	.byte	0x6
	.uleb128 0x3c
	.long	.LASF1643
	.byte	0x5
	.uleb128 0x3c
	.long	.LASF460
	.byte	0x6
	.uleb128 0x3c
	.long	.LASF1463
	.byte	0x5
	.uleb128 0x3c
	.long	.LASF460
	.byte	0x5
	.uleb128 0x3c
	.long	.LASF1645
	.byte	0x6
	.uleb128 0x3c
	.long	.LASF1463
	.byte	0x6
	.uleb128 0x3c
	.long	.LASF1648
	.byte	0x5
	.uleb128 0x3c
	.long	.LASF460
	.byte	0x6
	.uleb128 0x3c
	.long	.LASF1463
	.byte	0x5
	.uleb128 0x3c
	.long	.LASF460
	.byte	0x5
	.uleb128 0x3c
	.long	.LASF1594
	.byte	0x6
	.uleb128 0x3c
	.long	.LASF1463
	.byte	0x6
	.uleb128 0x3c
	.long	.LASF1605
	.byte	0x5
	.uleb128 0x3c
	.long	.LASF460
	.byte	0x6
	.uleb128 0x3c
	.long	.LASF1463
	.byte	0x5
	.uleb128 0x3c
	.long	.LASF460
	.byte	0x5
	.uleb128 0x3c
	.long	.LASF1656
	.byte	0x6
	.uleb128 0x3c
	.long	.LASF1463
	.byte	0x6
	.uleb128 0x3c
	.long	.LASF1659
	.byte	0x5
	.uleb128 0x3c
	.long	.LASF460
	.byte	0x6
	.uleb128 0x3c
	.long	.LASF1463
	.byte	0x5
	.uleb128 0x3c
	.long	.LASF460
	.byte	0x5
	.uleb128 0x3c
	.long	.LASF1661
	.byte	0x6
	.uleb128 0x3c
	.long	.LASF1463
	.byte	0x6
	.uleb128 0x3c
	.long	.LASF1664
	.byte	0x5
	.uleb128 0x3c
	.long	.LASF460
	.byte	0x6
	.uleb128 0x3c
	.long	.LASF1463
	.byte	0x5
	.uleb128 0x3c
	.long	.LASF460
	.byte	0x5
	.uleb128 0x3c
	.long	.LASF1665
	.byte	0x6
	.uleb128 0x3c
	.long	.LASF1463
	.byte	0x6
	.uleb128 0x3c
	.long	.LASF1668
	.byte	0x5
	.uleb128 0x3c
	.long	.LASF460
	.byte	0x6
	.uleb128 0x3c
	.long	.LASF1463
	.byte	0x6
	.uleb128 0x3c
	.long	.LASF1670
	.byte	0x5
	.uleb128 0x3c
	.long	.LASF460
	.byte	0x5
	.uleb128 0x3c
	.long	.LASF462
	.byte	0x5
	.uleb128 0x3c
	.long	.LASF463
	.byte	0x5
	.uleb128 0x3c
	.long	.LASF464
	.byte	0x5
	.uleb128 0x3c
	.long	.LASF465
	.byte	0x5
	.uleb128 0x3c
	.long	.LASF466
	.byte	0x5
	.uleb128 0x3c
	.long	.LASF467
	.byte	0x5
	.uleb128 0x3c
	.long	.LASF468
	.byte	0x5
	.uleb128 0x3c
	.long	.LASF472
	.byte	0x5
	.uleb128 0x3c
	.long	.LASF473
	.byte	0x5
	.uleb128 0x3c
	.long	.LASF474
	.byte	0x5
	.uleb128 0x3c
	.long	.LASF475
	.byte	0x5
	.uleb128 0x3c
	.long	.LASF476
	.byte	0x5
	.uleb128 0x3c
	.long	.LASF477
	.byte	0x5
	.uleb128 0x3c
	.long	.LASF478
	.byte	0x5
	.uleb128 0x3c
	.long	.LASF479
	.byte	0x5
	.uleb128 0x3c
	.long	.LASF480
	.byte	0x5
	.uleb128 0x3c
	.long	.LASF481
	.byte	0x5
	.uleb128 0x3c
	.long	.LASF482
	.byte	0x5
	.uleb128 0x3c
	.long	.LASF483
	.byte	0x5
	.uleb128 0x3c
	.long	.LASF484
	.byte	0x5
	.uleb128 0x3c
	.long	.LASF485
	.byte	0x5
	.uleb128 0x3c
	.long	.LASF486
	.byte	0x5
	.uleb128 0x3c
	.long	.LASF487
	.byte	0x5
	.uleb128 0x3c
	.long	.LASF496
	.byte	0x5
	.uleb128 0x3c
	.long	.LASF503
	.byte	0x5
	.uleb128 0x3c
	.long	.LASF504
	.byte	0x5
	.uleb128 0x3c
	.long	.LASF514
	.byte	0x5
	.uleb128 0x3c
	.long	.LASF515
	.byte	0x5
	.uleb128 0x3c
	.long	.LASF516
	.byte	0x5
	.uleb128 0x3c
	.long	.LASF517
	.byte	0x6
	.uleb128 0x3c
	.long	.LASF1463
	.byte	0x6
	.uleb128 0x3c
	.long	.LASF1670
	.byte	0x5
	.uleb128 0x3c
	.long	.LASF460
	.byte	0x5
	.uleb128 0x3c
	.long	.LASF517
	.byte	0x5
	.uleb128 0x3c
	.long	.LASF1795
	.byte	0x6
	.uleb128 0x3c
	.long	.LASF1463
	.byte	0x6
	.uleb128 0x3c
	.long	.LASF1670
	.byte	0x6
	.uleb128 0x3c
	.long	.LASF1798
	.byte	0x5
	.uleb128 0x3c
	.long	.LASF460
	.byte	0x5
	.uleb128 0x3c
	.long	.LASF517
	.byte	0x6
	.uleb128 0x3c
	.long	.LASF1463
	.byte	0x6
	.uleb128 0x3c
	.long	.LASF1670
	.byte	0x5
	.uleb128 0x3c
	.long	.LASF460
	.byte	0x5
	.uleb128 0x3c
	.long	.LASF517
	.byte	0x5
	.uleb128 0x3c
	.long	.LASF1800
	.byte	0x6
	.uleb128 0x3c
	.long	.LASF1463
	.byte	0x6
	.uleb128 0x3c
	.long	.LASF1670
	.byte	0x6
	.uleb128 0x3c
	.long	.LASF1803
	.byte	0x5
	.uleb128 0x3c
	.long	.LASF460
	.byte	0x5
	.uleb128 0x3c
	.long	.LASF517
	.byte	0x6
	.uleb128 0x3c
	.long	.LASF1463
	.byte	0x6
	.uleb128 0x3c
	.long	.LASF1670
	.byte	0x5
	.uleb128 0x3c
	.long	.LASF460
	.byte	0x5
	.uleb128 0x3c
	.long	.LASF517
	.byte	0x5
	.uleb128 0x3c
	.long	.LASF1805
	.byte	0x6
	.uleb128 0x3c
	.long	.LASF1463
	.byte	0x6
	.uleb128 0x3c
	.long	.LASF1670
	.byte	0x6
	.uleb128 0x3c
	.long	.LASF1808
	.byte	0x5
	.uleb128 0x3c
	.long	.LASF460
	.byte	0x5
	.uleb128 0x3c
	.long	.LASF517
	.byte	0x6
	.uleb128 0x3c
	.long	.LASF1463
	.byte	0x6
	.uleb128 0x3c
	.long	.LASF1670
	.byte	0x5
	.uleb128 0x3c
	.long	.LASF460
	.byte	0x5
	.uleb128 0x3c
	.long	.LASF517
	.byte	0x5
	.uleb128 0x3c
	.long	.LASF1810
	.byte	0x6
	.uleb128 0x3c
	.long	.LASF1463
	.byte	0x6
	.uleb128 0x3c
	.long	.LASF1670
	.byte	0x6
	.uleb128 0x3c
	.long	.LASF1813
	.byte	0x5
	.uleb128 0x3c
	.long	.LASF460
	.byte	0x5
	.uleb128 0x3c
	.long	.LASF517
	.byte	0x6
	.uleb128 0x3c
	.long	.LASF1463
	.byte	0x6
	.uleb128 0x3c
	.long	.LASF1670
	.byte	0x6
	.uleb128 0x3c
	.long	.LASF1826
	.byte	0x5
	.uleb128 0x3c
	.long	.LASF460
	.byte	0x5
	.uleb128 0x3c
	.long	.LASF517
	.byte	0x6
	.uleb128 0x3c
	.long	.LASF1463
	.byte	0x6
	.uleb128 0x3c
	.long	.LASF1670
	.byte	0x5
	.uleb128 0x3c
	.long	.LASF460
	.byte	0x5
	.uleb128 0x3c
	.long	.LASF517
	.byte	0x5
	.uleb128 0x3c
	.long	.LASF520
	.byte	0x6
	.uleb128 0x3c
	.long	.LASF1463
	.byte	0x6
	.uleb128 0x3c
	.long	.LASF1670
	.byte	0x5
	.uleb128 0x3c
	.long	.LASF460
	.byte	0x5
	.uleb128 0x3c
	.long	.LASF1870
	.byte	0x5
	.uleb128 0x3c
	.long	.LASF517
	.byte	0x6
	.uleb128 0x3c
	.long	.LASF1463
	.byte	0x6
	.uleb128 0x3c
	.long	.LASF1903
	.byte	0x6
	.uleb128 0x3c
	.long	.LASF1670
	.byte	0x5
	.uleb128 0x3c
	.long	.LASF460
	.byte	0x5
	.uleb128 0x3c
	.long	.LASF517
	.byte	0x6
	.uleb128 0x3c
	.long	.LASF1463
	.byte	0x6
	.uleb128 0x3c
	.long	.LASF1670
	.byte	0x5
	.uleb128 0x3c
	.long	.LASF460
	.byte	0x5
	.uleb128 0x3c
	.long	.LASF1905
	.byte	0x5
	.uleb128 0x3c
	.long	.LASF517
	.byte	0x6
	.uleb128 0x3c
	.long	.LASF1463
	.byte	0x6
	.uleb128 0x3c
	.long	.LASF1908
	.byte	0x6
	.uleb128 0x3c
	.long	.LASF1670
	.byte	0x5
	.uleb128 0x3c
	.long	.LASF460
	.byte	0x5
	.uleb128 0x3c
	.long	.LASF517
	.byte	0x6
	.uleb128 0x3c
	.long	.LASF1463
	.byte	0x6
	.uleb128 0x3c
	.long	.LASF1670
	.byte	0x6
	.uleb128 0x3c
	.long	.LASF1826
	.byte	0x5
	.uleb128 0x3c
	.long	.LASF460
	.byte	0x5
	.uleb128 0x3c
	.long	.LASF517
	.byte	0x6
	.uleb128 0x3c
	.long	.LASF1463
	.byte	0x6
	.uleb128 0x3c
	.long	.LASF1670
	.byte	0x5
	.uleb128 0x3c
	.long	.LASF460
	.byte	0x5
	.uleb128 0x3c
	.long	.LASF517
	.byte	0x5
	.uleb128 0x3c
	.long	.LASF520
	.byte	0x6
	.uleb128 0x3c
	.long	.LASF1463
	.byte	0x6
	.uleb128 0x3c
	.long	.LASF1670
	.byte	0x6
	.uleb128 0x3c
	.long	.LASF1826
	.byte	0x5
	.uleb128 0x3c
	.long	.LASF460
	.byte	0x5
	.uleb128 0x3c
	.long	.LASF517
	.byte	0x6
	.uleb128 0x3c
	.long	.LASF1463
	.byte	0x6
	.uleb128 0x3c
	.long	.LASF1670
	.byte	0x5
	.uleb128 0x3c
	.long	.LASF460
	.byte	0x5
	.uleb128 0x3c
	.long	.LASF517
	.byte	0x5
	.uleb128 0x3c
	.long	.LASF520
	.byte	0x6
	.uleb128 0x3c
	.long	.LASF1463
	.byte	0x6
	.uleb128 0x3c
	.long	.LASF1670
	.byte	0x6
	.uleb128 0x3c
	.long	.LASF1826
	.byte	0x5
	.uleb128 0x3c
	.long	.LASF460
	.byte	0x5
	.uleb128 0x3c
	.long	.LASF517
	.byte	0x6
	.uleb128 0x3c
	.long	.LASF1463
	.byte	0x6
	.uleb128 0x3c
	.long	.LASF1670
	.byte	0x5
	.uleb128 0x3c
	.long	.LASF460
	.byte	0x5
	.uleb128 0x3c
	.long	.LASF517
	.byte	0x5
	.uleb128 0x3c
	.long	.LASF520
	.byte	0x6
	.uleb128 0x3c
	.long	.LASF1463
	.byte	0x6
	.uleb128 0x3c
	.long	.LASF1670
	.byte	0x6
	.uleb128 0x3c
	.long	.LASF1826
	.byte	0x5
	.uleb128 0x3c
	.long	.LASF460
	.byte	0x5
	.uleb128 0x3c
	.long	.LASF517
	.byte	0x6
	.uleb128 0x3c
	.long	.LASF1463
	.byte	0x6
	.uleb128 0x3c
	.long	.LASF1670
	.byte	0x5
	.uleb128 0x3c
	.long	.LASF460
	.byte	0x5
	.uleb128 0x3c
	.long	.LASF517
	.byte	0x5
	.uleb128 0x3c
	.long	.LASF520
	.byte	0x6
	.uleb128 0x3c
	.long	.LASF1463
	.byte	0x6
	.uleb128 0x3c
	.long	.LASF1670
	.byte	0x6
	.uleb128 0x3c
	.long	.LASF1826
	.byte	0x5
	.uleb128 0x3c
	.long	.LASF460
	.byte	0x5
	.uleb128 0x3c
	.long	.LASF517
	.byte	0x6
	.uleb128 0x3c
	.long	.LASF1463
	.byte	0x6
	.uleb128 0x3c
	.long	.LASF1670
	.byte	0x5
	.uleb128 0x3c
	.long	.LASF460
	.byte	0x5
	.uleb128 0x3c
	.long	.LASF517
	.byte	0x5
	.uleb128 0x3c
	.long	.LASF520
	.byte	0x6
	.uleb128 0x3c
	.long	.LASF1463
	.byte	0x6
	.uleb128 0x3c
	.long	.LASF1670
	.byte	0x6
	.uleb128 0x3c
	.long	.LASF1826
	.byte	0x5
	.uleb128 0x3c
	.long	.LASF460
	.byte	0x5
	.uleb128 0x3c
	.long	.LASF517
	.byte	0x6
	.uleb128 0x3c
	.long	.LASF1463
	.byte	0x6
	.uleb128 0x3c
	.long	.LASF1670
	.byte	0x5
	.uleb128 0x3c
	.long	.LASF460
	.byte	0x5
	.uleb128 0x3c
	.long	.LASF517
	.byte	0x5
	.uleb128 0x3c
	.long	.LASF520
	.byte	0x6
	.uleb128 0x3c
	.long	.LASF1463
	.byte	0x6
	.uleb128 0x3c
	.long	.LASF1670
	.byte	0x6
	.uleb128 0x3c
	.long	.LASF1826
	.byte	0x5
	.uleb128 0x3c
	.long	.LASF460
	.byte	0x5
	.uleb128 0x3c
	.long	.LASF517
	.byte	0x6
	.uleb128 0x3c
	.long	.LASF1463
	.byte	0x6
	.uleb128 0x3c
	.long	.LASF1670
	.byte	0x5
	.uleb128 0x3c
	.long	.LASF460
	.byte	0x5
	.uleb128 0x3c
	.long	.LASF517
	.byte	0x5
	.uleb128 0x3c
	.long	.LASF520
	.byte	0x6
	.uleb128 0x3c
	.long	.LASF1463
	.byte	0x6
	.uleb128 0x3c
	.long	.LASF1670
	.byte	0x5
	.uleb128 0x3c
	.long	.LASF460
	.byte	0x5
	.uleb128 0x3c
	.long	.LASF1947
	.byte	0x5
	.uleb128 0x3c
	.long	.LASF517
	.byte	0x6
	.uleb128 0x3c
	.long	.LASF1463
	.byte	0x6
	.uleb128 0x3c
	.long	.LASF1950
	.byte	0x6
	.uleb128 0x3c
	.long	.LASF1670
	.byte	0x5
	.uleb128 0x3c
	.long	.LASF460
	.byte	0x5
	.uleb128 0x3c
	.long	.LASF517
	.byte	0x6
	.uleb128 0x3c
	.long	.LASF1463
	.byte	0x6
	.uleb128 0x3c
	.long	.LASF1670
	.byte	0x5
	.uleb128 0x3c
	.long	.LASF460
	.byte	0x5
	.uleb128 0x3c
	.long	.LASF1952
	.byte	0x5
	.uleb128 0x3c
	.long	.LASF517
	.byte	0x6
	.uleb128 0x3c
	.long	.LASF1463
	.byte	0x6
	.uleb128 0x3c
	.long	.LASF1955
	.byte	0x6
	.uleb128 0x3c
	.long	.LASF1670
	.byte	0x5
	.uleb128 0x3c
	.long	.LASF460
	.byte	0x5
	.uleb128 0x3c
	.long	.LASF517
	.byte	0x6
	.uleb128 0x3c
	.long	.LASF1463
	.byte	0x6
	.uleb128 0x3c
	.long	.LASF1670
	.byte	0x6
	.uleb128 0x3c
	.long	.LASF1826
	.byte	0x5
	.uleb128 0x3c
	.long	.LASF460
	.byte	0x5
	.uleb128 0x3c
	.long	.LASF517
	.byte	0x6
	.uleb128 0x3c
	.long	.LASF1463
	.byte	0x6
	.uleb128 0x3c
	.long	.LASF1670
	.byte	0x5
	.uleb128 0x3c
	.long	.LASF460
	.byte	0x5
	.uleb128 0x3c
	.long	.LASF517
	.byte	0x5
	.uleb128 0x3c
	.long	.LASF520
	.byte	0x6
	.uleb128 0x3c
	.long	.LASF1463
	.byte	0x6
	.uleb128 0x3c
	.long	.LASF1670
	.byte	0x6
	.uleb128 0x3c
	.long	.LASF1826
	.byte	0x5
	.uleb128 0x3c
	.long	.LASF460
	.byte	0x5
	.uleb128 0x3c
	.long	.LASF517
	.byte	0x6
	.uleb128 0x3c
	.long	.LASF1463
	.byte	0x6
	.uleb128 0x3c
	.long	.LASF1670
	.byte	0x5
	.uleb128 0x3c
	.long	.LASF460
	.byte	0x5
	.uleb128 0x3c
	.long	.LASF517
	.byte	0x5
	.uleb128 0x3c
	.long	.LASF520
	.byte	0x6
	.uleb128 0x3c
	.long	.LASF1463
	.byte	0x6
	.uleb128 0x3c
	.long	.LASF1670
	.byte	0x6
	.uleb128 0x3c
	.long	.LASF1826
	.byte	0x5
	.uleb128 0x3c
	.long	.LASF460
	.byte	0x5
	.uleb128 0x3c
	.long	.LASF517
	.byte	0x6
	.uleb128 0x3c
	.long	.LASF1463
	.byte	0x6
	.uleb128 0x3c
	.long	.LASF1670
	.byte	0x5
	.uleb128 0x3c
	.long	.LASF460
	.byte	0x5
	.uleb128 0x3c
	.long	.LASF517
	.byte	0x5
	.uleb128 0x3c
	.long	.LASF520
	.byte	0x6
	.uleb128 0x3c
	.long	.LASF1463
	.byte	0x6
	.uleb128 0x3c
	.long	.LASF1670
	.byte	0x6
	.uleb128 0x3c
	.long	.LASF1826
	.byte	0x5
	.uleb128 0x3c
	.long	.LASF460
	.byte	0x5
	.uleb128 0x3c
	.long	.LASF517
	.byte	0x6
	.uleb128 0x3c
	.long	.LASF1463
	.byte	0x6
	.uleb128 0x3c
	.long	.LASF1670
	.byte	0x5
	.uleb128 0x3c
	.long	.LASF460
	.byte	0x5
	.uleb128 0x3c
	.long	.LASF517
	.byte	0x5
	.uleb128 0x3c
	.long	.LASF520
	.byte	0x6
	.uleb128 0x3c
	.long	.LASF1463
	.byte	0x6
	.uleb128 0x3c
	.long	.LASF1670
	.byte	0x5
	.uleb128 0x3c
	.long	.LASF460
	.byte	0x5
	.uleb128 0x3c
	.long	.LASF1981
	.byte	0x5
	.uleb128 0x3c
	.long	.LASF517
	.byte	0x6
	.uleb128 0x3c
	.long	.LASF1463
	.byte	0x6
	.uleb128 0x3c
	.long	.LASF1984
	.byte	0x6
	.uleb128 0x3c
	.long	.LASF1670
	.byte	0x5
	.uleb128 0x3c
	.long	.LASF460
	.byte	0x5
	.uleb128 0x3c
	.long	.LASF517
	.byte	0x6
	.uleb128 0x3c
	.long	.LASF1463
	.byte	0x6
	.uleb128 0x3c
	.long	.LASF1670
	.byte	0x6
	.uleb128 0x3c
	.long	.LASF1826
	.byte	0x5
	.uleb128 0x3c
	.long	.LASF460
	.byte	0x5
	.uleb128 0x3c
	.long	.LASF1981
	.byte	0x5
	.uleb128 0x3c
	.long	.LASF517
	.byte	0x6
	.uleb128 0x3c
	.long	.LASF1463
	.byte	0x6
	.uleb128 0x3c
	.long	.LASF1984
	.byte	0x6
	.uleb128 0x3c
	.long	.LASF1670
	.byte	0x5
	.uleb128 0x3c
	.long	.LASF460
	.byte	0x5
	.uleb128 0x3c
	.long	.LASF517
	.byte	0x5
	.uleb128 0x3c
	.long	.LASF520
	.byte	0x6
	.uleb128 0x3c
	.long	.LASF1463
	.byte	0x6
	.uleb128 0x3c
	.long	.LASF1670
	.byte	0x6
	.uleb128 0x3c
	.long	.LASF1826
	.byte	0x5
	.uleb128 0x3c
	.long	.LASF460
	.byte	0x5
	.uleb128 0x3c
	.long	.LASF1989
	.byte	0x5
	.uleb128 0x3c
	.long	.LASF517
	.byte	0x6
	.uleb128 0x3c
	.long	.LASF1463
	.byte	0x6
	.uleb128 0x3c
	.long	.LASF2004
	.byte	0x6
	.uleb128 0x3c
	.long	.LASF1670
	.byte	0x5
	.uleb128 0x3c
	.long	.LASF460
	.byte	0x5
	.uleb128 0x3c
	.long	.LASF517
	.byte	0x5
	.uleb128 0x3c
	.long	.LASF520
	.byte	0x6
	.uleb128 0x3c
	.long	.LASF1463
	.byte	0x6
	.uleb128 0x3c
	.long	.LASF1670
	.byte	0x5
	.uleb128 0x3c
	.long	.LASF460
	.byte	0x5
	.uleb128 0x3c
	.long	.LASF1989
	.byte	0x5
	.uleb128 0x3c
	.long	.LASF517
	.byte	0x6
	.uleb128 0x3c
	.long	.LASF1463
	.byte	0x6
	.uleb128 0x3c
	.long	.LASF2004
	.byte	0x6
	.uleb128 0x3c
	.long	.LASF1670
	.byte	0x5
	.uleb128 0x3c
	.long	.LASF460
	.byte	0x5
	.uleb128 0x3c
	.long	.LASF517
	.byte	0x6
	.uleb128 0x3c
	.long	.LASF1463
	.byte	0x6
	.uleb128 0x3c
	.long	.LASF1670
	.byte	0x6
	.uleb128 0x3c
	.long	.LASF1826
	.byte	0x5
	.uleb128 0x3c
	.long	.LASF460
	.byte	0x5
	.uleb128 0x3c
	.long	.LASF1989
	.byte	0x5
	.uleb128 0x3c
	.long	.LASF517
	.byte	0x6
	.uleb128 0x3c
	.long	.LASF1463
	.byte	0x6
	.uleb128 0x3c
	.long	.LASF2004
	.byte	0x6
	.uleb128 0x3c
	.long	.LASF1670
	.byte	0x5
	.uleb128 0x3c
	.long	.LASF460
	.byte	0x5
	.uleb128 0x3c
	.long	.LASF517
	.byte	0x5
	.uleb128 0x3c
	.long	.LASF520
	.byte	0x6
	.uleb128 0x3c
	.long	.LASF1463
	.byte	0x6
	.uleb128 0x3c
	.long	.LASF1670
	.byte	0x5
	.uleb128 0x3c
	.long	.LASF460
	.byte	0x5
	.uleb128 0x3c
	.long	.LASF517
	.byte	0x5
	.uleb128 0x3c
	.long	.LASF2053
	.byte	0x6
	.uleb128 0x3c
	.long	.LASF1463
	.byte	0x6
	.uleb128 0x3c
	.long	.LASF1670
	.byte	0x6
	.uleb128 0x3c
	.long	.LASF2056
	.byte	0x5
	.uleb128 0x3c
	.long	.LASF460
	.byte	0x5
	.uleb128 0x3c
	.long	.LASF517
	.byte	0x6
	.uleb128 0x3c
	.long	.LASF1463
	.byte	0x6
	.uleb128 0x3c
	.long	.LASF1670
	.byte	0x5
	.uleb128 0x3c
	.long	.LASF460
	.byte	0x5
	.uleb128 0x3c
	.long	.LASF517
	.byte	0x5
	.uleb128 0x3c
	.long	.LASF2058
	.byte	0x6
	.uleb128 0x3c
	.long	.LASF1463
	.byte	0x6
	.uleb128 0x3c
	.long	.LASF1670
	.byte	0x6
	.uleb128 0x3c
	.long	.LASF2061
	.byte	0x5
	.uleb128 0x3c
	.long	.LASF460
	.byte	0x5
	.uleb128 0x3c
	.long	.LASF517
	.byte	0x6
	.uleb128 0x3c
	.long	.LASF1463
	.byte	0x6
	.uleb128 0x3c
	.long	.LASF1670
	.byte	0x5
	.uleb128 0x3c
	.long	.LASF460
	.byte	0x5
	.uleb128 0x3c
	.long	.LASF517
	.byte	0x5
	.uleb128 0x3c
	.long	.LASF2063
	.byte	0x6
	.uleb128 0x3c
	.long	.LASF1463
	.byte	0x6
	.uleb128 0x3c
	.long	.LASF1670
	.byte	0x6
	.uleb128 0x3c
	.long	.LASF2066
	.byte	0x5
	.uleb128 0x3c
	.long	.LASF460
	.byte	0x5
	.uleb128 0x3c
	.long	.LASF517
	.byte	0x6
	.uleb128 0x3c
	.long	.LASF1463
	.byte	0x6
	.uleb128 0x3c
	.long	.LASF1670
	.byte	0x6
	.uleb128 0x3c
	.long	.LASF1826
	.byte	0x5
	.uleb128 0x3c
	.long	.LASF460
	.byte	0x5
	.uleb128 0x3c
	.long	.LASF517
	.byte	0x6
	.uleb128 0x3c
	.long	.LASF1463
	.byte	0x6
	.uleb128 0x3c
	.long	.LASF1670
	.byte	0x5
	.uleb128 0x3c
	.long	.LASF460
	.byte	0x5
	.uleb128 0x3c
	.long	.LASF517
	.byte	0x5
	.uleb128 0x3c
	.long	.LASF520
	.byte	0x6
	.uleb128 0x3c
	.long	.LASF1463
	.byte	0x6
	.uleb128 0x3c
	.long	.LASF1670
	.byte	0x6
	.uleb128 0x3c
	.long	.LASF1826
	.byte	0x5
	.uleb128 0x3c
	.long	.LASF460
	.byte	0x5
	.uleb128 0x3c
	.long	.LASF517
	.byte	0x6
	.uleb128 0x3c
	.long	.LASF1463
	.byte	0x6
	.uleb128 0x3c
	.long	.LASF1670
	.byte	0x5
	.uleb128 0x3c
	.long	.LASF460
	.byte	0x5
	.uleb128 0x3c
	.long	.LASF517
	.byte	0x5
	.uleb128 0x3c
	.long	.LASF520
	.byte	0x6
	.uleb128 0x3c
	.long	.LASF1463
	.byte	0x6
	.uleb128 0x3c
	.long	.LASF1670
	.byte	0x5
	.uleb128 0x3c
	.long	.LASF460
	.byte	0x5
	.uleb128 0x3c
	.long	.LASF517
	.byte	0x5
	.uleb128 0x3c
	.long	.LASF2081
	.byte	0x6
	.uleb128 0x3c
	.long	.LASF1463
	.byte	0x6
	.uleb128 0x3c
	.long	.LASF1670
	.byte	0x6
	.uleb128 0x3c
	.long	.LASF2084
	.byte	0x5
	.uleb128 0x3c
	.long	.LASF460
	.byte	0x5
	.uleb128 0x3c
	.long	.LASF517
	.byte	0x6
	.uleb128 0x3c
	.long	.LASF1463
	.byte	0x6
	.uleb128 0x3c
	.long	.LASF1670
	.byte	0x5
	.uleb128 0x3c
	.long	.LASF460
	.byte	0x5
	.uleb128 0x3c
	.long	.LASF517
	.byte	0x5
	.uleb128 0x3c
	.long	.LASF2086
	.byte	0x6
	.uleb128 0x3c
	.long	.LASF1463
	.byte	0x6
	.uleb128 0x3c
	.long	.LASF1670
	.byte	0x6
	.uleb128 0x3c
	.long	.LASF2097
	.byte	0x5
	.uleb128 0x3c
	.long	.LASF460
	.byte	0x5
	.uleb128 0x3c
	.long	.LASF517
	.byte	0x6
	.uleb128 0x3c
	.long	.LASF1463
	.byte	0x6
	.uleb128 0x3c
	.long	.LASF1670
	.byte	0x5
	.uleb128 0x3c
	.long	.LASF460
	.byte	0x5
	.uleb128 0x3c
	.long	.LASF517
	.byte	0x5
	.uleb128 0x3c
	.long	.LASF2086
	.byte	0x5
	.uleb128 0x3c
	.long	.LASF2099
	.byte	0x6
	.uleb128 0x3c
	.long	.LASF1463
	.byte	0x6
	.uleb128 0x3c
	.long	.LASF1670
	.byte	0x6
	.uleb128 0x3c
	.long	.LASF2097
	.byte	0x6
	.uleb128 0x3c
	.long	.LASF2107
	.byte	0x5
	.uleb128 0x3c
	.long	.LASF460
	.byte	0x5
	.uleb128 0x3c
	.long	.LASF517
	.byte	0x6
	.uleb128 0x3c
	.long	.LASF1463
	.byte	0x6
	.uleb128 0x3c
	.long	.LASF1670
	.byte	0x5
	.uleb128 0x3c
	.long	.LASF460
	.byte	0x5
	.uleb128 0x3c
	.long	.LASF517
	.byte	0x5
	.uleb128 0x3c
	.long	.LASF2086
	.byte	0x5
	.uleb128 0x3c
	.long	.LASF2109
	.byte	0x6
	.uleb128 0x3c
	.long	.LASF1463
	.byte	0x6
	.uleb128 0x3c
	.long	.LASF1670
	.byte	0x6
	.uleb128 0x3c
	.long	.LASF2097
	.byte	0x6
	.uleb128 0x3c
	.long	.LASF2114
	.byte	0x5
	.uleb128 0x3c
	.long	.LASF460
	.byte	0x5
	.uleb128 0x3c
	.long	.LASF517
	.byte	0x6
	.uleb128 0x3c
	.long	.LASF1463
	.byte	0x6
	.uleb128 0x3c
	.long	.LASF1670
	.byte	0x5
	.uleb128 0x3c
	.long	.LASF460
	.byte	0x5
	.uleb128 0x3c
	.long	.LASF517
	.byte	0x5
	.uleb128 0x3c
	.long	.LASF2086
	.byte	0x5
	.uleb128 0x3c
	.long	.LASF2116
	.byte	0x6
	.uleb128 0x3c
	.long	.LASF1463
	.byte	0x6
	.uleb128 0x3c
	.long	.LASF1670
	.byte	0x6
	.uleb128 0x3c
	.long	.LASF2097
	.byte	0x6
	.uleb128 0x3c
	.long	.LASF2123
	.byte	0x5
	.uleb128 0x3c
	.long	.LASF460
	.byte	0x5
	.uleb128 0x3c
	.long	.LASF517
	.byte	0x6
	.uleb128 0x3c
	.long	.LASF1463
	.byte	0x6
	.uleb128 0x3c
	.long	.LASF1670
	.byte	0x5
	.uleb128 0x3c
	.long	.LASF460
	.byte	0x5
	.uleb128 0x3c
	.long	.LASF517
	.byte	0x5
	.uleb128 0x3c
	.long	.LASF2126
	.byte	0x6
	.uleb128 0x3c
	.long	.LASF1463
	.byte	0x6
	.uleb128 0x3c
	.long	.LASF1670
	.byte	0x6
	.uleb128 0x3c
	.long	.LASF2129
	.byte	0x5
	.uleb128 0x3c
	.long	.LASF460
	.byte	0x5
	.uleb128 0x3c
	.long	.LASF517
	.byte	0x6
	.uleb128 0x3c
	.long	.LASF1463
	.byte	0x6
	.uleb128 0x3c
	.long	.LASF1670
	.byte	0x5
	.uleb128 0x3c
	.long	.LASF460
	.byte	0x5
	.uleb128 0x3c
	.long	.LASF517
	.byte	0x5
	.uleb128 0x3c
	.long	.LASF2126
	.byte	0x5
	.uleb128 0x3c
	.long	.LASF2130
	.byte	0x6
	.uleb128 0x3c
	.long	.LASF1463
	.byte	0x6
	.uleb128 0x3c
	.long	.LASF1670
	.byte	0x6
	.uleb128 0x3c
	.long	.LASF2129
	.byte	0x6
	.uleb128 0x3c
	.long	.LASF2133
	.byte	0x5
	.uleb128 0x3c
	.long	.LASF460
	.byte	0x5
	.uleb128 0x3c
	.long	.LASF517
	.byte	0x4
	.byte	0
	.section	.debug_macro,"G",@progbits,wm4.0.533cd598bd824ed5c585df816fc0db8f,comdat
.Ldebug_macro2:
	.value	0x5
	.byte	0
	.byte	0x5
	.uleb128 0
	.long	.LASF2
	.byte	0x5
	.uleb128 0
	.long	.LASF3
	.byte	0x5
	.uleb128 0
	.long	.LASF4
	.byte	0x5
	.uleb128 0
	.long	.LASF5
	.byte	0x5
	.uleb128 0
	.long	.LASF6
	.byte	0x5
	.uleb128 0
	.long	.LASF7
	.byte	0x5
	.uleb128 0
	.long	.LASF8
	.byte	0x5
	.uleb128 0
	.long	.LASF9
	.byte	0x5
	.uleb128 0
	.long	.LASF10
	.byte	0x5
	.uleb128 0
	.long	.LASF11
	.byte	0x5
	.uleb128 0
	.long	.LASF12
	.byte	0x5
	.uleb128 0
	.long	.LASF13
	.byte	0x5
	.uleb128 0
	.long	.LASF14
	.byte	0x5
	.uleb128 0
	.long	.LASF15
	.byte	0x5
	.uleb128 0
	.long	.LASF16
	.byte	0x5
	.uleb128 0
	.long	.LASF17
	.byte	0x5
	.uleb128 0
	.long	.LASF18
	.byte	0x5
	.uleb128 0
	.long	.LASF19
	.byte	0x5
	.uleb128 0
	.long	.LASF20
	.byte	0x5
	.uleb128 0
	.long	.LASF21
	.byte	0x5
	.uleb128 0
	.long	.LASF22
	.byte	0x5
	.uleb128 0
	.long	.LASF23
	.byte	0x5
	.uleb128 0
	.long	.LASF24
	.byte	0x5
	.uleb128 0
	.long	.LASF25
	.byte	0x5
	.uleb128 0
	.long	.LASF26
	.byte	0x5
	.uleb128 0
	.long	.LASF27
	.byte	0x5
	.uleb128 0
	.long	.LASF28
	.byte	0x5
	.uleb128 0
	.long	.LASF29
	.byte	0x5
	.uleb128 0
	.long	.LASF30
	.byte	0x5
	.uleb128 0
	.long	.LASF31
	.byte	0x5
	.uleb128 0
	.long	.LASF32
	.byte	0x5
	.uleb128 0
	.long	.LASF33
	.byte	0x5
	.uleb128 0
	.long	.LASF34
	.byte	0x5
	.uleb128 0
	.long	.LASF35
	.byte	0x5
	.uleb128 0
	.long	.LASF36
	.byte	0x5
	.uleb128 0
	.long	.LASF37
	.byte	0x5
	.uleb128 0
	.long	.LASF38
	.byte	0x5
	.uleb128 0
	.long	.LASF39
	.byte	0x5
	.uleb128 0
	.long	.LASF40
	.byte	0x5
	.uleb128 0
	.long	.LASF41
	.byte	0x5
	.uleb128 0
	.long	.LASF42
	.byte	0x5
	.uleb128 0
	.long	.LASF43
	.byte	0x5
	.uleb128 0
	.long	.LASF44
	.byte	0x5
	.uleb128 0
	.long	.LASF45
	.byte	0x5
	.uleb128 0
	.long	.LASF46
	.byte	0x5
	.uleb128 0
	.long	.LASF47
	.byte	0x5
	.uleb128 0
	.long	.LASF48
	.byte	0x5
	.uleb128 0
	.long	.LASF49
	.byte	0x5
	.uleb128 0
	.long	.LASF50
	.byte	0x5
	.uleb128 0
	.long	.LASF51
	.byte	0x5
	.uleb128 0
	.long	.LASF52
	.byte	0x5
	.uleb128 0
	.long	.LASF53
	.byte	0x5
	.uleb128 0
	.long	.LASF54
	.byte	0x5
	.uleb128 0
	.long	.LASF55
	.byte	0x5
	.uleb128 0
	.long	.LASF56
	.byte	0x5
	.uleb128 0
	.long	.LASF57
	.byte	0x5
	.uleb128 0
	.long	.LASF58
	.byte	0x5
	.uleb128 0
	.long	.LASF59
	.byte	0x5
	.uleb128 0
	.long	.LASF60
	.byte	0x5
	.uleb128 0
	.long	.LASF61
	.byte	0x5
	.uleb128 0
	.long	.LASF62
	.byte	0x5
	.uleb128 0
	.long	.LASF63
	.byte	0x5
	.uleb128 0
	.long	.LASF64
	.byte	0x5
	.uleb128 0
	.long	.LASF65
	.byte	0x5
	.uleb128 0
	.long	.LASF66
	.byte	0x5
	.uleb128 0
	.long	.LASF67
	.byte	0x5
	.uleb128 0
	.long	.LASF68
	.byte	0x5
	.uleb128 0
	.long	.LASF69
	.byte	0x5
	.uleb128 0
	.long	.LASF70
	.byte	0x5
	.uleb128 0
	.long	.LASF71
	.byte	0x5
	.uleb128 0
	.long	.LASF72
	.byte	0x5
	.uleb128 0
	.long	.LASF73
	.byte	0x5
	.uleb128 0
	.long	.LASF74
	.byte	0x5
	.uleb128 0
	.long	.LASF75
	.byte	0x5
	.uleb128 0
	.long	.LASF76
	.byte	0x5
	.uleb128 0
	.long	.LASF77
	.byte	0x5
	.uleb128 0
	.long	.LASF78
	.byte	0x5
	.uleb128 0
	.long	.LASF79
	.byte	0x5
	.uleb128 0
	.long	.LASF80
	.byte	0x5
	.uleb128 0
	.long	.LASF81
	.byte	0x5
	.uleb128 0
	.long	.LASF82
	.byte	0x5
	.uleb128 0
	.long	.LASF83
	.byte	0x5
	.uleb128 0
	.long	.LASF84
	.byte	0x5
	.uleb128 0
	.long	.LASF85
	.byte	0x5
	.uleb128 0
	.long	.LASF86
	.byte	0x5
	.uleb128 0
	.long	.LASF87
	.byte	0x5
	.uleb128 0
	.long	.LASF88
	.byte	0x5
	.uleb128 0
	.long	.LASF89
	.byte	0x5
	.uleb128 0
	.long	.LASF90
	.byte	0x5
	.uleb128 0
	.long	.LASF91
	.byte	0x5
	.uleb128 0
	.long	.LASF92
	.byte	0x5
	.uleb128 0
	.long	.LASF93
	.byte	0x5
	.uleb128 0
	.long	.LASF94
	.byte	0x5
	.uleb128 0
	.long	.LASF95
	.byte	0x5
	.uleb128 0
	.long	.LASF96
	.byte	0x5
	.uleb128 0
	.long	.LASF97
	.byte	0x5
	.uleb128 0
	.long	.LASF98
	.byte	0x5
	.uleb128 0
	.long	.LASF99
	.byte	0x5
	.uleb128 0
	.long	.LASF100
	.byte	0x5
	.uleb128 0
	.long	.LASF101
	.byte	0x5
	.uleb128 0
	.long	.LASF102
	.byte	0x5
	.uleb128 0
	.long	.LASF103
	.byte	0x5
	.uleb128 0
	.long	.LASF104
	.byte	0x5
	.uleb128 0
	.long	.LASF105
	.byte	0x5
	.uleb128 0
	.long	.LASF106
	.byte	0x5
	.uleb128 0
	.long	.LASF107
	.byte	0x5
	.uleb128 0
	.long	.LASF108
	.byte	0x5
	.uleb128 0
	.long	.LASF109
	.byte	0x5
	.uleb128 0
	.long	.LASF110
	.byte	0x5
	.uleb128 0
	.long	.LASF111
	.byte	0x5
	.uleb128 0
	.long	.LASF112
	.byte	0x5
	.uleb128 0
	.long	.LASF113
	.byte	0x5
	.uleb128 0
	.long	.LASF114
	.byte	0x5
	.uleb128 0
	.long	.LASF115
	.byte	0x5
	.uleb128 0
	.long	.LASF116
	.byte	0x5
	.uleb128 0
	.long	.LASF117
	.byte	0x5
	.uleb128 0
	.long	.LASF118
	.byte	0x5
	.uleb128 0
	.long	.LASF119
	.byte	0x5
	.uleb128 0
	.long	.LASF120
	.byte	0x5
	.uleb128 0
	.long	.LASF121
	.byte	0x5
	.uleb128 0
	.long	.LASF122
	.byte	0x5
	.uleb128 0
	.long	.LASF123
	.byte	0x5
	.uleb128 0
	.long	.LASF124
	.byte	0x5
	.uleb128 0
	.long	.LASF125
	.byte	0x5
	.uleb128 0
	.long	.LASF126
	.byte	0x5
	.uleb128 0
	.long	.LASF127
	.byte	0x5
	.uleb128 0
	.long	.LASF128
	.byte	0x5
	.uleb128 0
	.long	.LASF129
	.byte	0x5
	.uleb128 0
	.long	.LASF130
	.byte	0x5
	.uleb128 0
	.long	.LASF131
	.byte	0x5
	.uleb128 0
	.long	.LASF132
	.byte	0x5
	.uleb128 0
	.long	.LASF133
	.byte	0x5
	.uleb128 0
	.long	.LASF134
	.byte	0x5
	.uleb128 0
	.long	.LASF135
	.byte	0x5
	.uleb128 0
	.long	.LASF136
	.byte	0x5
	.uleb128 0
	.long	.LASF137
	.byte	0x5
	.uleb128 0
	.long	.LASF138
	.byte	0x5
	.uleb128 0
	.long	.LASF139
	.byte	0x5
	.uleb128 0
	.long	.LASF140
	.byte	0x5
	.uleb128 0
	.long	.LASF141
	.byte	0x5
	.uleb128 0
	.long	.LASF142
	.byte	0x5
	.uleb128 0
	.long	.LASF143
	.byte	0x5
	.uleb128 0
	.long	.LASF144
	.byte	0x5
	.uleb128 0
	.long	.LASF145
	.byte	0x5
	.uleb128 0
	.long	.LASF146
	.byte	0x5
	.uleb128 0
	.long	.LASF147
	.byte	0x5
	.uleb128 0
	.long	.LASF148
	.byte	0x5
	.uleb128 0
	.long	.LASF149
	.byte	0x5
	.uleb128 0
	.long	.LASF150
	.byte	0x5
	.uleb128 0
	.long	.LASF151
	.byte	0x5
	.uleb128 0
	.long	.LASF152
	.byte	0x5
	.uleb128 0
	.long	.LASF153
	.byte	0x5
	.uleb128 0
	.long	.LASF154
	.byte	0x5
	.uleb128 0
	.long	.LASF155
	.byte	0x5
	.uleb128 0
	.long	.LASF156
	.byte	0x5
	.uleb128 0
	.long	.LASF157
	.byte	0x5
	.uleb128 0
	.long	.LASF158
	.byte	0x5
	.uleb128 0
	.long	.LASF159
	.byte	0x5
	.uleb128 0
	.long	.LASF160
	.byte	0x5
	.uleb128 0
	.long	.LASF161
	.byte	0x5
	.uleb128 0
	.long	.LASF162
	.byte	0x5
	.uleb128 0
	.long	.LASF163
	.byte	0x5
	.uleb128 0
	.long	.LASF164
	.byte	0x5
	.uleb128 0
	.long	.LASF165
	.byte	0x5
	.uleb128 0
	.long	.LASF166
	.byte	0x5
	.uleb128 0
	.long	.LASF167
	.byte	0x5
	.uleb128 0
	.long	.LASF168
	.byte	0x5
	.uleb128 0
	.long	.LASF169
	.byte	0x5
	.uleb128 0
	.long	.LASF170
	.byte	0x5
	.uleb128 0
	.long	.LASF171
	.byte	0x5
	.uleb128 0
	.long	.LASF172
	.byte	0x5
	.uleb128 0
	.long	.LASF173
	.byte	0x5
	.uleb128 0
	.long	.LASF174
	.byte	0x5
	.uleb128 0
	.long	.LASF175
	.byte	0x5
	.uleb128 0
	.long	.LASF176
	.byte	0x5
	.uleb128 0
	.long	.LASF177
	.byte	0x5
	.uleb128 0
	.long	.LASF178
	.byte	0x5
	.uleb128 0
	.long	.LASF179
	.byte	0x5
	.uleb128 0
	.long	.LASF180
	.byte	0x5
	.uleb128 0
	.long	.LASF181
	.byte	0x5
	.uleb128 0
	.long	.LASF182
	.byte	0x5
	.uleb128 0
	.long	.LASF183
	.byte	0x5
	.uleb128 0
	.long	.LASF184
	.byte	0x5
	.uleb128 0
	.long	.LASF185
	.byte	0x5
	.uleb128 0
	.long	.LASF186
	.byte	0x5
	.uleb128 0
	.long	.LASF187
	.byte	0x5
	.uleb128 0
	.long	.LASF188
	.byte	0x5
	.uleb128 0
	.long	.LASF189
	.byte	0x5
	.uleb128 0
	.long	.LASF190
	.byte	0x5
	.uleb128 0
	.long	.LASF191
	.byte	0x5
	.uleb128 0
	.long	.LASF192
	.byte	0x5
	.uleb128 0
	.long	.LASF193
	.byte	0x5
	.uleb128 0
	.long	.LASF194
	.byte	0x5
	.uleb128 0
	.long	.LASF195
	.byte	0x5
	.uleb128 0
	.long	.LASF196
	.byte	0x5
	.uleb128 0
	.long	.LASF197
	.byte	0x5
	.uleb128 0
	.long	.LASF198
	.byte	0x5
	.uleb128 0
	.long	.LASF199
	.byte	0x5
	.uleb128 0
	.long	.LASF200
	.byte	0x5
	.uleb128 0
	.long	.LASF201
	.byte	0x5
	.uleb128 0
	.long	.LASF202
	.byte	0x5
	.uleb128 0
	.long	.LASF203
	.byte	0x5
	.uleb128 0
	.long	.LASF204
	.byte	0x5
	.uleb128 0
	.long	.LASF205
	.byte	0x5
	.uleb128 0
	.long	.LASF206
	.byte	0x5
	.uleb128 0
	.long	.LASF207
	.byte	0x5
	.uleb128 0
	.long	.LASF208
	.byte	0x5
	.uleb128 0
	.long	.LASF209
	.byte	0x5
	.uleb128 0
	.long	.LASF210
	.byte	0x5
	.uleb128 0
	.long	.LASF211
	.byte	0x5
	.uleb128 0
	.long	.LASF212
	.byte	0x5
	.uleb128 0
	.long	.LASF213
	.byte	0x5
	.uleb128 0
	.long	.LASF214
	.byte	0x5
	.uleb128 0
	.long	.LASF215
	.byte	0x5
	.uleb128 0
	.long	.LASF216
	.byte	0x5
	.uleb128 0
	.long	.LASF217
	.byte	0x5
	.uleb128 0
	.long	.LASF218
	.byte	0x5
	.uleb128 0
	.long	.LASF219
	.byte	0x5
	.uleb128 0
	.long	.LASF220
	.byte	0x5
	.uleb128 0
	.long	.LASF221
	.byte	0x5
	.uleb128 0
	.long	.LASF222
	.byte	0x5
	.uleb128 0
	.long	.LASF223
	.byte	0x5
	.uleb128 0
	.long	.LASF224
	.byte	0x5
	.uleb128 0
	.long	.LASF225
	.byte	0x5
	.uleb128 0
	.long	.LASF226
	.byte	0x5
	.uleb128 0
	.long	.LASF227
	.byte	0x5
	.uleb128 0
	.long	.LASF228
	.byte	0x5
	.uleb128 0
	.long	.LASF229
	.byte	0x5
	.uleb128 0
	.long	.LASF230
	.byte	0x5
	.uleb128 0
	.long	.LASF231
	.byte	0x5
	.uleb128 0
	.long	.LASF232
	.byte	0x5
	.uleb128 0
	.long	.LASF233
	.byte	0x5
	.uleb128 0
	.long	.LASF234
	.byte	0x5
	.uleb128 0
	.long	.LASF235
	.byte	0x5
	.uleb128 0
	.long	.LASF236
	.byte	0x5
	.uleb128 0
	.long	.LASF237
	.byte	0x5
	.uleb128 0
	.long	.LASF238
	.byte	0x5
	.uleb128 0
	.long	.LASF239
	.byte	0x5
	.uleb128 0
	.long	.LASF240
	.byte	0x5
	.uleb128 0
	.long	.LASF241
	.byte	0x5
	.uleb128 0
	.long	.LASF242
	.byte	0x5
	.uleb128 0
	.long	.LASF243
	.byte	0x5
	.uleb128 0
	.long	.LASF244
	.byte	0x5
	.uleb128 0
	.long	.LASF245
	.byte	0x5
	.uleb128 0
	.long	.LASF246
	.byte	0x5
	.uleb128 0
	.long	.LASF247
	.byte	0x5
	.uleb128 0
	.long	.LASF248
	.byte	0x5
	.uleb128 0
	.long	.LASF249
	.byte	0x5
	.uleb128 0
	.long	.LASF250
	.byte	0x5
	.uleb128 0
	.long	.LASF251
	.byte	0x5
	.uleb128 0
	.long	.LASF252
	.byte	0x5
	.uleb128 0
	.long	.LASF253
	.byte	0x5
	.uleb128 0
	.long	.LASF254
	.byte	0x5
	.uleb128 0
	.long	.LASF255
	.byte	0x5
	.uleb128 0
	.long	.LASF256
	.byte	0x5
	.uleb128 0
	.long	.LASF257
	.byte	0x5
	.uleb128 0
	.long	.LASF258
	.byte	0x5
	.uleb128 0
	.long	.LASF259
	.byte	0x5
	.uleb128 0
	.long	.LASF260
	.byte	0x5
	.uleb128 0
	.long	.LASF261
	.byte	0x5
	.uleb128 0
	.long	.LASF262
	.byte	0x5
	.uleb128 0
	.long	.LASF263
	.byte	0x5
	.uleb128 0
	.long	.LASF264
	.byte	0x5
	.uleb128 0
	.long	.LASF265
	.byte	0x5
	.uleb128 0
	.long	.LASF266
	.byte	0x5
	.uleb128 0
	.long	.LASF267
	.byte	0x5
	.uleb128 0
	.long	.LASF268
	.byte	0x5
	.uleb128 0
	.long	.LASF269
	.byte	0x5
	.uleb128 0
	.long	.LASF270
	.byte	0x5
	.uleb128 0
	.long	.LASF271
	.byte	0x5
	.uleb128 0
	.long	.LASF272
	.byte	0x5
	.uleb128 0
	.long	.LASF273
	.byte	0x5
	.uleb128 0
	.long	.LASF274
	.byte	0x5
	.uleb128 0
	.long	.LASF275
	.byte	0x5
	.uleb128 0
	.long	.LASF276
	.byte	0x5
	.uleb128 0
	.long	.LASF277
	.byte	0x5
	.uleb128 0
	.long	.LASF278
	.byte	0x5
	.uleb128 0
	.long	.LASF279
	.byte	0x5
	.uleb128 0
	.long	.LASF280
	.byte	0x5
	.uleb128 0
	.long	.LASF281
	.byte	0x5
	.uleb128 0
	.long	.LASF282
	.byte	0x5
	.uleb128 0
	.long	.LASF283
	.byte	0x5
	.uleb128 0
	.long	.LASF284
	.byte	0x5
	.uleb128 0
	.long	.LASF285
	.byte	0x5
	.uleb128 0
	.long	.LASF286
	.byte	0x5
	.uleb128 0
	.long	.LASF287
	.byte	0x5
	.uleb128 0
	.long	.LASF288
	.byte	0x5
	.uleb128 0
	.long	.LASF289
	.byte	0x5
	.uleb128 0
	.long	.LASF290
	.byte	0x5
	.uleb128 0
	.long	.LASF291
	.byte	0x5
	.uleb128 0
	.long	.LASF292
	.byte	0x5
	.uleb128 0
	.long	.LASF293
	.byte	0x5
	.uleb128 0
	.long	.LASF294
	.byte	0x5
	.uleb128 0
	.long	.LASF295
	.byte	0x5
	.uleb128 0
	.long	.LASF296
	.byte	0x5
	.uleb128 0
	.long	.LASF297
	.byte	0x5
	.uleb128 0
	.long	.LASF298
	.byte	0x5
	.uleb128 0
	.long	.LASF299
	.byte	0x5
	.uleb128 0
	.long	.LASF300
	.byte	0x5
	.uleb128 0
	.long	.LASF301
	.byte	0x5
	.uleb128 0
	.long	.LASF302
	.byte	0x5
	.uleb128 0
	.long	.LASF303
	.byte	0x5
	.uleb128 0
	.long	.LASF304
	.byte	0x5
	.uleb128 0
	.long	.LASF305
	.byte	0x5
	.uleb128 0
	.long	.LASF306
	.byte	0x5
	.uleb128 0
	.long	.LASF307
	.byte	0x5
	.uleb128 0
	.long	.LASF308
	.byte	0x5
	.uleb128 0
	.long	.LASF309
	.byte	0x5
	.uleb128 0
	.long	.LASF310
	.byte	0x5
	.uleb128 0
	.long	.LASF311
	.byte	0x5
	.uleb128 0
	.long	.LASF312
	.byte	0x5
	.uleb128 0
	.long	.LASF313
	.byte	0x5
	.uleb128 0
	.long	.LASF314
	.byte	0x5
	.uleb128 0
	.long	.LASF315
	.byte	0x5
	.uleb128 0
	.long	.LASF316
	.byte	0x5
	.uleb128 0
	.long	.LASF317
	.byte	0x5
	.uleb128 0
	.long	.LASF318
	.byte	0x5
	.uleb128 0
	.long	.LASF319
	.byte	0x5
	.uleb128 0
	.long	.LASF320
	.byte	0x5
	.uleb128 0
	.long	.LASF321
	.byte	0x5
	.uleb128 0
	.long	.LASF322
	.byte	0x5
	.uleb128 0
	.long	.LASF323
	.byte	0x5
	.uleb128 0
	.long	.LASF324
	.byte	0x5
	.uleb128 0
	.long	.LASF325
	.byte	0x5
	.uleb128 0
	.long	.LASF326
	.byte	0x5
	.uleb128 0
	.long	.LASF327
	.byte	0x5
	.uleb128 0
	.long	.LASF328
	.byte	0x5
	.uleb128 0
	.long	.LASF329
	.byte	0x5
	.uleb128 0
	.long	.LASF330
	.byte	0x5
	.uleb128 0
	.long	.LASF331
	.byte	0x5
	.uleb128 0
	.long	.LASF332
	.byte	0x5
	.uleb128 0
	.long	.LASF333
	.byte	0x5
	.uleb128 0
	.long	.LASF334
	.byte	0x5
	.uleb128 0
	.long	.LASF335
	.byte	0x5
	.uleb128 0
	.long	.LASF336
	.byte	0x5
	.uleb128 0
	.long	.LASF337
	.byte	0x5
	.uleb128 0
	.long	.LASF338
	.byte	0x5
	.uleb128 0
	.long	.LASF339
	.byte	0x5
	.uleb128 0
	.long	.LASF340
	.byte	0x5
	.uleb128 0
	.long	.LASF341
	.byte	0x5
	.uleb128 0
	.long	.LASF342
	.byte	0x5
	.uleb128 0
	.long	.LASF343
	.byte	0x5
	.uleb128 0
	.long	.LASF344
	.byte	0x5
	.uleb128 0
	.long	.LASF345
	.byte	0x5
	.uleb128 0
	.long	.LASF346
	.byte	0x5
	.uleb128 0
	.long	.LASF347
	.byte	0x5
	.uleb128 0
	.long	.LASF348
	.byte	0x5
	.uleb128 0
	.long	.LASF349
	.byte	0x5
	.uleb128 0
	.long	.LASF350
	.byte	0x5
	.uleb128 0
	.long	.LASF351
	.byte	0x5
	.uleb128 0
	.long	.LASF352
	.byte	0x5
	.uleb128 0
	.long	.LASF353
	.byte	0x5
	.uleb128 0
	.long	.LASF354
	.byte	0x5
	.uleb128 0
	.long	.LASF355
	.byte	0x5
	.uleb128 0
	.long	.LASF356
	.byte	0x5
	.uleb128 0
	.long	.LASF357
	.byte	0x5
	.uleb128 0
	.long	.LASF358
	.byte	0x5
	.uleb128 0
	.long	.LASF359
	.byte	0x5
	.uleb128 0
	.long	.LASF360
	.byte	0x5
	.uleb128 0
	.long	.LASF361
	.byte	0x5
	.uleb128 0
	.long	.LASF362
	.byte	0x5
	.uleb128 0
	.long	.LASF363
	.byte	0x5
	.uleb128 0
	.long	.LASF364
	.byte	0x5
	.uleb128 0
	.long	.LASF365
	.byte	0x5
	.uleb128 0
	.long	.LASF366
	.byte	0x5
	.uleb128 0
	.long	.LASF367
	.byte	0x5
	.uleb128 0
	.long	.LASF368
	.byte	0x5
	.uleb128 0
	.long	.LASF369
	.byte	0x5
	.uleb128 0
	.long	.LASF370
	.byte	0x5
	.uleb128 0
	.long	.LASF371
	.byte	0x5
	.uleb128 0
	.long	.LASF372
	.byte	0x5
	.uleb128 0
	.long	.LASF373
	.byte	0x5
	.uleb128 0
	.long	.LASF374
	.byte	0x5
	.uleb128 0
	.long	.LASF375
	.byte	0x5
	.uleb128 0
	.long	.LASF376
	.byte	0x5
	.uleb128 0
	.long	.LASF377
	.byte	0x5
	.uleb128 0
	.long	.LASF378
	.byte	0x5
	.uleb128 0
	.long	.LASF379
	.byte	0x5
	.uleb128 0
	.long	.LASF380
	.byte	0x5
	.uleb128 0
	.long	.LASF381
	.byte	0x5
	.uleb128 0
	.long	.LASF382
	.byte	0x5
	.uleb128 0
	.long	.LASF383
	.byte	0x5
	.uleb128 0
	.long	.LASF384
	.byte	0x5
	.uleb128 0
	.long	.LASF385
	.byte	0x5
	.uleb128 0
	.long	.LASF386
	.byte	0x5
	.uleb128 0
	.long	.LASF387
	.byte	0x5
	.uleb128 0
	.long	.LASF388
	.byte	0x5
	.uleb128 0
	.long	.LASF389
	.byte	0x5
	.uleb128 0
	.long	.LASF390
	.byte	0x5
	.uleb128 0
	.long	.LASF391
	.byte	0x5
	.uleb128 0
	.long	.LASF392
	.byte	0x5
	.uleb128 0
	.long	.LASF393
	.byte	0x5
	.uleb128 0
	.long	.LASF394
	.byte	0x5
	.uleb128 0
	.long	.LASF395
	.byte	0x5
	.uleb128 0
	.long	.LASF396
	.byte	0x5
	.uleb128 0
	.long	.LASF397
	.byte	0x5
	.uleb128 0
	.long	.LASF398
	.byte	0x5
	.uleb128 0
	.long	.LASF399
	.byte	0x5
	.uleb128 0
	.long	.LASF400
	.byte	0x5
	.uleb128 0
	.long	.LASF401
	.byte	0x5
	.uleb128 0
	.long	.LASF402
	.byte	0x5
	.uleb128 0
	.long	.LASF403
	.byte	0x5
	.uleb128 0
	.long	.LASF404
	.byte	0x5
	.uleb128 0
	.long	.LASF405
	.byte	0x5
	.uleb128 0
	.long	.LASF406
	.byte	0x5
	.uleb128 0
	.long	.LASF407
	.byte	0x5
	.uleb128 0
	.long	.LASF408
	.byte	0x5
	.uleb128 0
	.long	.LASF409
	.byte	0x5
	.uleb128 0
	.long	.LASF410
	.byte	0x5
	.uleb128 0
	.long	.LASF411
	.byte	0x5
	.uleb128 0
	.long	.LASF412
	.byte	0x5
	.uleb128 0
	.long	.LASF413
	.byte	0x5
	.uleb128 0
	.long	.LASF414
	.byte	0x5
	.uleb128 0
	.long	.LASF415
	.byte	0x5
	.uleb128 0
	.long	.LASF416
	.byte	0x5
	.uleb128 0
	.long	.LASF417
	.byte	0x5
	.uleb128 0
	.long	.LASF418
	.byte	0x5
	.uleb128 0
	.long	.LASF419
	.byte	0x5
	.uleb128 0
	.long	.LASF420
	.byte	0x5
	.uleb128 0
	.long	.LASF421
	.byte	0x5
	.uleb128 0
	.long	.LASF422
	.byte	0x5
	.uleb128 0
	.long	.LASF423
	.byte	0x5
	.uleb128 0
	.long	.LASF424
	.byte	0x5
	.uleb128 0
	.long	.LASF425
	.byte	0x5
	.uleb128 0
	.long	.LASF426
	.byte	0x5
	.uleb128 0
	.long	.LASF427
	.byte	0x5
	.uleb128 0
	.long	.LASF428
	.byte	0x5
	.uleb128 0
	.long	.LASF429
	.byte	0x5
	.uleb128 0
	.long	.LASF430
	.byte	0x5
	.uleb128 0
	.long	.LASF431
	.byte	0x5
	.uleb128 0
	.long	.LASF432
	.byte	0x5
	.uleb128 0
	.long	.LASF433
	.byte	0x5
	.uleb128 0
	.long	.LASF434
	.byte	0x5
	.uleb128 0
	.long	.LASF435
	.byte	0x5
	.uleb128 0
	.long	.LASF436
	.byte	0x5
	.uleb128 0
	.long	.LASF437
	.byte	0x5
	.uleb128 0
	.long	.LASF438
	.byte	0x5
	.uleb128 0
	.long	.LASF439
	.byte	0x5
	.uleb128 0
	.long	.LASF440
	.byte	0x5
	.uleb128 0
	.long	.LASF441
	.byte	0x5
	.uleb128 0
	.long	.LASF442
	.byte	0x5
	.uleb128 0
	.long	.LASF443
	.byte	0x5
	.uleb128 0
	.long	.LASF444
	.byte	0x5
	.uleb128 0
	.long	.LASF445
	.byte	0x5
	.uleb128 0
	.long	.LASF446
	.byte	0x5
	.uleb128 0
	.long	.LASF447
	.byte	0x5
	.uleb128 0
	.long	.LASF448
	.byte	0x5
	.uleb128 0
	.long	.LASF449
	.byte	0x5
	.uleb128 0
	.long	.LASF450
	.byte	0x5
	.uleb128 0
	.long	.LASF451
	.byte	0x5
	.uleb128 0
	.long	.LASF452
	.byte	0x5
	.uleb128 0
	.long	.LASF453
	.byte	0x5
	.uleb128 0
	.long	.LASF454
	.byte	0x5
	.uleb128 0
	.long	.LASF455
	.byte	0x5
	.uleb128 0
	.long	.LASF456
	.byte	0x5
	.uleb128 0
	.long	.LASF457
	.byte	0x5
	.uleb128 0
	.long	.LASF458
	.byte	0x5
	.uleb128 0
	.long	.LASF459
	.byte	0x5
	.uleb128 0
	.long	.LASF460
	.byte	0x5
	.uleb128 0
	.long	.LASF461
	.byte	0x5
	.uleb128 0
	.long	.LASF462
	.byte	0x5
	.uleb128 0
	.long	.LASF463
	.byte	0x5
	.uleb128 0
	.long	.LASF464
	.byte	0x5
	.uleb128 0
	.long	.LASF465
	.byte	0x5
	.uleb128 0
	.long	.LASF466
	.byte	0x5
	.uleb128 0
	.long	.LASF467
	.byte	0x5
	.uleb128 0
	.long	.LASF468
	.byte	0x5
	.uleb128 0
	.long	.LASF469
	.byte	0x5
	.uleb128 0
	.long	.LASF470
	.byte	0x5
	.uleb128 0
	.long	.LASF471
	.byte	0x5
	.uleb128 0
	.long	.LASF472
	.byte	0x5
	.uleb128 0
	.long	.LASF473
	.byte	0x5
	.uleb128 0
	.long	.LASF474
	.byte	0x5
	.uleb128 0
	.long	.LASF475
	.byte	0x5
	.uleb128 0
	.long	.LASF476
	.byte	0x5
	.uleb128 0
	.long	.LASF477
	.byte	0x5
	.uleb128 0
	.long	.LASF478
	.byte	0x5
	.uleb128 0
	.long	.LASF479
	.byte	0x5
	.uleb128 0
	.long	.LASF480
	.byte	0x5
	.uleb128 0
	.long	.LASF481
	.byte	0x5
	.uleb128 0
	.long	.LASF482
	.byte	0x5
	.uleb128 0
	.long	.LASF483
	.byte	0x5
	.uleb128 0
	.long	.LASF484
	.byte	0x5
	.uleb128 0
	.long	.LASF485
	.byte	0x5
	.uleb128 0
	.long	.LASF486
	.byte	0x5
	.uleb128 0
	.long	.LASF487
	.byte	0x5
	.uleb128 0
	.long	.LASF488
	.byte	0x5
	.uleb128 0
	.long	.LASF489
	.byte	0x5
	.uleb128 0
	.long	.LASF490
	.byte	0x5
	.uleb128 0
	.long	.LASF491
	.byte	0x5
	.uleb128 0
	.long	.LASF492
	.byte	0x5
	.uleb128 0
	.long	.LASF493
	.byte	0x5
	.uleb128 0
	.long	.LASF494
	.byte	0x5
	.uleb128 0
	.long	.LASF495
	.byte	0x5
	.uleb128 0
	.long	.LASF496
	.byte	0x5
	.uleb128 0
	.long	.LASF497
	.byte	0x5
	.uleb128 0
	.long	.LASF498
	.byte	0x5
	.uleb128 0
	.long	.LASF499
	.byte	0x5
	.uleb128 0
	.long	.LASF500
	.byte	0x5
	.uleb128 0
	.long	.LASF501
	.byte	0x5
	.uleb128 0
	.long	.LASF502
	.byte	0x5
	.uleb128 0
	.long	.LASF503
	.byte	0x5
	.uleb128 0
	.long	.LASF504
	.byte	0x5
	.uleb128 0
	.long	.LASF505
	.byte	0x5
	.uleb128 0
	.long	.LASF506
	.byte	0x5
	.uleb128 0
	.long	.LASF507
	.byte	0x5
	.uleb128 0
	.long	.LASF508
	.byte	0x5
	.uleb128 0
	.long	.LASF509
	.byte	0x5
	.uleb128 0
	.long	.LASF510
	.byte	0x5
	.uleb128 0
	.long	.LASF511
	.byte	0x5
	.uleb128 0
	.long	.LASF512
	.byte	0x5
	.uleb128 0
	.long	.LASF513
	.byte	0x5
	.uleb128 0
	.long	.LASF514
	.byte	0x5
	.uleb128 0
	.long	.LASF515
	.byte	0x5
	.uleb128 0
	.long	.LASF516
	.byte	0x5
	.uleb128 0
	.long	.LASF517
	.byte	0x5
	.uleb128 0
	.long	.LASF518
	.byte	0x5
	.uleb128 0
	.long	.LASF519
	.byte	0x5
	.uleb128 0
	.long	.LASF520
	.byte	0x5
	.uleb128 0
	.long	.LASF521
	.byte	0x5
	.uleb128 0
	.long	.LASF522
	.byte	0x5
	.uleb128 0
	.long	.LASF523
	.byte	0x5
	.uleb128 0
	.long	.LASF524
	.byte	0x5
	.uleb128 0
	.long	.LASF525
	.byte	0x5
	.uleb128 0
	.long	.LASF526
	.byte	0x5
	.uleb128 0
	.long	.LASF527
	.byte	0x5
	.uleb128 0
	.long	.LASF528
	.byte	0x5
	.uleb128 0
	.long	.LASF529
	.byte	0x5
	.uleb128 0
	.long	.LASF530
	.byte	0
	.section	.debug_macro,"G",@progbits,wm4.stdcpredef.h.19.88fdbfd5cf6f83ed579effc3e425f09b,comdat
.Ldebug_macro3:
	.value	0x5
	.byte	0
	.byte	0x5
	.uleb128 0x13
	.long	.LASF531
	.byte	0x5
	.uleb128 0x26
	.long	.LASF532
	.byte	0x5
	.uleb128 0x27
	.long	.LASF533
	.byte	0x5
	.uleb128 0x30
	.long	.LASF534
	.byte	0x5
	.uleb128 0x31
	.long	.LASF535
	.byte	0x5
	.uleb128 0x3e
	.long	.LASF536
	.byte	0
	.section	.debug_macro,"G",@progbits,wm4.cconfig.h.31.4485cd9e23ec6ada115edf573e6e8c3e,comdat
.Ldebug_macro4:
	.value	0x5
	.byte	0
	.byte	0x5
	.uleb128 0x1f
	.long	.LASF537
	.byte	0x5
	.uleb128 0x24
	.long	.LASF538
	.byte	0x5
	.uleb128 0x27
	.long	.LASF539
	.byte	0x5
	.uleb128 0x30
	.long	.LASF540
	.byte	0x5
	.uleb128 0x34
	.long	.LASF541
	.byte	0x5
	.uleb128 0x38
	.long	.LASF542
	.byte	0x5
	.uleb128 0x45
	.long	.LASF543
	.byte	0x5
	.uleb128 0x48
	.long	.LASF544
	.byte	0x5
	.uleb128 0x5e
	.long	.LASF545
	.byte	0x5
	.uleb128 0x62
	.long	.LASF546
	.byte	0x5
	.uleb128 0x63
	.long	.LASF547
	.byte	0x5
	.uleb128 0x6b
	.long	.LASF548
	.byte	0x5
	.uleb128 0x6c
	.long	.LASF549
	.byte	0x5
	.uleb128 0x73
	.long	.LASF550
	.byte	0x5
	.uleb128 0x74
	.long	.LASF551
	.byte	0x5
	.uleb128 0x7b
	.long	.LASF552
	.byte	0x5
	.uleb128 0x7c
	.long	.LASF553
	.byte	0x5
	.uleb128 0x83
	.long	.LASF554
	.byte	0x5
	.uleb128 0x84
	.long	.LASF555
	.byte	0x5
	.uleb128 0x8e
	.long	.LASF556
	.byte	0x5
	.uleb128 0x8f
	.long	.LASF557
	.byte	0x5
	.uleb128 0x94
	.long	.LASF558
	.byte	0x5
	.uleb128 0x99
	.long	.LASF559
	.byte	0x5
	.uleb128 0xa5
	.long	.LASF560
	.byte	0x5
	.uleb128 0xa6
	.long	.LASF561
	.byte	0x5
	.uleb128 0xaf
	.long	.LASF562
	.byte	0x5
	.uleb128 0xb7
	.long	.LASF563
	.byte	0x5
	.uleb128 0xbf
	.long	.LASF564
	.byte	0x5
	.uleb128 0xc9
	.long	.LASF565
	.byte	0x5
	.uleb128 0xcf
	.long	.LASF566
	.byte	0x5
	.uleb128 0xd8
	.long	.LASF567
	.byte	0x5
	.uleb128 0xd9
	.long	.LASF568
	.byte	0x5
	.uleb128 0xda
	.long	.LASF569
	.byte	0x5
	.uleb128 0xdb
	.long	.LASF570
	.byte	0x5
	.uleb128 0xe5
	.long	.LASF571
	.byte	0x5
	.uleb128 0xea
	.long	.LASF572
	.byte	0x5
	.uleb128 0xf1
	.long	.LASF573
	.byte	0x5
	.uleb128 0xf2
	.long	.LASF574
	.byte	0x5
	.uleb128 0x102
	.long	.LASF575
	.byte	0x5
	.uleb128 0x149
	.long	.LASF576
	.byte	0x5
	.uleb128 0x151
	.long	.LASF577
	.byte	0x5
	.uleb128 0x15d
	.long	.LASF578
	.byte	0x5
	.uleb128 0x15e
	.long	.LASF579
	.byte	0x5
	.uleb128 0x15f
	.long	.LASF580
	.byte	0x5
	.uleb128 0x160
	.long	.LASF581
	.byte	0x5
	.uleb128 0x169
	.long	.LASF582
	.byte	0x5
	.uleb128 0x18b
	.long	.LASF583
	.byte	0x5
	.uleb128 0x18c
	.long	.LASF584
	.byte	0x5
	.uleb128 0x18e
	.long	.LASF585
	.byte	0x5
	.uleb128 0x18f
	.long	.LASF586
	.byte	0x5
	.uleb128 0x1d0
	.long	.LASF587
	.byte	0x5
	.uleb128 0x1d1
	.long	.LASF588
	.byte	0x5
	.uleb128 0x1d2
	.long	.LASF589
	.byte	0x5
	.uleb128 0x1db
	.long	.LASF590
	.byte	0x5
	.uleb128 0x1dc
	.long	.LASF591
	.byte	0x5
	.uleb128 0x1dd
	.long	.LASF592
	.byte	0x6
	.uleb128 0x1e2
	.long	.LASF593
	.byte	0x6
	.uleb128 0x1e7
	.long	.LASF594
	.byte	0x5
	.uleb128 0x205
	.long	.LASF595
	.byte	0x5
	.uleb128 0x206
	.long	.LASF596
	.byte	0x5
	.uleb128 0x207
	.long	.LASF597
	.byte	0x5
	.uleb128 0x20b
	.long	.LASF598
	.byte	0x5
	.uleb128 0x20c
	.long	.LASF599
	.byte	0x5
	.uleb128 0x20d
	.long	.LASF600
	.byte	0x5
	.uleb128 0x225
	.long	.LASF601
	.byte	0x5
	.uleb128 0x239
	.long	.LASF602
	.byte	0x5
	.uleb128 0x249
	.long	.LASF603
	.byte	0x5
	.uleb128 0x263
	.long	.LASF604
	.byte	0x5
	.uleb128 0x28d
	.long	.LASF605
	.byte	0x5
	.uleb128 0x290
	.long	.LASF606
	.byte	0x5
	.uleb128 0x294
	.long	.LASF607
	.byte	0x5
	.uleb128 0x295
	.long	.LASF608
	.byte	0x5
	.uleb128 0x297
	.long	.LASF609
	.byte	0
	.section	.debug_macro,"G",@progbits,wm4.os_defines.h.31.00ac2dfcc18ce0a4ccd7d724c7e326ea,comdat
.Ldebug_macro5:
	.value	0x5
	.byte	0
	.byte	0x5
	.uleb128 0x1f
	.long	.LASF610
	.byte	0x5
	.uleb128 0x25
	.long	.LASF611
	.byte	0
	.section	.debug_macro,"G",@progbits,wm4.features.h.19.bdce2f9bc3939800030d1d9eb242d816,comdat
.Ldebug_macro6:
	.value	0x5
	.byte	0
	.byte	0x5
	.uleb128 0x13
	.long	.LASF612
	.byte	0x6
	.uleb128 0x81
	.long	.LASF613
	.byte	0x6
	.uleb128 0x82
	.long	.LASF614
	.byte	0x6
	.uleb128 0x83
	.long	.LASF615
	.byte	0x6
	.uleb128 0x84
	.long	.LASF616
	.byte	0x6
	.uleb128 0x85
	.long	.LASF617
	.byte	0x6
	.uleb128 0x86
	.long	.LASF618
	.byte	0x6
	.uleb128 0x87
	.long	.LASF619
	.byte	0x6
	.uleb128 0x88
	.long	.LASF620
	.byte	0x6
	.uleb128 0x89
	.long	.LASF621
	.byte	0x6
	.uleb128 0x8a
	.long	.LASF622
	.byte	0x6
	.uleb128 0x8b
	.long	.LASF623
	.byte	0x6
	.uleb128 0x8c
	.long	.LASF624
	.byte	0x6
	.uleb128 0x8d
	.long	.LASF625
	.byte	0x6
	.uleb128 0x8e
	.long	.LASF626
	.byte	0x6
	.uleb128 0x8f
	.long	.LASF627
	.byte	0x6
	.uleb128 0x90
	.long	.LASF628
	.byte	0x6
	.uleb128 0x91
	.long	.LASF629
	.byte	0x6
	.uleb128 0x92
	.long	.LASF630
	.byte	0x6
	.uleb128 0x93
	.long	.LASF631
	.byte	0x6
	.uleb128 0x94
	.long	.LASF632
	.byte	0x6
	.uleb128 0x95
	.long	.LASF633
	.byte	0x6
	.uleb128 0x96
	.long	.LASF634
	.byte	0x6
	.uleb128 0x97
	.long	.LASF635
	.byte	0x6
	.uleb128 0x98
	.long	.LASF636
	.byte	0x6
	.uleb128 0x99
	.long	.LASF637
	.byte	0x6
	.uleb128 0x9a
	.long	.LASF638
	.byte	0x6
	.uleb128 0x9b
	.long	.LASF639
	.byte	0x6
	.uleb128 0x9c
	.long	.LASF640
	.byte	0x6
	.uleb128 0x9d
	.long	.LASF641
	.byte	0x5
	.uleb128 0xa2
	.long	.LASF642
	.byte	0x5
	.uleb128 0xad
	.long	.LASF643
	.byte	0x5
	.uleb128 0xbb
	.long	.LASF644
	.byte	0x5
	.uleb128 0xbf
	.long	.LASF645
	.byte	0x6
	.uleb128 0xd5
	.long	.LASF646
	.byte	0x5
	.uleb128 0xd6
	.long	.LASF647
	.byte	0x6
	.uleb128 0xd7
	.long	.LASF648
	.byte	0x5
	.uleb128 0xd8
	.long	.LASF649
	.byte	0x6
	.uleb128 0xd9
	.long	.LASF650
	.byte	0x5
	.uleb128 0xda
	.long	.LASF651
	.byte	0x6
	.uleb128 0xdb
	.long	.LASF652
	.byte	0x5
	.uleb128 0xdc
	.long	.LASF653
	.byte	0x6
	.uleb128 0xdd
	.long	.LASF654
	.byte	0x5
	.uleb128 0xde
	.long	.LASF655
	.byte	0x6
	.uleb128 0xdf
	.long	.LASF656
	.byte	0x5
	.uleb128 0xe0
	.long	.LASF657
	.byte	0x6
	.uleb128 0xe1
	.long	.LASF658
	.byte	0x5
	.uleb128 0xe2
	.long	.LASF659
	.byte	0x6
	.uleb128 0xe3
	.long	.LASF660
	.byte	0x5
	.uleb128 0xe4
	.long	.LASF661
	.byte	0x6
	.uleb128 0xe5
	.long	.LASF662
	.byte	0x5
	.uleb128 0xe6
	.long	.LASF663
	.byte	0x6
	.uleb128 0xe7
	.long	.LASF664
	.byte	0x5
	.uleb128 0xe8
	.long	.LASF665
	.byte	0x6
	.uleb128 0xe9
	.long	.LASF666
	.byte	0x5
	.uleb128 0xea
	.long	.LASF667
	.byte	0x6
	.uleb128 0xeb
	.long	.LASF668
	.byte	0x5
	.uleb128 0xec
	.long	.LASF669
	.byte	0x6
	.uleb128 0xed
	.long	.LASF670
	.byte	0x5
	.uleb128 0xee
	.long	.LASF671
	.byte	0x6
	.uleb128 0xf9
	.long	.LASF666
	.byte	0x5
	.uleb128 0xfa
	.long	.LASF667
	.byte	0x5
	.uleb128 0x100
	.long	.LASF672
	.byte	0x5
	.uleb128 0x108
	.long	.LASF673
	.byte	0x5
	.uleb128 0x111
	.long	.LASF674
	.byte	0x5
	.uleb128 0x118
	.long	.LASF675
	.byte	0x5
	.uleb128 0x11f
	.long	.LASF676
	.byte	0x5
	.uleb128 0x125
	.long	.LASF674
	.byte	0x5
	.uleb128 0x12a
	.long	.LASF677
	.byte	0x5
	.uleb128 0x12b
	.long	.LASF675
	.byte	0x6
	.uleb128 0x136
	.long	.LASF656
	.byte	0x5
	.uleb128 0x137
	.long	.LASF657
	.byte	0x6
	.uleb128 0x138
	.long	.LASF658
	.byte	0x5
	.uleb128 0x139
	.long	.LASF659
	.byte	0x5
	.uleb128 0x15c
	.long	.LASF678
	.byte	0x5
	.uleb128 0x160
	.long	.LASF679
	.byte	0x5
	.uleb128 0x164
	.long	.LASF680
	.byte	0x5
	.uleb128 0x168
	.long	.LASF681
	.byte	0x5
	.uleb128 0x16c
	.long	.LASF682
	.byte	0x6
	.uleb128 0x16d
	.long	.LASF615
	.byte	0x5
	.uleb128 0x16e
	.long	.LASF676
	.byte	0x6
	.uleb128 0x16f
	.long	.LASF614
	.byte	0x5
	.uleb128 0x170
	.long	.LASF675
	.byte	0x5
	.uleb128 0x174
	.long	.LASF683
	.byte	0x6
	.uleb128 0x175
	.long	.LASF668
	.byte	0x5
	.uleb128 0x176
	.long	.LASF669
	.byte	0x5
	.uleb128 0x17a
	.long	.LASF684
	.byte	0x5
	.uleb128 0x17c
	.long	.LASF685
	.byte	0x5
	.uleb128 0x17d
	.long	.LASF686
	.byte	0x6
	.uleb128 0x17e
	.long	.LASF687
	.byte	0x5
	.uleb128 0x17f
	.long	.LASF688
	.byte	0x5
	.uleb128 0x182
	.long	.LASF683
	.byte	0x5
	.uleb128 0x183
	.long	.LASF689
	.byte	0x5
	.uleb128 0x185
	.long	.LASF682
	.byte	0x5
	.uleb128 0x186
	.long	.LASF690
	.byte	0x6
	.uleb128 0x187
	.long	.LASF615
	.byte	0x5
	.uleb128 0x188
	.long	.LASF676
	.byte	0x6
	.uleb128 0x189
	.long	.LASF614
	.byte	0x5
	.uleb128 0x18a
	.long	.LASF675
	.byte	0x5
	.uleb128 0x194
	.long	.LASF691
	.byte	0x5
	.uleb128 0x198
	.long	.LASF692
	.byte	0
	.section	.debug_macro,"G",@progbits,wm4.wordsize.h.4.21825217995af4880cdf0ea22ad93ab2,comdat
.Ldebug_macro7:
	.value	0x5
	.byte	0
	.byte	0x5
	.uleb128 0x4
	.long	.LASF693
	.byte	0x5
	.uleb128 0xb
	.long	.LASF694
	.byte	0x5
	.uleb128 0xf
	.long	.LASF695
	.byte	0
	.section	.debug_macro,"G",@progbits,wm4.features.h.418.633ae5e0448f1b58d5b8a586b2c0329d,comdat
.Ldebug_macro8:
	.value	0x5
	.byte	0
	.byte	0x5
	.uleb128 0x1a2
	.long	.LASF698
	.byte	0x5
	.uleb128 0x1a6
	.long	.LASF699
	.byte	0x5
	.uleb128 0x1aa
	.long	.LASF700
	.byte	0x5
	.uleb128 0x1ae
	.long	.LASF701
	.byte	0x5
	.uleb128 0x1c7
	.long	.LASF702
	.byte	0x5
	.uleb128 0x1cf
	.long	.LASF703
	.byte	0x5
	.uleb128 0x1e6
	.long	.LASF704
	.byte	0x5
	.uleb128 0x1ef
	.long	.LASF705
	.byte	0x6
	.uleb128 0x1fe
	.long	.LASF706
	.byte	0x5
	.uleb128 0x1ff
	.long	.LASF707
	.byte	0x5
	.uleb128 0x203
	.long	.LASF708
	.byte	0x5
	.uleb128 0x204
	.long	.LASF709
	.byte	0x5
	.uleb128 0x206
	.long	.LASF710
	.byte	0
	.section	.debug_macro,"G",@progbits,wm4.cdefs.h.20.3b5b75c5448e96e4c39679d0a8f1a476,comdat
.Ldebug_macro9:
	.value	0x5
	.byte	0
	.byte	0x5
	.uleb128 0x14
	.long	.LASF711
	.byte	0x2
	.uleb128 0x23
	.string	"__P"
	.byte	0x6
	.uleb128 0x24
	.long	.LASF712
	.byte	0x5
	.uleb128 0x2d
	.long	.LASF713
	.byte	0x5
	.uleb128 0x32
	.long	.LASF714
	.byte	0x5
	.uleb128 0x37
	.long	.LASF715
	.byte	0x5
	.uleb128 0x41
	.long	.LASF716
	.byte	0x5
	.uleb128 0x42
	.long	.LASF717
	.byte	0x5
	.uleb128 0x56
	.long	.LASF718
	.byte	0x5
	.uleb128 0x5a
	.long	.LASF719
	.byte	0x5
	.uleb128 0x5b
	.long	.LASF720
	.byte	0x5
	.uleb128 0x5c
	.long	.LASF721
	.byte	0x5
	.uleb128 0x66
	.long	.LASF722
	.byte	0x5
	.uleb128 0x7d
	.long	.LASF723
	.byte	0x5
	.uleb128 0x7e
	.long	.LASF724
	.byte	0x5
	.uleb128 0x83
	.long	.LASF725
	.byte	0x5
	.uleb128 0x84
	.long	.LASF726
	.byte	0x5
	.uleb128 0x87
	.long	.LASF727
	.byte	0x5
	.uleb128 0x8c
	.long	.LASF728
	.byte	0x5
	.uleb128 0x8d
	.long	.LASF729
	.byte	0x5
	.uleb128 0x99
	.long	.LASF730
	.byte	0x5
	.uleb128 0x9d
	.long	.LASF731
	.byte	0x5
	.uleb128 0x9e
	.long	.LASF732
	.byte	0x5
	.uleb128 0xa6
	.long	.LASF733
	.byte	0x5
	.uleb128 0xa7
	.long	.LASF734
	.byte	0x5
	.uleb128 0x16e
	.long	.LASF735
	.byte	0x5
	.uleb128 0x16f
	.long	.LASF736
	.byte	0x5
	.uleb128 0x180
	.long	.LASF737
	.byte	0x5
	.uleb128 0x181
	.long	.LASF738
	.byte	0x5
	.uleb128 0x19a
	.long	.LASF739
	.byte	0x5
	.uleb128 0x19c
	.long	.LASF740
	.byte	0x5
	.uleb128 0x19e
	.long	.LASF741
	.byte	0x5
	.uleb128 0x1a6
	.long	.LASF742
	.byte	0x5
	.uleb128 0x1a7
	.long	.LASF743
	.byte	0x5
	.uleb128 0x1aa
	.long	.LASF744
	.byte	0x5
	.uleb128 0x1ae
	.long	.LASF745
	.byte	0x5
	.uleb128 0x1c4
	.long	.LASF746
	.byte	0x5
	.uleb128 0x1cc
	.long	.LASF747
	.byte	0x5
	.uleb128 0x1d5
	.long	.LASF748
	.byte	0x5
	.uleb128 0x1df
	.long	.LASF749
	.byte	0x5
	.uleb128 0x1e6
	.long	.LASF750
	.byte	0x5
	.uleb128 0x1ec
	.long	.LASF751
	.byte	0x5
	.uleb128 0x1f5
	.long	.LASF752
	.byte	0x5
	.uleb128 0x1f6
	.long	.LASF753
	.byte	0x5
	.uleb128 0x1fe
	.long	.LASF754
	.byte	0x5
	.uleb128 0x208
	.long	.LASF755
	.byte	0x5
	.uleb128 0x215
	.long	.LASF756
	.byte	0x5
	.uleb128 0x21f
	.long	.LASF757
	.byte	0x5
	.uleb128 0x22b
	.long	.LASF758
	.byte	0x5
	.uleb128 0x231
	.long	.LASF759
	.byte	0x5
	.uleb128 0x238
	.long	.LASF760
	.byte	0x5
	.uleb128 0x241
	.long	.LASF761
	.byte	0x5
	.uleb128 0x24a
	.long	.LASF762
	.byte	0x6
	.uleb128 0x252
	.long	.LASF763
	.byte	0x5
	.uleb128 0x253
	.long	.LASF764
	.byte	0x5
	.uleb128 0x25c
	.long	.LASF765
	.byte	0x5
	.uleb128 0x26e
	.long	.LASF766
	.byte	0x5
	.uleb128 0x26f
	.long	.LASF767
	.byte	0x5
	.uleb128 0x278
	.long	.LASF768
	.byte	0x5
	.uleb128 0x27e
	.long	.LASF769
	.byte	0x5
	.uleb128 0x27f
	.long	.LASF770
	.byte	0x5
	.uleb128 0x29d
	.long	.LASF771
	.byte	0x5
	.uleb128 0x2a9
	.long	.LASF772
	.byte	0x5
	.uleb128 0x2aa
	.long	.LASF773
	.byte	0x5
	.uleb128 0x2bf
	.long	.LASF774
	.byte	0x6
	.uleb128 0x2c5
	.long	.LASF775
	.byte	0x5
	.uleb128 0x2c9
	.long	.LASF776
	.byte	0
	.section	.debug_macro,"G",@progbits,wm4.cdefs.h.788.9af8f5176cd272e215897fe8049c214d,comdat
.Ldebug_macro10:
	.value	0x5
	.byte	0
	.byte	0x5
	.uleb128 0x314
	.long	.LASF778
	.byte	0x5
	.uleb128 0x315
	.long	.LASF779
	.byte	0x5
	.uleb128 0x316
	.long	.LASF780
	.byte	0x5
	.uleb128 0x317
	.long	.LASF781
	.byte	0x5
	.uleb128 0x318
	.long	.LASF782
	.byte	0x5
	.uleb128 0x319
	.long	.LASF783
	.byte	0x5
	.uleb128 0x31b
	.long	.LASF784
	.byte	0x5
	.uleb128 0x31c
	.long	.LASF785
	.byte	0x5
	.uleb128 0x327
	.long	.LASF786
	.byte	0x5
	.uleb128 0x328
	.long	.LASF787
	.byte	0x5
	.uleb128 0x33c
	.long	.LASF788
	.byte	0x5
	.uleb128 0x345
	.long	.LASF789
	.byte	0x5
	.uleb128 0x34d
	.long	.LASF790
	.byte	0x5
	.uleb128 0x350
	.long	.LASF791
	.byte	0x5
	.uleb128 0x35d
	.long	.LASF792
	.byte	0x5
	.uleb128 0x35f
	.long	.LASF793
	.byte	0x5
	.uleb128 0x368
	.long	.LASF794
	.byte	0x5
	.uleb128 0x371
	.long	.LASF795
	.byte	0
	.section	.debug_macro,"G",@progbits,wm4.stubs64.h.10.7865f4f7062bab1c535c1f73f43aa9b9,comdat
.Ldebug_macro11:
	.value	0x5
	.byte	0
	.byte	0x5
	.uleb128 0xa
	.long	.LASF797
	.byte	0x5
	.uleb128 0xb
	.long	.LASF798
	.byte	0x5
	.uleb128 0xc
	.long	.LASF799
	.byte	0x5
	.uleb128 0xd
	.long	.LASF800
	.byte	0x5
	.uleb128 0xe
	.long	.LASF801
	.byte	0x5
	.uleb128 0xf
	.long	.LASF802
	.byte	0x5
	.uleb128 0x10
	.long	.LASF803
	.byte	0x5
	.uleb128 0x11
	.long	.LASF804
	.byte	0
	.section	.debug_macro,"G",@progbits,wm4.os_defines.h.45.d06a304670a31a32135668aa1e3d636d,comdat
.Ldebug_macro12:
	.value	0x5
	.byte	0
	.byte	0x6
	.uleb128 0x2d
	.long	.LASF805
	.byte	0x5
	.uleb128 0x32
	.long	.LASF806
	.byte	0x5
	.uleb128 0x3c
	.long	.LASF807
	.byte	0x5
	.uleb128 0x42
	.long	.LASF808
	.byte	0x5
	.uleb128 0x49
	.long	.LASF809
	.byte	0x5
	.uleb128 0x56
	.long	.LASF810
	.byte	0
	.section	.debug_macro,"G",@progbits,wm4.cconfig.h.691.2b54c25a30b9b80cbb0f7b865cd16392,comdat
.Ldebug_macro13:
	.value	0x5
	.byte	0
	.byte	0x5
	.uleb128 0x2b3
	.long	.LASF812
	.byte	0x5
	.uleb128 0x2ba
	.long	.LASF813
	.byte	0x5
	.uleb128 0x2c2
	.long	.LASF814
	.byte	0x5
	.uleb128 0x2cf
	.long	.LASF815
	.byte	0x5
	.uleb128 0x2d0
	.long	.LASF816
	.byte	0x5
	.uleb128 0x2d5
	.long	.LASF817
	.byte	0x5
	.uleb128 0x2e2
	.long	.LASF818
	.byte	0x5
	.uleb128 0x2e9
	.long	.LASF819
	.byte	0x2
	.uleb128 0x2ec
	.string	"min"
	.byte	0x2
	.uleb128 0x2ed
	.string	"max"
	.byte	0x5
	.uleb128 0x2f3
	.long	.LASF820
	.byte	0x5
	.uleb128 0x2f6
	.long	.LASF821
	.byte	0x5
	.uleb128 0x2f9
	.long	.LASF822
	.byte	0x5
	.uleb128 0x2fc
	.long	.LASF823
	.byte	0x5
	.uleb128 0x2ff
	.long	.LASF824
	.byte	0x5
	.uleb128 0x317
	.long	.LASF825
	.byte	0x5
	.uleb128 0x31b
	.long	.LASF826
	.byte	0x5
	.uleb128 0x322
	.long	.LASF827
	.byte	0x5
	.uleb128 0x32a
	.long	.LASF828
	.byte	0x5
	.uleb128 0x331
	.long	.LASF829
	.byte	0x5
	.uleb128 0x347
	.long	.LASF830
	.byte	0x5
	.uleb128 0x34c
	.long	.LASF831
	.byte	0x5
	.uleb128 0x350
	.long	.LASF832
	.byte	0x5
	.uleb128 0x354
	.long	.LASF833
	.byte	0x5
	.uleb128 0x35c
	.long	.LASF834
	.byte	0x5
	.uleb128 0x362
	.long	.LASF835
	.byte	0x5
	.uleb128 0x36e
	.long	.LASF836
	.byte	0x5
	.uleb128 0x374
	.long	.LASF837
	.byte	0x5
	.uleb128 0x377
	.long	.LASF838
	.byte	0x5
	.uleb128 0x378
	.long	.LASF839
	.byte	0
	.section	.debug_macro,"G",@progbits,wm4.pstl_config.h.11.cc2ab118dc65e0b245923f61105bc215,comdat
.Ldebug_macro14:
	.value	0x5
	.byte	0
	.byte	0x5
	.uleb128 0xb
	.long	.LASF840
	.byte	0x5
	.uleb128 0xe
	.long	.LASF841
	.byte	0x5
	.uleb128 0xf
	.long	.LASF842
	.byte	0x5
	.uleb128 0x10
	.long	.LASF843
	.byte	0x5
	.uleb128 0x11
	.long	.LASF844
	.byte	0x5
	.uleb128 0x1d
	.long	.LASF845
	.byte	0x5
	.uleb128 0x24
	.long	.LASF846
	.byte	0x5
	.uleb128 0x27
	.long	.LASF847
	.byte	0x5
	.uleb128 0x28
	.long	.LASF848
	.byte	0x5
	.uleb128 0x29
	.long	.LASF849
	.byte	0x5
	.uleb128 0x30
	.long	.LASF850
	.byte	0x5
	.uleb128 0x31
	.long	.LASF851
	.byte	0x5
	.uleb128 0x36
	.long	.LASF852
	.byte	0x5
	.uleb128 0x42
	.long	.LASF853
	.byte	0x5
	.uleb128 0x43
	.long	.LASF854
	.byte	0x5
	.uleb128 0x44
	.long	.LASF855
	.byte	0x5
	.uleb128 0x52
	.long	.LASF856
	.byte	0x5
	.uleb128 0x57
	.long	.LASF857
	.byte	0x5
	.uleb128 0x58
	.long	.LASF858
	.byte	0x5
	.uleb128 0x59
	.long	.LASF859
	.byte	0x5
	.uleb128 0x61
	.long	.LASF860
	.byte	0x5
	.uleb128 0x67
	.long	.LASF861
	.byte	0x5
	.uleb128 0x6c
	.long	.LASF862
	.byte	0x5
	.uleb128 0x6f
	.long	.LASF863
	.byte	0x5
	.uleb128 0x74
	.long	.LASF864
	.byte	0x5
	.uleb128 0x7f
	.long	.LASF865
	.byte	0x5
	.uleb128 0x84
	.long	.LASF866
	.byte	0x5
	.uleb128 0x8a
	.long	.LASF867
	.byte	0x5
	.uleb128 0x91
	.long	.LASF868
	.byte	0x5
	.uleb128 0x92
	.long	.LASF869
	.byte	0x5
	.uleb128 0x9c
	.long	.LASF870
	.byte	0x5
	.uleb128 0xa2
	.long	.LASF871
	.byte	0x5
	.uleb128 0xa9
	.long	.LASF872
	.byte	0x5
	.uleb128 0xaf
	.long	.LASF873
	.byte	0x5
	.uleb128 0xb2
	.long	.LASF874
	.byte	0x5
	.uleb128 0xb8
	.long	.LASF875
	.byte	0x5
	.uleb128 0xb9
	.long	.LASF876
	.byte	0
	.section	.debug_macro,"G",@progbits,wm4.cconfig.h.899.ba38e2913728dc5e5fa68b52a0705a46,comdat
.Ldebug_macro15:
	.value	0x5
	.byte	0
	.byte	0x5
	.uleb128 0x383
	.long	.LASF877
	.byte	0x5
	.uleb128 0x386
	.long	.LASF878
	.byte	0x5
	.uleb128 0x389
	.long	.LASF879
	.byte	0x5
	.uleb128 0x38c
	.long	.LASF880
	.byte	0x5
	.uleb128 0x38f
	.long	.LASF881
	.byte	0x5
	.uleb128 0x392
	.long	.LASF882
	.byte	0x5
	.uleb128 0x395
	.long	.LASF883
	.byte	0x5
	.uleb128 0x398
	.long	.LASF884
	.byte	0x5
	.uleb128 0x39b
	.long	.LASF885
	.byte	0x5
	.uleb128 0x39e
	.long	.LASF886
	.byte	0x5
	.uleb128 0x3a1
	.long	.LASF887
	.byte	0x5
	.uleb128 0x3a4
	.long	.LASF888
	.byte	0x5
	.uleb128 0x3a7
	.long	.LASF889
	.byte	0x5
	.uleb128 0x3aa
	.long	.LASF890
	.byte	0x5
	.uleb128 0x3ae
	.long	.LASF891
	.byte	0x5
	.uleb128 0x3b4
	.long	.LASF892
	.byte	0x5
	.uleb128 0x3b7
	.long	.LASF893
	.byte	0x5
	.uleb128 0x3ba
	.long	.LASF894
	.byte	0x5
	.uleb128 0x3bd
	.long	.LASF895
	.byte	0x5
	.uleb128 0x3c0
	.long	.LASF896
	.byte	0x5
	.uleb128 0x3c3
	.long	.LASF897
	.byte	0x5
	.uleb128 0x3c6
	.long	.LASF898
	.byte	0x5
	.uleb128 0x3ca
	.long	.LASF899
	.byte	0x5
	.uleb128 0x3cd
	.long	.LASF900
	.byte	0x5
	.uleb128 0x3d0
	.long	.LASF901
	.byte	0x5
	.uleb128 0x3d3
	.long	.LASF902
	.byte	0x5
	.uleb128 0x3d6
	.long	.LASF903
	.byte	0x5
	.uleb128 0x3d9
	.long	.LASF904
	.byte	0x5
	.uleb128 0x3dc
	.long	.LASF905
	.byte	0x5
	.uleb128 0x3df
	.long	.LASF906
	.byte	0x5
	.uleb128 0x3e2
	.long	.LASF907
	.byte	0x5
	.uleb128 0x3e5
	.long	.LASF908
	.byte	0x5
	.uleb128 0x3e8
	.long	.LASF909
	.byte	0x5
	.uleb128 0x3eb
	.long	.LASF910
	.byte	0x5
	.uleb128 0x3ee
	.long	.LASF911
	.byte	0x5
	.uleb128 0x3f1
	.long	.LASF912
	.byte	0x5
	.uleb128 0x3f4
	.long	.LASF913
	.byte	0x5
	.uleb128 0x3f7
	.long	.LASF914
	.byte	0x5
	.uleb128 0x3fa
	.long	.LASF915
	.byte	0x5
	.uleb128 0x3fd
	.long	.LASF916
	.byte	0x5
	.uleb128 0x400
	.long	.LASF917
	.byte	0x5
	.uleb128 0x403
	.long	.LASF918
	.byte	0x5
	.uleb128 0x406
	.long	.LASF919
	.byte	0x5
	.uleb128 0x409
	.long	.LASF920
	.byte	0x5
	.uleb128 0x412
	.long	.LASF921
	.byte	0x5
	.uleb128 0x415
	.long	.LASF922
	.byte	0x5
	.uleb128 0x418
	.long	.LASF923
	.byte	0x5
	.uleb128 0x41b
	.long	.LASF924
	.byte	0x5
	.uleb128 0x41e
	.long	.LASF925
	.byte	0x5
	.uleb128 0x421
	.long	.LASF926
	.byte	0x5
	.uleb128 0x424
	.long	.LASF927
	.byte	0x5
	.uleb128 0x427
	.long	.LASF928
	.byte	0x5
	.uleb128 0x42a
	.long	.LASF929
	.byte	0x5
	.uleb128 0x430
	.long	.LASF930
	.byte	0x5
	.uleb128 0x436
	.long	.LASF931
	.byte	0x5
	.uleb128 0x439
	.long	.LASF932
	.byte	0x5
	.uleb128 0x43f
	.long	.LASF933
	.byte	0x5
	.uleb128 0x442
	.long	.LASF934
	.byte	0x5
	.uleb128 0x445
	.long	.LASF935
	.byte	0x5
	.uleb128 0x448
	.long	.LASF936
	.byte	0x5
	.uleb128 0x44b
	.long	.LASF937
	.byte	0x5
	.uleb128 0x44e
	.long	.LASF938
	.byte	0x5
	.uleb128 0x451
	.long	.LASF939
	.byte	0x5
	.uleb128 0x454
	.long	.LASF940
	.byte	0x5
	.uleb128 0x457
	.long	.LASF941
	.byte	0x5
	.uleb128 0x45a
	.long	.LASF942
	.byte	0x5
	.uleb128 0x45d
	.long	.LASF943
	.byte	0x5
	.uleb128 0x460
	.long	.LASF944
	.byte	0x5
	.uleb128 0x463
	.long	.LASF945
	.byte	0x5
	.uleb128 0x466
	.long	.LASF946
	.byte	0x5
	.uleb128 0x469
	.long	.LASF947
	.byte	0x5
	.uleb128 0x46c
	.long	.LASF948
	.byte	0x5
	.uleb128 0x46f
	.long	.LASF949
	.byte	0x5
	.uleb128 0x472
	.long	.LASF950
	.byte	0x5
	.uleb128 0x475
	.long	.LASF951
	.byte	0x5
	.uleb128 0x478
	.long	.LASF952
	.byte	0x5
	.uleb128 0x47b
	.long	.LASF953
	.byte	0x5
	.uleb128 0x47e
	.long	.LASF954
	.byte	0x5
	.uleb128 0x481
	.long	.LASF955
	.byte	0x5
	.uleb128 0x48a
	.long	.LASF956
	.byte	0x5
	.uleb128 0x48d
	.long	.LASF957
	.byte	0x5
	.uleb128 0x490
	.long	.LASF958
	.byte	0x5
	.uleb128 0x493
	.long	.LASF959
	.byte	0x5
	.uleb128 0x496
	.long	.LASF960
	.byte	0x5
	.uleb128 0x499
	.long	.LASF961
	.byte	0x5
	.uleb128 0x49f
	.long	.LASF962
	.byte	0x5
	.uleb128 0x4a2
	.long	.LASF963
	.byte	0x5
	.uleb128 0x4a5
	.long	.LASF964
	.byte	0x5
	.uleb128 0x4ae
	.long	.LASF965
	.byte	0x5
	.uleb128 0x4b1
	.long	.LASF966
	.byte	0x5
	.uleb128 0x4b4
	.long	.LASF967
	.byte	0x5
	.uleb128 0x4b7
	.long	.LASF968
	.byte	0x5
	.uleb128 0x4ba
	.long	.LASF969
	.byte	0x5
	.uleb128 0x4be
	.long	.LASF970
	.byte	0x5
	.uleb128 0x4c1
	.long	.LASF971
	.byte	0x5
	.uleb128 0x4c4
	.long	.LASF972
	.byte	0x5
	.uleb128 0x4ca
	.long	.LASF973
	.byte	0x5
	.uleb128 0x4cd
	.long	.LASF974
	.byte	0x5
	.uleb128 0x4d0
	.long	.LASF975
	.byte	0x5
	.uleb128 0x4d3
	.long	.LASF976
	.byte	0x5
	.uleb128 0x4d6
	.long	.LASF977
	.byte	0x5
	.uleb128 0x4d9
	.long	.LASF978
	.byte	0x5
	.uleb128 0x4dc
	.long	.LASF979
	.byte	0x5
	.uleb128 0x4df
	.long	.LASF980
	.byte	0x5
	.uleb128 0x4e2
	.long	.LASF981
	.byte	0x5
	.uleb128 0x4e5
	.long	.LASF982
	.byte	0x5
	.uleb128 0x4e8
	.long	.LASF983
	.byte	0x5
	.uleb128 0x4ee
	.long	.LASF984
	.byte	0x5
	.uleb128 0x4f1
	.long	.LASF985
	.byte	0x5
	.uleb128 0x4f4
	.long	.LASF986
	.byte	0x5
	.uleb128 0x4f7
	.long	.LASF987
	.byte	0x5
	.uleb128 0x4fa
	.long	.LASF988
	.byte	0x5
	.uleb128 0x4fd
	.long	.LASF989
	.byte	0x5
	.uleb128 0x500
	.long	.LASF990
	.byte	0x5
	.uleb128 0x503
	.long	.LASF991
	.byte	0x5
	.uleb128 0x506
	.long	.LASF992
	.byte	0x5
	.uleb128 0x509
	.long	.LASF993
	.byte	0x5
	.uleb128 0x50c
	.long	.LASF994
	.byte	0x5
	.uleb128 0x50f
	.long	.LASF995
	.byte	0x5
	.uleb128 0x512
	.long	.LASF996
	.byte	0x5
	.uleb128 0x515
	.long	.LASF997
	.byte	0x5
	.uleb128 0x518
	.long	.LASF998
	.byte	0x5
	.uleb128 0x51b
	.long	.LASF999
	.byte	0x5
	.uleb128 0x51e
	.long	.LASF1000
	.byte	0x5
	.uleb128 0x522
	.long	.LASF1001
	.byte	0x5
	.uleb128 0x528
	.long	.LASF1002
	.byte	0x5
	.uleb128 0x52b
	.long	.LASF1003
	.byte	0x5
	.uleb128 0x534
	.long	.LASF1004
	.byte	0x5
	.uleb128 0x537
	.long	.LASF1005
	.byte	0x5
	.uleb128 0x53a
	.long	.LASF1006
	.byte	0x5
	.uleb128 0x53d
	.long	.LASF1007
	.byte	0x5
	.uleb128 0x540
	.long	.LASF1008
	.byte	0x5
	.uleb128 0x543
	.long	.LASF1009
	.byte	0x5
	.uleb128 0x546
	.long	.LASF1010
	.byte	0x5
	.uleb128 0x549
	.long	.LASF1011
	.byte	0x5
	.uleb128 0x54c
	.long	.LASF1012
	.byte	0x5
	.uleb128 0x54f
	.long	.LASF1013
	.byte	0x5
	.uleb128 0x552
	.long	.LASF1014
	.byte	0x5
	.uleb128 0x555
	.long	.LASF1015
	.byte	0x5
	.uleb128 0x55b
	.long	.LASF1016
	.byte	0x5
	.uleb128 0x55e
	.long	.LASF1017
	.byte	0x5
	.uleb128 0x561
	.long	.LASF1018
	.byte	0x5
	.uleb128 0x564
	.long	.LASF1019
	.byte	0x5
	.uleb128 0x567
	.long	.LASF1020
	.byte	0x5
	.uleb128 0x56a
	.long	.LASF1021
	.byte	0x5
	.uleb128 0x56d
	.long	.LASF1022
	.byte	0x5
	.uleb128 0x570
	.long	.LASF1023
	.byte	0x5
	.uleb128 0x573
	.long	.LASF1024
	.byte	0x5
	.uleb128 0x576
	.long	.LASF1025
	.byte	0x5
	.uleb128 0x579
	.long	.LASF1026
	.byte	0x5
	.uleb128 0x57c
	.long	.LASF1027
	.byte	0x5
	.uleb128 0x57f
	.long	.LASF1028
	.byte	0x5
	.uleb128 0x585
	.long	.LASF1029
	.byte	0x5
	.uleb128 0x588
	.long	.LASF1030
	.byte	0x5
	.uleb128 0x58b
	.long	.LASF1031
	.byte	0x5
	.uleb128 0x58e
	.long	.LASF1032
	.byte	0x5
	.uleb128 0x591
	.long	.LASF1033
	.byte	0x5
	.uleb128 0x594
	.long	.LASF1034
	.byte	0x5
	.uleb128 0x597
	.long	.LASF1035
	.byte	0x5
	.uleb128 0x59d
	.long	.LASF1036
	.byte	0x5
	.uleb128 0x5ac
	.long	.LASF1037
	.byte	0x5
	.uleb128 0x5af
	.long	.LASF1038
	.byte	0x5
	.uleb128 0x5b3
	.long	.LASF1039
	.byte	0x5
	.uleb128 0x5b9
	.long	.LASF1040
	.byte	0x5
	.uleb128 0x5bc
	.long	.LASF1041
	.byte	0x5
	.uleb128 0x5bf
	.long	.LASF1042
	.byte	0x5
	.uleb128 0x5c2
	.long	.LASF1043
	.byte	0x5
	.uleb128 0x5c5
	.long	.LASF1044
	.byte	0x5
	.uleb128 0x5c8
	.long	.LASF1045
	.byte	0x5
	.uleb128 0x5cb
	.long	.LASF1046
	.byte	0x5
	.uleb128 0x5d2
	.long	.LASF1047
	.byte	0x5
	.uleb128 0x5db
	.long	.LASF1048
	.byte	0x5
	.uleb128 0x5df
	.long	.LASF1049
	.byte	0x5
	.uleb128 0x5e3
	.long	.LASF1050
	.byte	0x5
	.uleb128 0x5e7
	.long	.LASF1051
	.byte	0x5
	.uleb128 0x5eb
	.long	.LASF1052
	.byte	0x5
	.uleb128 0x5f0
	.long	.LASF1053
	.byte	0x5
	.uleb128 0x5f4
	.long	.LASF1054
	.byte	0x5
	.uleb128 0x5f8
	.long	.LASF1055
	.byte	0x5
	.uleb128 0x5fc
	.long	.LASF1056
	.byte	0x5
	.uleb128 0x600
	.long	.LASF1057
	.byte	0x5
	.uleb128 0x603
	.long	.LASF1058
	.byte	0x5
	.uleb128 0x607
	.long	.LASF1059
	.byte	0x5
	.uleb128 0x60e
	.long	.LASF1060
	.byte	0x5
	.uleb128 0x611
	.long	.LASF1061
	.byte	0x5
	.uleb128 0x614
	.long	.LASF1062
	.byte	0x5
	.uleb128 0x61c
	.long	.LASF1063
	.byte	0x5
	.uleb128 0x628
	.long	.LASF1064
	.byte	0x5
	.uleb128 0x62e
	.long	.LASF1065
	.byte	0x5
	.uleb128 0x631
	.long	.LASF1066
	.byte	0x5
	.uleb128 0x634
	.long	.LASF1067
	.byte	0x5
	.uleb128 0x637
	.long	.LASF1068
	.byte	0x5
	.uleb128 0x63a
	.long	.LASF1069
	.byte	0x5
	.uleb128 0x640
	.long	.LASF1070
	.byte	0x5
	.uleb128 0x64a
	.long	.LASF1071
	.byte	0x5
	.uleb128 0x64e
	.long	.LASF1072
	.byte	0x5
	.uleb128 0x653
	.long	.LASF1073
	.byte	0x5
	.uleb128 0x658
	.long	.LASF1074
	.byte	0x5
	.uleb128 0x65c
	.long	.LASF1075
	.byte	0x5
	.uleb128 0x660
	.long	.LASF1076
	.byte	0x5
	.uleb128 0x664
	.long	.LASF1077
	.byte	0x5
	.uleb128 0x668
	.long	.LASF1078
	.byte	0x5
	.uleb128 0x66c
	.long	.LASF1079
	.byte	0x5
	.uleb128 0x670
	.long	.LASF1080
	.byte	0x5
	.uleb128 0x674
	.long	.LASF1081
	.byte	0x5
	.uleb128 0x678
	.long	.LASF1082
	.byte	0x5
	.uleb128 0x67c
	.long	.LASF1083
	.byte	0x5
	.uleb128 0x680
	.long	.LASF1084
	.byte	0x5
	.uleb128 0x684
	.long	.LASF1085
	.byte	0x5
	.uleb128 0x688
	.long	.LASF1086
	.byte	0x5
	.uleb128 0x68b
	.long	.LASF1087
	.byte	0x5
	.uleb128 0x68e
	.long	.LASF1088
	.byte	0x5
	.uleb128 0x695
	.long	.LASF1089
	.byte	0x5
	.uleb128 0x698
	.long	.LASF1090
	.byte	0x5
	.uleb128 0x69f
	.long	.LASF1091
	.byte	0x5
	.uleb128 0x6a3
	.long	.LASF1092
	.byte	0x5
	.uleb128 0x6a6
	.long	.LASF1093
	.byte	0x5
	.uleb128 0x6a9
	.long	.LASF1094
	.byte	0x5
	.uleb128 0x6ac
	.long	.LASF1095
	.byte	0x5
	.uleb128 0x6af
	.long	.LASF1096
	.byte	0x5
	.uleb128 0x6b2
	.long	.LASF1097
	.byte	0x5
	.uleb128 0x6b5
	.long	.LASF1098
	.byte	0x5
	.uleb128 0x6b8
	.long	.LASF1099
	.byte	0x5
	.uleb128 0x6bb
	.long	.LASF1100
	.byte	0x5
	.uleb128 0x6be
	.long	.LASF1101
	.byte	0x5
	.uleb128 0x6c1
	.long	.LASF1102
	.byte	0x5
	.uleb128 0x6c4
	.long	.LASF1103
	.byte	0x5
	.uleb128 0x6c7
	.long	.LASF1104
	.byte	0x5
	.uleb128 0x6ca
	.long	.LASF1105
	.byte	0x5
	.uleb128 0x6cd
	.long	.LASF1106
	.byte	0x5
	.uleb128 0x6d3
	.long	.LASF1107
	.byte	0x5
	.uleb128 0x6d6
	.long	.LASF1108
	.byte	0x5
	.uleb128 0x6da
	.long	.LASF1109
	.byte	0x5
	.uleb128 0x6dd
	.long	.LASF1110
	.byte	0x5
	.uleb128 0x6e1
	.long	.LASF1111
	.byte	0x5
	.uleb128 0x6e4
	.long	.LASF1112
	.byte	0x5
	.uleb128 0x6e7
	.long	.LASF1113
	.byte	0x5
	.uleb128 0x6ea
	.long	.LASF1114
	.byte	0x5
	.uleb128 0x6f0
	.long	.LASF1115
	.byte	0x5
	.uleb128 0x6f6
	.long	.LASF1116
	.byte	0x5
	.uleb128 0x6fc
	.long	.LASF1117
	.byte	0x5
	.uleb128 0x700
	.long	.LASF1118
	.byte	0x5
	.uleb128 0x704
	.long	.LASF1119
	.byte	0x5
	.uleb128 0x707
	.long	.LASF1120
	.byte	0x5
	.uleb128 0x70b
	.long	.LASF1121
	.byte	0x5
	.uleb128 0x70e
	.long	.LASF1122
	.byte	0x5
	.uleb128 0x717
	.long	.LASF1123
	.byte	0x5
	.uleb128 0x71a
	.long	.LASF1124
	.byte	0x5
	.uleb128 0x71d
	.long	.LASF1125
	.byte	0x5
	.uleb128 0x720
	.long	.LASF1126
	.byte	0x5
	.uleb128 0x723
	.long	.LASF1127
	.byte	0
	.section	.debug_macro,"G",@progbits,wm4.cstdlib.44.59da8c66201ce167aa194d4aafe657c4,comdat
.Ldebug_macro16:
	.value	0x5
	.byte	0
	.byte	0x5
	.uleb128 0x2c
	.long	.LASF1128
	.byte	0x5
	.uleb128 0x4e
	.long	.LASF1129
	.byte	0
	.section	.debug_macro,"G",@progbits,wm4.libcheaderstart.h.31.ef39b7b23471fa34d163e8083abf71d4,comdat
.Ldebug_macro17:
	.value	0x5
	.byte	0
	.byte	0x6
	.uleb128 0x1f
	.long	.LASF1131
	.byte	0x6
	.uleb128 0x25
	.long	.LASF1132
	.byte	0x5
	.uleb128 0x28
	.long	.LASF1133
	.byte	0x6
	.uleb128 0x43
	.long	.LASF1134
	.byte	0x5
	.uleb128 0x45
	.long	.LASF1135
	.byte	0x6
	.uleb128 0x49
	.long	.LASF1136
	.byte	0x5
	.uleb128 0x4b
	.long	.LASF1137
	.byte	0x6
	.uleb128 0x4f
	.long	.LASF1138
	.byte	0x5
	.uleb128 0x51
	.long	.LASF1139
	.byte	0x6
	.uleb128 0x5a
	.long	.LASF1140
	.byte	0x5
	.uleb128 0x5c
	.long	.LASF1141
	.byte	0x6
	.uleb128 0x60
	.long	.LASF1142
	.byte	0x5
	.uleb128 0x62
	.long	.LASF1143
	.byte	0x6
	.uleb128 0x69
	.long	.LASF1144
	.byte	0x5
	.uleb128 0x6b
	.long	.LASF1145
	.byte	0
	.section	.debug_macro,"G",@progbits,wm4.stdlib.h.29.dde59e751a3b6c4506ba901b60a85c87,comdat
.Ldebug_macro18:
	.value	0x5
	.byte	0
	.byte	0x5
	.uleb128 0x1d
	.long	.LASF1146
	.byte	0x5
	.uleb128 0x1e
	.long	.LASF1147
	.byte	0x5
	.uleb128 0x1f
	.long	.LASF1148
	.byte	0
	.section	.debug_macro,"G",@progbits,wm4.stddef.h.200.c4d2c1d067703956b4be3d13d3c90377,comdat
.Ldebug_macro19:
	.value	0x5
	.byte	0
	.byte	0x5
	.uleb128 0xc8
	.long	.LASF1149
	.byte	0x5
	.uleb128 0xc9
	.long	.LASF1150
	.byte	0x5
	.uleb128 0xca
	.long	.LASF1151
	.byte	0x5
	.uleb128 0xcb
	.long	.LASF1152
	.byte	0x5
	.uleb128 0xcc
	.long	.LASF1153
	.byte	0x5
	.uleb128 0xcd
	.long	.LASF1154
	.byte	0x5
	.uleb128 0xce
	.long	.LASF1155
	.byte	0x5
	.uleb128 0xcf
	.long	.LASF1156
	.byte	0x5
	.uleb128 0xd0
	.long	.LASF1157
	.byte	0x5
	.uleb128 0xd1
	.long	.LASF1158
	.byte	0x5
	.uleb128 0xd2
	.long	.LASF1159
	.byte	0x5
	.uleb128 0xd3
	.long	.LASF1160
	.byte	0x5
	.uleb128 0xd4
	.long	.LASF1161
	.byte	0x5
	.uleb128 0xd5
	.long	.LASF1162
	.byte	0x5
	.uleb128 0xd6
	.long	.LASF1163
	.byte	0x5
	.uleb128 0xd7
	.long	.LASF1164
	.byte	0x5
	.uleb128 0xd8
	.long	.LASF1165
	.byte	0x5
	.uleb128 0xdf
	.long	.LASF1166
	.byte	0x6
	.uleb128 0xfc
	.long	.LASF1167
	.byte	0x5
	.uleb128 0x11a
	.long	.LASF1168
	.byte	0x5
	.uleb128 0x11b
	.long	.LASF1169
	.byte	0x5
	.uleb128 0x11c
	.long	.LASF1170
	.byte	0x5
	.uleb128 0x11d
	.long	.LASF1171
	.byte	0x5
	.uleb128 0x11e
	.long	.LASF1172
	.byte	0x5
	.uleb128 0x11f
	.long	.LASF1173
	.byte	0x5
	.uleb128 0x120
	.long	.LASF1174
	.byte	0x5
	.uleb128 0x121
	.long	.LASF1175
	.byte	0x5
	.uleb128 0x122
	.long	.LASF1176
	.byte	0x5
	.uleb128 0x123
	.long	.LASF1177
	.byte	0x5
	.uleb128 0x124
	.long	.LASF1178
	.byte	0x5
	.uleb128 0x125
	.long	.LASF1179
	.byte	0x5
	.uleb128 0x126
	.long	.LASF1180
	.byte	0x5
	.uleb128 0x127
	.long	.LASF1181
	.byte	0x5
	.uleb128 0x128
	.long	.LASF1182
	.byte	0x5
	.uleb128 0x129
	.long	.LASF1183
	.byte	0x6
	.uleb128 0x136
	.long	.LASF1184
	.byte	0x6
	.uleb128 0x16c
	.long	.LASF1185
	.byte	0x6
	.uleb128 0x19e
	.long	.LASF1186
	.byte	0x5
	.uleb128 0x1a0
	.long	.LASF1187
	.byte	0x6
	.uleb128 0x1a9
	.long	.LASF1188
	.byte	0
	.section	.debug_macro,"G",@progbits,wm4.waitflags.h.25.33c1a56564084888d0719c1519fd9fc3,comdat
.Ldebug_macro20:
	.value	0x5
	.byte	0
	.byte	0x5
	.uleb128 0x19
	.long	.LASF1190
	.byte	0x5
	.uleb128 0x1a
	.long	.LASF1191
	.byte	0x5
	.uleb128 0x1e
	.long	.LASF1192
	.byte	0x5
	.uleb128 0x1f
	.long	.LASF1193
	.byte	0x5
	.uleb128 0x20
	.long	.LASF1194
	.byte	0x5
	.uleb128 0x21
	.long	.LASF1195
	.byte	0x5
	.uleb128 0x24
	.long	.LASF1196
	.byte	0x5
	.uleb128 0x26
	.long	.LASF1197
	.byte	0x5
	.uleb128 0x27
	.long	.LASF1198
	.byte	0
	.section	.debug_macro,"G",@progbits,wm4.waitstatus.h.28.93f167f49d64e2b9b99f98d1162a93bf,comdat
.Ldebug_macro21:
	.value	0x5
	.byte	0
	.byte	0x5
	.uleb128 0x1c
	.long	.LASF1199
	.byte	0x5
	.uleb128 0x1f
	.long	.LASF1200
	.byte	0x5
	.uleb128 0x22
	.long	.LASF1201
	.byte	0x5
	.uleb128 0x25
	.long	.LASF1202
	.byte	0x5
	.uleb128 0x28
	.long	.LASF1203
	.byte	0x5
	.uleb128 0x2c
	.long	.LASF1204
	.byte	0x5
	.uleb128 0x31
	.long	.LASF1205
	.byte	0x5
	.uleb128 0x35
	.long	.LASF1206
	.byte	0x5
	.uleb128 0x38
	.long	.LASF1207
	.byte	0x5
	.uleb128 0x39
	.long	.LASF1208
	.byte	0x5
	.uleb128 0x3a
	.long	.LASF1209
	.byte	0x5
	.uleb128 0x3b
	.long	.LASF1210
	.byte	0
	.section	.debug_macro,"G",@progbits,wm4.stdlib.h.44.de490c7fb444141d2d41184184bda172,comdat
.Ldebug_macro22:
	.value	0x5
	.byte	0
	.byte	0x5
	.uleb128 0x2c
	.long	.LASF1211
	.byte	0x5
	.uleb128 0x2d
	.long	.LASF1212
	.byte	0x5
	.uleb128 0x2e
	.long	.LASF1213
	.byte	0x5
	.uleb128 0x2f
	.long	.LASF1214
	.byte	0x5
	.uleb128 0x30
	.long	.LASF1215
	.byte	0x5
	.uleb128 0x31
	.long	.LASF1216
	.byte	0x5
	.uleb128 0x33
	.long	.LASF1217
	.byte	0
	.section	.debug_macro,"G",@progbits,wm4.floatn.h.20.40a9ac728e59b3a32d20c30e247f330a,comdat
.Ldebug_macro23:
	.value	0x5
	.byte	0
	.byte	0x5
	.uleb128 0x14
	.long	.LASF1218
	.byte	0x5
	.uleb128 0x25
	.long	.LASF1219
	.byte	0x5
	.uleb128 0x2d
	.long	.LASF1220
	.byte	0x5
	.uleb128 0x35
	.long	.LASF1221
	.byte	0x5
	.uleb128 0x3b
	.long	.LASF1222
	.byte	0x5
	.uleb128 0x48
	.long	.LASF1223
	.byte	0x5
	.uleb128 0x56
	.long	.LASF1224
	.byte	0
	.section	.debug_macro,"G",@progbits,wm4.floatncommon.h.34.df172c769a97023fbe97facd72e1212b,comdat
.Ldebug_macro24:
	.value	0x5
	.byte	0
	.byte	0x5
	.uleb128 0x22
	.long	.LASF1226
	.byte	0x5
	.uleb128 0x23
	.long	.LASF1227
	.byte	0x5
	.uleb128 0x24
	.long	.LASF1228
	.byte	0x5
	.uleb128 0x25
	.long	.LASF1229
	.byte	0x5
	.uleb128 0x26
	.long	.LASF1230
	.byte	0x5
	.uleb128 0x34
	.long	.LASF1231
	.byte	0x5
	.uleb128 0x35
	.long	.LASF1232
	.byte	0x5
	.uleb128 0x36
	.long	.LASF1233
	.byte	0x5
	.uleb128 0x37
	.long	.LASF1234
	.byte	0x5
	.uleb128 0x38
	.long	.LASF1235
	.byte	0x5
	.uleb128 0x39
	.long	.LASF1236
	.byte	0x5
	.uleb128 0x3f
	.long	.LASF1237
	.byte	0x5
	.uleb128 0x48
	.long	.LASF1238
	.byte	0x5
	.uleb128 0x5d
	.long	.LASF1239
	.byte	0x5
	.uleb128 0x69
	.long	.LASF1240
	.byte	0x5
	.uleb128 0x71
	.long	.LASF1241
	.byte	0x5
	.uleb128 0x7d
	.long	.LASF1242
	.byte	0x5
	.uleb128 0x97
	.long	.LASF1243
	.byte	0x5
	.uleb128 0xa3
	.long	.LASF1244
	.byte	0x5
	.uleb128 0xab
	.long	.LASF1245
	.byte	0x5
	.uleb128 0xb7
	.long	.LASF1246
	.byte	0
	.section	.debug_macro,"G",@progbits,wm4.stdlib.h.72.de5e691360230fc4ee32b7e80b84f95c,comdat
.Ldebug_macro25:
	.value	0x5
	.byte	0
	.byte	0x5
	.uleb128 0x48
	.long	.LASF1247
	.byte	0x5
	.uleb128 0x52
	.long	.LASF1248
	.byte	0x5
	.uleb128 0x57
	.long	.LASF1249
	.byte	0x5
	.uleb128 0x5c
	.long	.LASF1250
	.byte	0x5
	.uleb128 0x5d
	.long	.LASF1251
	.byte	0x5
	.uleb128 0x61
	.long	.LASF1252
	.byte	0
	.section	.debug_macro,"G",@progbits,wm4.types.h.109.56eb9ae966b255288cc544f18746a7ff,comdat
.Ldebug_macro26:
	.value	0x5
	.byte	0
	.byte	0x5
	.uleb128 0x6d
	.long	.LASF1257
	.byte	0x5
	.uleb128 0x6e
	.long	.LASF1258
	.byte	0x5
	.uleb128 0x6f
	.long	.LASF1259
	.byte	0x5
	.uleb128 0x70
	.long	.LASF1260
	.byte	0x5
	.uleb128 0x71
	.long	.LASF1261
	.byte	0x5
	.uleb128 0x72
	.long	.LASF1262
	.byte	0x5
	.uleb128 0x80
	.long	.LASF1263
	.byte	0x5
	.uleb128 0x81
	.long	.LASF1264
	.byte	0x5
	.uleb128 0x82
	.long	.LASF1265
	.byte	0x5
	.uleb128 0x83
	.long	.LASF1266
	.byte	0x5
	.uleb128 0x84
	.long	.LASF1267
	.byte	0x5
	.uleb128 0x85
	.long	.LASF1268
	.byte	0x5
	.uleb128 0x86
	.long	.LASF1269
	.byte	0x5
	.uleb128 0x87
	.long	.LASF1270
	.byte	0x5
	.uleb128 0x89
	.long	.LASF1271
	.byte	0
	.section	.debug_macro,"G",@progbits,wm4.typesizes.h.24.ccf5919b8e01b553263cf8f4ab1d5fde,comdat
.Ldebug_macro27:
	.value	0x5
	.byte	0
	.byte	0x5
	.uleb128 0x18
	.long	.LASF1272
	.byte	0x5
	.uleb128 0x22
	.long	.LASF1273
	.byte	0x5
	.uleb128 0x23
	.long	.LASF1274
	.byte	0x5
	.uleb128 0x26
	.long	.LASF1275
	.byte	0x5
	.uleb128 0x27
	.long	.LASF1276
	.byte	0x5
	.uleb128 0x28
	.long	.LASF1277
	.byte	0x5
	.uleb128 0x29
	.long	.LASF1278
	.byte	0x5
	.uleb128 0x2a
	.long	.LASF1279
	.byte	0x5
	.uleb128 0x2b
	.long	.LASF1280
	.byte	0x5
	.uleb128 0x2d
	.long	.LASF1281
	.byte	0x5
	.uleb128 0x2e
	.long	.LASF1282
	.byte	0x5
	.uleb128 0x33
	.long	.LASF1283
	.byte	0x5
	.uleb128 0x34
	.long	.LASF1284
	.byte	0x5
	.uleb128 0x35
	.long	.LASF1285
	.byte	0x5
	.uleb128 0x36
	.long	.LASF1286
	.byte	0x5
	.uleb128 0x37
	.long	.LASF1287
	.byte	0x5
	.uleb128 0x38
	.long	.LASF1288
	.byte	0x5
	.uleb128 0x39
	.long	.LASF1289
	.byte	0x5
	.uleb128 0x3a
	.long	.LASF1290
	.byte	0x5
	.uleb128 0x3b
	.long	.LASF1291
	.byte	0x5
	.uleb128 0x3c
	.long	.LASF1292
	.byte	0x5
	.uleb128 0x3d
	.long	.LASF1293
	.byte	0x5
	.uleb128 0x3e
	.long	.LASF1294
	.byte	0x5
	.uleb128 0x3f
	.long	.LASF1295
	.byte	0x5
	.uleb128 0x40
	.long	.LASF1296
	.byte	0x5
	.uleb128 0x41
	.long	.LASF1297
	.byte	0x5
	.uleb128 0x42
	.long	.LASF1298
	.byte	0x5
	.uleb128 0x43
	.long	.LASF1299
	.byte	0x5
	.uleb128 0x44
	.long	.LASF1300
	.byte	0x5
	.uleb128 0x45
	.long	.LASF1301
	.byte	0x5
	.uleb128 0x46
	.long	.LASF1302
	.byte	0x5
	.uleb128 0x47
	.long	.LASF1303
	.byte	0x5
	.uleb128 0x48
	.long	.LASF1304
	.byte	0x5
	.uleb128 0x49
	.long	.LASF1305
	.byte	0x5
	.uleb128 0x4a
	.long	.LASF1306
	.byte	0x5
	.uleb128 0x4b
	.long	.LASF1307
	.byte	0x5
	.uleb128 0x51
	.long	.LASF1308
	.byte	0x5
	.uleb128 0x54
	.long	.LASF1309
	.byte	0x5
	.uleb128 0x57
	.long	.LASF1310
	.byte	0x5
	.uleb128 0x5a
	.long	.LASF1311
	.byte	0x5
	.uleb128 0x5d
	.long	.LASF1312
	.byte	0x5
	.uleb128 0x67
	.long	.LASF1313
	.byte	0
	.section	.debug_macro,"G",@progbits,wm4.time64.h.24.a8166ae916ec910dab0d8987098d42ee,comdat
.Ldebug_macro28:
	.value	0x5
	.byte	0
	.byte	0x5
	.uleb128 0x18
	.long	.LASF1314
	.byte	0x5
	.uleb128 0x1e
	.long	.LASF1315
	.byte	0
	.section	.debug_macro,"G",@progbits,wm4.types.h.40.18f72bab8242c2bb4c532a2aa95b5f00,comdat
.Ldebug_macro29:
	.value	0x5
	.byte	0
	.byte	0x5
	.uleb128 0x28
	.long	.LASF1317
	.byte	0x5
	.uleb128 0x33
	.long	.LASF1318
	.byte	0x5
	.uleb128 0x37
	.long	.LASF1319
	.byte	0x5
	.uleb128 0x3c
	.long	.LASF1320
	.byte	0x5
	.uleb128 0x41
	.long	.LASF1321
	.byte	0x5
	.uleb128 0x46
	.long	.LASF1322
	.byte	0x5
	.uleb128 0x4b
	.long	.LASF1323
	.byte	0x5
	.uleb128 0x50
	.long	.LASF1324
	.byte	0x5
	.uleb128 0x59
	.long	.LASF1325
	.byte	0x5
	.uleb128 0x5d
	.long	.LASF1326
	.byte	0x5
	.uleb128 0x62
	.long	.LASF1327
	.byte	0x5
	.uleb128 0x68
	.long	.LASF1328
	.byte	0x5
	.uleb128 0x6d
	.long	.LASF1329
	.byte	0x5
	.uleb128 0x74
	.long	.LASF1330
	.byte	0x5
	.uleb128 0x7a
	.long	.LASF1331
	.byte	0
	.section	.debug_macro,"G",@progbits,wm4.types.h.135.9eeb6b52c2522ad7aff16ad95342972e,comdat
.Ldebug_macro30:
	.value	0x5
	.byte	0
	.byte	0x5
	.uleb128 0x87
	.long	.LASF1336
	.byte	0x5
	.uleb128 0x8b
	.long	.LASF1337
	.byte	0x5
	.uleb128 0x8f
	.long	.LASF1146
	.byte	0
	.section	.debug_macro,"G",@progbits,wm4.stddef.h.252.f02ec97de35b35553ac3bdc03f82bd39,comdat
.Ldebug_macro31:
	.value	0x5
	.byte	0
	.byte	0x6
	.uleb128 0xfc
	.long	.LASF1167
	.byte	0x6
	.uleb128 0x1a9
	.long	.LASF1188
	.byte	0
	.section	.debug_macro,"G",@progbits,wm4.endian.h.20.efabd1018df5d7b4052c27dc6bdd5ce5,comdat
.Ldebug_macro32:
	.value	0x5
	.byte	0
	.byte	0x5
	.uleb128 0x14
	.long	.LASF1341
	.byte	0x5
	.uleb128 0x1e
	.long	.LASF1342
	.byte	0x5
	.uleb128 0x1f
	.long	.LASF1343
	.byte	0x5
	.uleb128 0x20
	.long	.LASF1344
	.byte	0
	.section	.debug_macro,"G",@progbits,wm4.endianness.h.2.2c6a211f7909f3af5e9e9cfa3b6b63c8,comdat
.Ldebug_macro33:
	.value	0x5
	.byte	0
	.byte	0x5
	.uleb128 0x2
	.long	.LASF1345
	.byte	0x5
	.uleb128 0x9
	.long	.LASF1346
	.byte	0
	.section	.debug_macro,"G",@progbits,wm4.endian.h.40.9e5d395adda2f4eb53ae69b69b664084,comdat
.Ldebug_macro34:
	.value	0x5
	.byte	0
	.byte	0x5
	.uleb128 0x28
	.long	.LASF1347
	.byte	0x5
	.uleb128 0x2c
	.long	.LASF1348
	.byte	0
	.section	.debug_macro,"G",@progbits,wm4.endian.h.27.4c4f94262c4eaee2982fe00ed1b4f173,comdat
.Ldebug_macro35:
	.value	0x5
	.byte	0
	.byte	0x5
	.uleb128 0x1b
	.long	.LASF1349
	.byte	0x5
	.uleb128 0x1c
	.long	.LASF1350
	.byte	0x5
	.uleb128 0x1d
	.long	.LASF1351
	.byte	0x5
	.uleb128 0x1e
	.long	.LASF1352
	.byte	0
	.section	.debug_macro,"G",@progbits,wm4.byteswap.h.24.5363c019348146aada5aeadf51456576,comdat
.Ldebug_macro36:
	.value	0x5
	.byte	0
	.byte	0x5
	.uleb128 0x18
	.long	.LASF1353
	.byte	0x5
	.uleb128 0x1e
	.long	.LASF1354
	.byte	0x5
	.uleb128 0x2c
	.long	.LASF1355
	.byte	0x5
	.uleb128 0x3b
	.long	.LASF1356
	.byte	0
	.section	.debug_macro,"G",@progbits,wm4.endian.h.39.30a606dbd99b6c3df61c1f06dbdabd4e,comdat
.Ldebug_macro37:
	.value	0x5
	.byte	0
	.byte	0x5
	.uleb128 0x27
	.long	.LASF1358
	.byte	0x5
	.uleb128 0x28
	.long	.LASF1359
	.byte	0x5
	.uleb128 0x29
	.long	.LASF1360
	.byte	0x5
	.uleb128 0x2a
	.long	.LASF1361
	.byte	0x5
	.uleb128 0x2c
	.long	.LASF1362
	.byte	0x5
	.uleb128 0x2d
	.long	.LASF1363
	.byte	0x5
	.uleb128 0x2e
	.long	.LASF1364
	.byte	0x5
	.uleb128 0x2f
	.long	.LASF1365
	.byte	0x5
	.uleb128 0x31
	.long	.LASF1366
	.byte	0x5
	.uleb128 0x32
	.long	.LASF1367
	.byte	0x5
	.uleb128 0x33
	.long	.LASF1368
	.byte	0x5
	.uleb128 0x34
	.long	.LASF1369
	.byte	0
	.section	.debug_macro,"G",@progbits,wm4.select.h.25.df647f04fce2d846f134ede6a14ddf91,comdat
.Ldebug_macro38:
	.value	0x5
	.byte	0
	.byte	0x5
	.uleb128 0x19
	.long	.LASF1371
	.byte	0x5
	.uleb128 0x20
	.long	.LASF1372
	.byte	0x5
	.uleb128 0x22
	.long	.LASF1373
	.byte	0x5
	.uleb128 0x24
	.long	.LASF1374
	.byte	0
	.section	.debug_macro,"G",@progbits,wm4.__sigset_t.h.2.6b1ab6ff3d7b8fd9c0c42b0d80afbd80,comdat
.Ldebug_macro39:
	.value	0x5
	.byte	0
	.byte	0x5
	.uleb128 0x2
	.long	.LASF1376
	.byte	0x5
	.uleb128 0x4
	.long	.LASF1377
	.byte	0
	.section	.debug_macro,"G",@progbits,wm4.select.h.52.4f882364bb7424384ae71496b52638dc,comdat
.Ldebug_macro40:
	.value	0x5
	.byte	0
	.byte	0x6
	.uleb128 0x34
	.long	.LASF1380
	.byte	0x5
	.uleb128 0x36
	.long	.LASF1381
	.byte	0x5
	.uleb128 0x37
	.long	.LASF1382
	.byte	0x5
	.uleb128 0x38
	.long	.LASF1383
	.byte	0x5
	.uleb128 0x41
	.long	.LASF1384
	.byte	0x5
	.uleb128 0x49
	.long	.LASF1385
	.byte	0x5
	.uleb128 0x50
	.long	.LASF1386
	.byte	0x5
	.uleb128 0x55
	.long	.LASF1387
	.byte	0x5
	.uleb128 0x56
	.long	.LASF1388
	.byte	0x5
	.uleb128 0x57
	.long	.LASF1389
	.byte	0x5
	.uleb128 0x58
	.long	.LASF1390
	.byte	0
	.section	.debug_macro,"G",@progbits,wm4.types.h.186.489a4ed8f2d29cd358843490f54ddea5,comdat
.Ldebug_macro41:
	.value	0x5
	.byte	0
	.byte	0x5
	.uleb128 0xba
	.long	.LASF1391
	.byte	0x5
	.uleb128 0xc1
	.long	.LASF1392
	.byte	0x5
	.uleb128 0xc5
	.long	.LASF1393
	.byte	0x5
	.uleb128 0xc9
	.long	.LASF1394
	.byte	0
	.section	.debug_macro,"G",@progbits,wm4.pthreadtypesarch.h.25.6063cba99664c916e22d3a912bcc348a,comdat
.Ldebug_macro42:
	.value	0x5
	.byte	0
	.byte	0x5
	.uleb128 0x19
	.long	.LASF1398
	.byte	0x5
	.uleb128 0x1a
	.long	.LASF1399
	.byte	0x5
	.uleb128 0x1b
	.long	.LASF1400
	.byte	0x5
	.uleb128 0x1c
	.long	.LASF1401
	.byte	0x5
	.uleb128 0x29
	.long	.LASF1402
	.byte	0x5
	.uleb128 0x2a
	.long	.LASF1403
	.byte	0x5
	.uleb128 0x2b
	.long	.LASF1404
	.byte	0x5
	.uleb128 0x2c
	.long	.LASF1405
	.byte	0x5
	.uleb128 0x2d
	.long	.LASF1406
	.byte	0x5
	.uleb128 0x2f
	.long	.LASF1407
	.byte	0x5
	.uleb128 0x30
	.long	.LASF1408
	.byte	0
	.section	.debug_macro,"G",@progbits,wm4.struct_mutex.h.20.e3a8115b63766b45e6c385382ab210bd,comdat
.Ldebug_macro43:
	.value	0x5
	.byte	0
	.byte	0x5
	.uleb128 0x14
	.long	.LASF1410
	.byte	0x5
	.uleb128 0x25
	.long	.LASF1411
	.byte	0x5
	.uleb128 0x38
	.long	.LASF1412
	.byte	0
	.section	.debug_macro,"G",@progbits,wm4.struct_rwlock.h.21.0254880f2904e3833fb8ae683e0f0330,comdat
.Ldebug_macro44:
	.value	0x5
	.byte	0
	.byte	0x5
	.uleb128 0x15
	.long	.LASF1413
	.byte	0x5
	.uleb128 0x28
	.long	.LASF1414
	.byte	0x5
	.uleb128 0x3a
	.long	.LASF1415
	.byte	0
	.section	.debug_macro,"G",@progbits,wm4.alloca.h.19.edefa922a76c1cbaaf1e416903ba2d1c,comdat
.Ldebug_macro45:
	.value	0x5
	.byte	0
	.byte	0x5
	.uleb128 0x13
	.long	.LASF1418
	.byte	0x5
	.uleb128 0x17
	.long	.LASF1146
	.byte	0
	.section	.debug_macro,"G",@progbits,wm4.alloca.h.29.156e12058824cc23d961c4d3b13031f6,comdat
.Ldebug_macro46:
	.value	0x5
	.byte	0
	.byte	0x6
	.uleb128 0x1d
	.long	.LASF1419
	.byte	0x5
	.uleb128 0x23
	.long	.LASF1420
	.byte	0
	.section	.debug_macro,"G",@progbits,wm4.std_abs.h.31.4587ba001d85390d152353c24c92c0c8,comdat
.Ldebug_macro47:
	.value	0x5
	.byte	0
	.byte	0x5
	.uleb128 0x1f
	.long	.LASF1423
	.byte	0x5
	.uleb128 0x25
	.long	.LASF1129
	.byte	0x6
	.uleb128 0x2a
	.long	.LASF1422
	.byte	0x2
	.uleb128 0x2c
	.string	"abs"
	.byte	0
	.section	.debug_macro,"G",@progbits,wm4.cstdlib.84.c8e80f99ac23a1f099dc37a05949b510,comdat
.Ldebug_macro48:
	.value	0x5
	.byte	0
	.byte	0x6
	.uleb128 0x54
	.long	.LASF1424
	.byte	0x6
	.uleb128 0x56
	.long	.LASF1425
	.byte	0x6
	.uleb128 0x58
	.long	.LASF1426
	.byte	0x6
	.uleb128 0x5b
	.long	.LASF1427
	.byte	0x6
	.uleb128 0x5e
	.long	.LASF1428
	.byte	0x6
	.uleb128 0x5f
	.long	.LASF1429
	.byte	0x6
	.uleb128 0x60
	.long	.LASF1430
	.byte	0x6
	.uleb128 0x61
	.long	.LASF1431
	.byte	0x6
	.uleb128 0x62
	.long	.LASF1432
	.byte	0x2
	.uleb128 0x63
	.string	"div"
	.byte	0x6
	.uleb128 0x64
	.long	.LASF1433
	.byte	0x6
	.uleb128 0x65
	.long	.LASF1434
	.byte	0x6
	.uleb128 0x66
	.long	.LASF1435
	.byte	0x6
	.uleb128 0x67
	.long	.LASF1436
	.byte	0x6
	.uleb128 0x68
	.long	.LASF1437
	.byte	0x6
	.uleb128 0x69
	.long	.LASF1438
	.byte	0x6
	.uleb128 0x6a
	.long	.LASF1439
	.byte	0x6
	.uleb128 0x6b
	.long	.LASF1440
	.byte	0x6
	.uleb128 0x6c
	.long	.LASF1441
	.byte	0x6
	.uleb128 0x6d
	.long	.LASF1442
	.byte	0x6
	.uleb128 0x70
	.long	.LASF1443
	.byte	0x6
	.uleb128 0x73
	.long	.LASF1444
	.byte	0x6
	.uleb128 0x74
	.long	.LASF1445
	.byte	0x6
	.uleb128 0x75
	.long	.LASF1446
	.byte	0x6
	.uleb128 0x76
	.long	.LASF1447
	.byte	0x6
	.uleb128 0x77
	.long	.LASF1448
	.byte	0x6
	.uleb128 0x78
	.long	.LASF1449
	.byte	0x6
	.uleb128 0x79
	.long	.LASF1450
	.byte	0x6
	.uleb128 0x7a
	.long	.LASF1451
	.byte	0x6
	.uleb128 0x7b
	.long	.LASF1452
	.byte	0x6
	.uleb128 0xbe
	.long	.LASF1453
	.byte	0x6
	.uleb128 0xbf
	.long	.LASF1454
	.byte	0x6
	.uleb128 0xc0
	.long	.LASF1455
	.byte	0x6
	.uleb128 0xc1
	.long	.LASF1456
	.byte	0x6
	.uleb128 0xc2
	.long	.LASF1457
	.byte	0x6
	.uleb128 0xc3
	.long	.LASF1458
	.byte	0x6
	.uleb128 0xc4
	.long	.LASF1459
	.byte	0x6
	.uleb128 0xc5
	.long	.LASF1460
	.byte	0
	.section	.debug_macro,"G",@progbits,wm4.x86gprintrin.h.25.2c60ff612f21f2d748ec6ad08884351f,comdat
.Ldebug_macro49:
	.value	0x5
	.byte	0
	.byte	0x5
	.uleb128 0x19
	.long	.LASF1462
	.byte	0x6
	.uleb128 0x1e
	.long	.LASF1463
	.byte	0x6
	.uleb128 0x1e
	.long	.LASF1464
	.byte	0x6
	.uleb128 0x1e
	.long	.LASF1465
	.byte	0x6
	.uleb128 0x1e
	.long	.LASF1466
	.byte	0x6
	.uleb128 0x1e
	.long	.LASF1467
	.byte	0x6
	.uleb128 0x1e
	.long	.LASF1468
	.byte	0x6
	.uleb128 0x1e
	.long	.LASF1469
	.byte	0x6
	.uleb128 0x1e
	.long	.LASF1470
	.byte	0x6
	.uleb128 0x1e
	.long	.LASF1471
	.byte	0x6
	.uleb128 0x1e
	.long	.LASF1472
	.byte	0x6
	.uleb128 0x1e
	.long	.LASF1473
	.byte	0x6
	.uleb128 0x1e
	.long	.LASF1474
	.byte	0x6
	.uleb128 0x1e
	.long	.LASF1475
	.byte	0x6
	.uleb128 0x1e
	.long	.LASF1476
	.byte	0x6
	.uleb128 0x1e
	.long	.LASF1477
	.byte	0x6
	.uleb128 0x1e
	.long	.LASF1478
	.byte	0x6
	.uleb128 0x1e
	.long	.LASF1479
	.byte	0x6
	.uleb128 0x1e
	.long	.LASF1480
	.byte	0x6
	.uleb128 0x1e
	.long	.LASF1481
	.byte	0x6
	.uleb128 0x1e
	.long	.LASF1482
	.byte	0x6
	.uleb128 0x1e
	.long	.LASF1483
	.byte	0x6
	.uleb128 0x1e
	.long	.LASF1484
	.byte	0x6
	.uleb128 0x1e
	.long	.LASF1485
	.byte	0x6
	.uleb128 0x1e
	.long	.LASF1486
	.byte	0x6
	.uleb128 0x1e
	.long	.LASF1487
	.byte	0x6
	.uleb128 0x1e
	.long	.LASF1488
	.byte	0x6
	.uleb128 0x1e
	.long	.LASF1489
	.byte	0x6
	.uleb128 0x1e
	.long	.LASF1490
	.byte	0x6
	.uleb128 0x1e
	.long	.LASF1491
	.byte	0x6
	.uleb128 0x1e
	.long	.LASF1492
	.byte	0x5
	.uleb128 0x1e
	.long	.LASF460
	.byte	0x5
	.uleb128 0x1e
	.long	.LASF1493
	.byte	0
	.section	.debug_macro,"G",@progbits,wm4.ia32intrin.h.273.c272515625df6384c1dc3f62a9376478,comdat
.Ldebug_macro50:
	.value	0x5
	.byte	0
	.byte	0x5
	.uleb128 0x111
	.long	.LASF1494
	.byte	0x5
	.uleb128 0x112
	.long	.LASF1495
	.byte	0x5
	.uleb128 0x12a
	.long	.LASF1496
	.byte	0x5
	.uleb128 0x12b
	.long	.LASF1497
	.byte	0x5
	.uleb128 0x131
	.long	.LASF1498
	.byte	0x5
	.uleb128 0x132
	.long	.LASF1499
	.byte	0x5
	.uleb128 0x133
	.long	.LASF1500
	.byte	0x5
	.uleb128 0x134
	.long	.LASF1501
	.byte	0x5
	.uleb128 0x136
	.long	.LASF1502
	.byte	0x5
	.uleb128 0x137
	.long	.LASF1503
	.byte	0x5
	.uleb128 0x139
	.long	.LASF1504
	.byte	0x5
	.uleb128 0x13a
	.long	.LASF1505
	.byte	0x5
	.uleb128 0x13b
	.long	.LASF1506
	.byte	0x5
	.uleb128 0x13c
	.long	.LASF1507
	.byte	0x5
	.uleb128 0x13d
	.long	.LASF1508
	.byte	0
	.section	.debug_macro,"G",@progbits,wm4.stddef.h.39.c8a8030e26a8297e31791110b80c861f,comdat
.Ldebug_macro51:
	.value	0x5
	.byte	0
	.byte	0x5
	.uleb128 0x27
	.long	.LASF1509
	.byte	0x5
	.uleb128 0x28
	.long	.LASF1510
	.byte	0x5
	.uleb128 0x2a
	.long	.LASF1511
	.byte	0x5
	.uleb128 0x93
	.long	.LASF1512
	.byte	0x5
	.uleb128 0x94
	.long	.LASF1513
	.byte	0x5
	.uleb128 0x95
	.long	.LASF1514
	.byte	0x5
	.uleb128 0x96
	.long	.LASF1515
	.byte	0x5
	.uleb128 0x97
	.long	.LASF1516
	.byte	0x5
	.uleb128 0x98
	.long	.LASF1517
	.byte	0x5
	.uleb128 0x99
	.long	.LASF1518
	.byte	0x5
	.uleb128 0x9a
	.long	.LASF1519
	.byte	0x5
	.uleb128 0x9b
	.long	.LASF1520
	.byte	0x5
	.uleb128 0x9c
	.long	.LASF1521
	.byte	0x6
	.uleb128 0xad
	.long	.LASF1522
	.byte	0x6
	.uleb128 0xfc
	.long	.LASF1167
	.byte	0x6
	.uleb128 0x16c
	.long	.LASF1185
	.byte	0x6
	.uleb128 0x19e
	.long	.LASF1186
	.byte	0x5
	.uleb128 0x1a0
	.long	.LASF1187
	.byte	0x6
	.uleb128 0x1a9
	.long	.LASF1188
	.byte	0x6
	.uleb128 0x1ae
	.long	.LASF1523
	.byte	0x5
	.uleb128 0x1af
	.long	.LASF1524
	.byte	0x5
	.uleb128 0x1b4
	.long	.LASF1525
	.byte	0x5
	.uleb128 0x1c9
	.long	.LASF1526
	.byte	0
	.section	.debug_macro,"G",@progbits,wm4.cetintrin.h.29.bea072fb63bd6ff7b0b3199045c89d67,comdat
.Ldebug_macro52:
	.value	0x5
	.byte	0
	.byte	0x5
	.uleb128 0x1d
	.long	.LASF1530
	.byte	0x6
	.uleb128 0x22
	.long	.LASF1463
	.byte	0x5
	.uleb128 0x22
	.long	.LASF460
	.byte	0x5
	.uleb128 0x22
	.long	.LASF1531
	.byte	0x5
	.uleb128 0x22
	.long	.LASF1532
	.byte	0x6
	.uleb128 0x7d
	.long	.LASF1533
	.byte	0x6
	.uleb128 0x7f
	.long	.LASF1463
	.byte	0x6
	.uleb128 0x7f
	.long	.LASF1534
	.byte	0x5
	.uleb128 0x7f
	.long	.LASF460
	.byte	0
	.section	.debug_macro,"G",@progbits,wm4.cldemoteintrin.h.29.471b41580ea37a50dd83d8cb9c8857c9,comdat
.Ldebug_macro53:
	.value	0x5
	.byte	0
	.byte	0x5
	.uleb128 0x1d
	.long	.LASF1535
	.byte	0x6
	.uleb128 0x22
	.long	.LASF1463
	.byte	0x5
	.uleb128 0x22
	.long	.LASF460
	.byte	0x5
	.uleb128 0x22
	.long	.LASF1536
	.byte	0x5
	.uleb128 0x22
	.long	.LASF1537
	.byte	0x6
	.uleb128 0x2b
	.long	.LASF1538
	.byte	0x6
	.uleb128 0x2d
	.long	.LASF1463
	.byte	0x6
	.uleb128 0x2d
	.long	.LASF1539
	.byte	0x5
	.uleb128 0x2d
	.long	.LASF460
	.byte	0
	.section	.debug_macro,"G",@progbits,wm4.cmpccxaddintrin.h.29.7503cb50d3fe88b747cf93c4834b6959,comdat
.Ldebug_macro54:
	.value	0x5
	.byte	0
	.byte	0x5
	.uleb128 0x1d
	.long	.LASF1543
	.byte	0x6
	.uleb128 0x24
	.long	.LASF1463
	.byte	0x5
	.uleb128 0x24
	.long	.LASF460
	.byte	0x5
	.uleb128 0x24
	.long	.LASF1544
	.byte	0x5
	.uleb128 0x24
	.long	.LASF1545
	.byte	0x6
	.uleb128 0x53
	.long	.LASF1546
	.byte	0x6
	.uleb128 0x55
	.long	.LASF1463
	.byte	0x6
	.uleb128 0x55
	.long	.LASF1547
	.byte	0x5
	.uleb128 0x55
	.long	.LASF460
	.byte	0
	.section	.debug_macro,"G",@progbits,wm4.enqcmdintrin.h.29.8c536408bd3fde95ffcbe5a542574bf2,comdat
.Ldebug_macro55:
	.value	0x5
	.byte	0
	.byte	0x5
	.uleb128 0x1d
	.long	.LASF1548
	.byte	0x6
	.uleb128 0x22
	.long	.LASF1463
	.byte	0x5
	.uleb128 0x22
	.long	.LASF460
	.byte	0x5
	.uleb128 0x22
	.long	.LASF1549
	.byte	0x5
	.uleb128 0x22
	.long	.LASF1550
	.byte	0x6
	.uleb128 0x34
	.long	.LASF1551
	.byte	0x6
	.uleb128 0x36
	.long	.LASF1463
	.byte	0x6
	.uleb128 0x36
	.long	.LASF1552
	.byte	0x5
	.uleb128 0x36
	.long	.LASF460
	.byte	0
	.section	.debug_macro,"G",@progbits,wm4.lwpintrin.h.29.a757e34aba03d12c13fc0fa5d623afe9,comdat
.Ldebug_macro56:
	.value	0x5
	.byte	0
	.byte	0x5
	.uleb128 0x1d
	.long	.LASF1555
	.byte	0x6
	.uleb128 0x22
	.long	.LASF1463
	.byte	0x5
	.uleb128 0x22
	.long	.LASF460
	.byte	0x5
	.uleb128 0x22
	.long	.LASF1556
	.byte	0x5
	.uleb128 0x22
	.long	.LASF1557
	.byte	0x6
	.uleb128 0x67
	.long	.LASF1558
	.byte	0x6
	.uleb128 0x69
	.long	.LASF1463
	.byte	0x6
	.uleb128 0x69
	.long	.LASF1559
	.byte	0x5
	.uleb128 0x69
	.long	.LASF460
	.byte	0
	.section	.debug_macro,"G",@progbits,wm4.movdirintrin.h.29.8fbe9cf0cc1b9ed479803473079164e2,comdat
.Ldebug_macro57:
	.value	0x5
	.byte	0
	.byte	0x5
	.uleb128 0x1d
	.long	.LASF1560
	.byte	0x6
	.uleb128 0x22
	.long	.LASF1463
	.byte	0x5
	.uleb128 0x22
	.long	.LASF460
	.byte	0x5
	.uleb128 0x22
	.long	.LASF1561
	.byte	0x5
	.uleb128 0x22
	.long	.LASF1562
	.byte	0x6
	.uleb128 0x35
	.long	.LASF1563
	.byte	0x6
	.uleb128 0x37
	.long	.LASF1463
	.byte	0x6
	.uleb128 0x37
	.long	.LASF1564
	.byte	0x5
	.uleb128 0x37
	.long	.LASF460
	.byte	0x6
	.uleb128 0x3c
	.long	.LASF1463
	.byte	0x5
	.uleb128 0x3c
	.long	.LASF460
	.byte	0x5
	.uleb128 0x3c
	.long	.LASF1565
	.byte	0x5
	.uleb128 0x3c
	.long	.LASF1566
	.byte	0x6
	.uleb128 0x47
	.long	.LASF1567
	.byte	0x6
	.uleb128 0x49
	.long	.LASF1463
	.byte	0x6
	.uleb128 0x49
	.long	.LASF1568
	.byte	0x5
	.uleb128 0x49
	.long	.LASF460
	.byte	0
	.section	.debug_macro,"G",@progbits,wm4.mwaitintrin.h.25.e7bdd94c8900cf9a0a8332ed3d54b460,comdat
.Ldebug_macro58:
	.value	0x5
	.byte	0
	.byte	0x5
	.uleb128 0x19
	.long	.LASF1569
	.byte	0x6
	.uleb128 0x1e
	.long	.LASF1463
	.byte	0x5
	.uleb128 0x1e
	.long	.LASF460
	.byte	0x5
	.uleb128 0x1e
	.long	.LASF1570
	.byte	0x6
	.uleb128 0x30
	.long	.LASF1571
	.byte	0
	.section	.debug_macro,"G",@progbits,wm4.pconfigintrin.h.29.14128192541733517ec0afd8fd28eaae,comdat
.Ldebug_macro59:
	.value	0x5
	.byte	0
	.byte	0x5
	.uleb128 0x1d
	.long	.LASF1573
	.byte	0x6
	.uleb128 0x22
	.long	.LASF1463
	.byte	0x5
	.uleb128 0x22
	.long	.LASF460
	.byte	0x5
	.uleb128 0x22
	.long	.LASF1574
	.byte	0x5
	.uleb128 0x22
	.long	.LASF1575
	.byte	0x5
	.uleb128 0x25
	.long	.LASF1576
	.byte	0x5
	.uleb128 0x2b
	.long	.LASF1577
	.byte	0x6
	.uleb128 0x4a
	.long	.LASF1578
	.byte	0x6
	.uleb128 0x4c
	.long	.LASF1463
	.byte	0x6
	.uleb128 0x4c
	.long	.LASF1579
	.byte	0x5
	.uleb128 0x4c
	.long	.LASF460
	.byte	0
	.section	.debug_macro,"G",@progbits,wm4.prfchiintrin.h.29.6ddb7f488e2bd5be9f5736c23375eb1f,comdat
.Ldebug_macro60:
	.value	0x5
	.byte	0
	.byte	0x5
	.uleb128 0x1d
	.long	.LASF1582
	.byte	0x6
	.uleb128 0x25
	.long	.LASF1463
	.byte	0x5
	.uleb128 0x25
	.long	.LASF460
	.byte	0x5
	.uleb128 0x25
	.long	.LASF1583
	.byte	0x5
	.uleb128 0x25
	.long	.LASF1584
	.byte	0x6
	.uleb128 0x40
	.long	.LASF1585
	.byte	0x6
	.uleb128 0x42
	.long	.LASF1463
	.byte	0x6
	.uleb128 0x42
	.long	.LASF1586
	.byte	0x5
	.uleb128 0x42
	.long	.LASF460
	.byte	0
	.section	.debug_macro,"G",@progbits,wm4.raointintrin.h.29.249706a8cd878520708854162b3f7f3c,comdat
.Ldebug_macro61:
	.value	0x5
	.byte	0
	.byte	0x5
	.uleb128 0x1d
	.long	.LASF1587
	.byte	0x6
	.uleb128 0x22
	.long	.LASF1463
	.byte	0x5
	.uleb128 0x22
	.long	.LASF460
	.byte	0x5
	.uleb128 0x22
	.long	.LASF1588
	.byte	0x5
	.uleb128 0x22
	.long	.LASF1589
	.byte	0x6
	.uleb128 0x60
	.long	.LASF1590
	.byte	0x6
	.uleb128 0x62
	.long	.LASF1463
	.byte	0x6
	.uleb128 0x62
	.long	.LASF1591
	.byte	0x5
	.uleb128 0x62
	.long	.LASF460
	.byte	0
	.section	.debug_macro,"G",@progbits,wm4.rtmintrin.h.29.7ecd855828dbef6f58e3f71ba4fa0bb5,comdat
.Ldebug_macro62:
	.value	0x5
	.byte	0
	.byte	0x5
	.uleb128 0x1d
	.long	.LASF1593
	.byte	0x6
	.uleb128 0x22
	.long	.LASF1463
	.byte	0x5
	.uleb128 0x22
	.long	.LASF460
	.byte	0x5
	.uleb128 0x22
	.long	.LASF1594
	.byte	0x5
	.uleb128 0x22
	.long	.LASF1595
	.byte	0x5
	.uleb128 0x25
	.long	.LASF1596
	.byte	0x5
	.uleb128 0x26
	.long	.LASF1597
	.byte	0x5
	.uleb128 0x27
	.long	.LASF1598
	.byte	0x5
	.uleb128 0x28
	.long	.LASF1599
	.byte	0x5
	.uleb128 0x29
	.long	.LASF1600
	.byte	0x5
	.uleb128 0x2a
	.long	.LASF1601
	.byte	0x5
	.uleb128 0x2b
	.long	.LASF1602
	.byte	0x5
	.uleb128 0x2c
	.long	.LASF1603
	.byte	0x6
	.uleb128 0x50
	.long	.LASF1604
	.byte	0x6
	.uleb128 0x52
	.long	.LASF1463
	.byte	0x6
	.uleb128 0x52
	.long	.LASF1605
	.byte	0x5
	.uleb128 0x52
	.long	.LASF460
	.byte	0
	.section	.debug_macro,"G",@progbits,wm4.serializeintrin.h.29.a9b3d782d3ecb6aa6c21a081284b98a3,comdat
.Ldebug_macro63:
	.value	0x5
	.byte	0
	.byte	0x5
	.uleb128 0x1d
	.long	.LASF1606
	.byte	0x6
	.uleb128 0x22
	.long	.LASF1463
	.byte	0x5
	.uleb128 0x22
	.long	.LASF460
	.byte	0x5
	.uleb128 0x22
	.long	.LASF1607
	.byte	0x5
	.uleb128 0x22
	.long	.LASF1608
	.byte	0x6
	.uleb128 0x2d
	.long	.LASF1609
	.byte	0x6
	.uleb128 0x2f
	.long	.LASF1463
	.byte	0x6
	.uleb128 0x2f
	.long	.LASF1610
	.byte	0x5
	.uleb128 0x2f
	.long	.LASF460
	.byte	0
	.section	.debug_macro,"G",@progbits,wm4.sgxintrin.h.25.07d1e2714f8193fcdc85c61791d11b06,comdat
.Ldebug_macro64:
	.value	0x5
	.byte	0
	.byte	0x5
	.uleb128 0x19
	.long	.LASF1611
	.byte	0x6
	.uleb128 0x1e
	.long	.LASF1463
	.byte	0x5
	.uleb128 0x1e
	.long	.LASF460
	.byte	0x5
	.uleb128 0x1e
	.long	.LASF1612
	.byte	0x5
	.uleb128 0x1e
	.long	.LASF1613
	.byte	0x5
	.uleb128 0x21
	.long	.LASF1614
	.byte	0x5
	.uleb128 0x27
	.long	.LASF1615
	.byte	0x5
	.uleb128 0x2d
	.long	.LASF1616
	.byte	0x5
	.uleb128 0x33
	.long	.LASF1617
	.byte	0x5
	.uleb128 0x38
	.long	.LASF1618
	.byte	0x5
	.uleb128 0x3e
	.long	.LASF1619
	.byte	0x5
	.uleb128 0x44
	.long	.LASF1620
	.byte	0x5
	.uleb128 0x4a
	.long	.LASF1621
	.byte	0x5
	.uleb128 0x50
	.long	.LASF1622
	.byte	0x5
	.uleb128 0x56
	.long	.LASF1623
	.byte	0x5
	.uleb128 0x5c
	.long	.LASF1624
	.byte	0x5
	.uleb128 0x62
	.long	.LASF1625
	.byte	0x5
	.uleb128 0x68
	.long	.LASF1626
	.byte	0x6
	.uleb128 0xf9
	.long	.LASF1627
	.byte	0x6
	.uleb128 0xfb
	.long	.LASF1463
	.byte	0x6
	.uleb128 0xfb
	.long	.LASF1628
	.byte	0x5
	.uleb128 0xfb
	.long	.LASF460
	.byte	0
	.section	.debug_macro,"G",@progbits,wm4.tbmintrin.h.29.90d570d272b2c5a6b9c0e53c26ddaa86,comdat
.Ldebug_macro65:
	.value	0x5
	.byte	0
	.byte	0x5
	.uleb128 0x1d
	.long	.LASF1629
	.byte	0x6
	.uleb128 0x22
	.long	.LASF1463
	.byte	0x5
	.uleb128 0x22
	.long	.LASF460
	.byte	0x5
	.uleb128 0x22
	.long	.LASF1630
	.byte	0x5
	.uleb128 0x22
	.long	.LASF1631
	.byte	0x6
	.uleb128 0xb0
	.long	.LASF1632
	.byte	0x6
	.uleb128 0xb2
	.long	.LASF1463
	.byte	0x6
	.uleb128 0xb2
	.long	.LASF1633
	.byte	0x5
	.uleb128 0xb2
	.long	.LASF460
	.byte	0
	.section	.debug_macro,"G",@progbits,wm4.tsxldtrkintrin.h.29.04049eac00219a2bbd97e48c92328eb3,comdat
.Ldebug_macro66:
	.value	0x5
	.byte	0
	.byte	0x5
	.uleb128 0x1d
	.long	.LASF1634
	.byte	0x6
	.uleb128 0x22
	.long	.LASF1463
	.byte	0x5
	.uleb128 0x22
	.long	.LASF460
	.byte	0x5
	.uleb128 0x22
	.long	.LASF1635
	.byte	0x5
	.uleb128 0x22
	.long	.LASF1636
	.byte	0x6
	.uleb128 0x34
	.long	.LASF1637
	.byte	0x6
	.uleb128 0x36
	.long	.LASF1463
	.byte	0x6
	.uleb128 0x36
	.long	.LASF1638
	.byte	0x5
	.uleb128 0x36
	.long	.LASF460
	.byte	0
	.section	.debug_macro,"G",@progbits,wm4.uintrintrin.h.29.2bbe7293fac0d4b840b9d0eb9dc5fafa,comdat
.Ldebug_macro67:
	.value	0x5
	.byte	0
	.byte	0x5
	.uleb128 0x1d
	.long	.LASF1639
	.byte	0x6
	.uleb128 0x24
	.long	.LASF1463
	.byte	0x5
	.uleb128 0x24
	.long	.LASF460
	.byte	0x5
	.uleb128 0x24
	.long	.LASF1640
	.byte	0x5
	.uleb128 0x24
	.long	.LASF1641
	.byte	0x6
	.uleb128 0x4e
	.long	.LASF1642
	.byte	0x6
	.uleb128 0x50
	.long	.LASF1463
	.byte	0x6
	.uleb128 0x50
	.long	.LASF1643
	.byte	0x5
	.uleb128 0x50
	.long	.LASF460
	.byte	0
	.section	.debug_macro,"G",@progbits,wm4.waitpkgintrin.h.29.2e8be68c71f5092f356d48ab9c336fc9,comdat
.Ldebug_macro68:
	.value	0x5
	.byte	0
	.byte	0x5
	.uleb128 0x1d
	.long	.LASF1644
	.byte	0x6
	.uleb128 0x22
	.long	.LASF1463
	.byte	0x5
	.uleb128 0x22
	.long	.LASF460
	.byte	0x5
	.uleb128 0x22
	.long	.LASF1645
	.byte	0x5
	.uleb128 0x22
	.long	.LASF1646
	.byte	0x6
	.uleb128 0x3b
	.long	.LASF1647
	.byte	0x6
	.uleb128 0x3d
	.long	.LASF1463
	.byte	0x6
	.uleb128 0x3d
	.long	.LASF1648
	.byte	0x5
	.uleb128 0x3d
	.long	.LASF460
	.byte	0
	.section	.debug_macro,"G",@progbits,wm4.xtestintrin.h.29.d901dc5b595afb2d3ebebea464d0a88c,comdat
.Ldebug_macro69:
	.value	0x5
	.byte	0
	.byte	0x5
	.uleb128 0x1d
	.long	.LASF1654
	.byte	0x6
	.uleb128 0x22
	.long	.LASF1463
	.byte	0x5
	.uleb128 0x22
	.long	.LASF460
	.byte	0x5
	.uleb128 0x22
	.long	.LASF1594
	.byte	0x5
	.uleb128 0x22
	.long	.LASF1595
	.byte	0x6
	.uleb128 0x2f
	.long	.LASF1604
	.byte	0x6
	.uleb128 0x31
	.long	.LASF1463
	.byte	0x6
	.uleb128 0x31
	.long	.LASF1605
	.byte	0x5
	.uleb128 0x31
	.long	.LASF460
	.byte	0
	.section	.debug_macro,"G",@progbits,wm4.hresetintrin.h.29.0b7f140f2c4530ce899b4d0720879511,comdat
.Ldebug_macro70:
	.value	0x5
	.byte	0
	.byte	0x5
	.uleb128 0x1d
	.long	.LASF1655
	.byte	0x6
	.uleb128 0x22
	.long	.LASF1463
	.byte	0x5
	.uleb128 0x22
	.long	.LASF460
	.byte	0x5
	.uleb128 0x22
	.long	.LASF1656
	.byte	0x5
	.uleb128 0x22
	.long	.LASF1657
	.byte	0x6
	.uleb128 0x2d
	.long	.LASF1658
	.byte	0x6
	.uleb128 0x2f
	.long	.LASF1463
	.byte	0x6
	.uleb128 0x2f
	.long	.LASF1659
	.byte	0x5
	.uleb128 0x2f
	.long	.LASF460
	.byte	0
	.section	.debug_macro,"G",@progbits,wm4.usermsrintrin.h.29.2e2a648582bca54157d1bbdbc984d627,comdat
.Ldebug_macro71:
	.value	0x5
	.byte	0
	.byte	0x5
	.uleb128 0x1d
	.long	.LASF1660
	.byte	0x6
	.uleb128 0x24
	.long	.LASF1463
	.byte	0x5
	.uleb128 0x24
	.long	.LASF460
	.byte	0x5
	.uleb128 0x24
	.long	.LASF1661
	.byte	0x5
	.uleb128 0x24
	.long	.LASF1662
	.byte	0x6
	.uleb128 0x36
	.long	.LASF1663
	.byte	0x6
	.uleb128 0x38
	.long	.LASF1463
	.byte	0x6
	.uleb128 0x38
	.long	.LASF1664
	.byte	0x5
	.uleb128 0x38
	.long	.LASF460
	.byte	0
	.section	.debug_macro,"G",@progbits,wm4.x86gprintrin.h.247.cf22e669ec2a4528b9c67e75428a59ec,comdat
.Ldebug_macro72:
	.value	0x5
	.byte	0
	.byte	0x6
	.uleb128 0xf7
	.long	.LASF1463
	.byte	0x5
	.uleb128 0xf7
	.long	.LASF460
	.byte	0x5
	.uleb128 0xf7
	.long	.LASF1665
	.byte	0x5
	.uleb128 0xf7
	.long	.LASF1666
	.byte	0x6
	.uleb128 0x10a
	.long	.LASF1667
	.byte	0x6
	.uleb128 0x10c
	.long	.LASF1463
	.byte	0x6
	.uleb128 0x10c
	.long	.LASF1668
	.byte	0x5
	.uleb128 0x10c
	.long	.LASF460
	.byte	0x6
	.uleb128 0x111
	.long	.LASF1669
	.byte	0x6
	.uleb128 0x113
	.long	.LASF1463
	.byte	0x6
	.uleb128 0x113
	.long	.LASF1670
	.byte	0x5
	.uleb128 0x113
	.long	.LASF460
	.byte	0x5
	.uleb128 0x113
	.long	.LASF462
	.byte	0x5
	.uleb128 0x113
	.long	.LASF463
	.byte	0x5
	.uleb128 0x113
	.long	.LASF464
	.byte	0x5
	.uleb128 0x113
	.long	.LASF465
	.byte	0x5
	.uleb128 0x113
	.long	.LASF466
	.byte	0x5
	.uleb128 0x113
	.long	.LASF467
	.byte	0x5
	.uleb128 0x113
	.long	.LASF468
	.byte	0x5
	.uleb128 0x113
	.long	.LASF472
	.byte	0x5
	.uleb128 0x113
	.long	.LASF473
	.byte	0x5
	.uleb128 0x113
	.long	.LASF474
	.byte	0x5
	.uleb128 0x113
	.long	.LASF475
	.byte	0x5
	.uleb128 0x113
	.long	.LASF476
	.byte	0x5
	.uleb128 0x113
	.long	.LASF477
	.byte	0x5
	.uleb128 0x113
	.long	.LASF478
	.byte	0x5
	.uleb128 0x113
	.long	.LASF479
	.byte	0x5
	.uleb128 0x113
	.long	.LASF480
	.byte	0x5
	.uleb128 0x113
	.long	.LASF481
	.byte	0x5
	.uleb128 0x113
	.long	.LASF482
	.byte	0x5
	.uleb128 0x113
	.long	.LASF483
	.byte	0x5
	.uleb128 0x113
	.long	.LASF484
	.byte	0x5
	.uleb128 0x113
	.long	.LASF485
	.byte	0x5
	.uleb128 0x113
	.long	.LASF486
	.byte	0x5
	.uleb128 0x113
	.long	.LASF487
	.byte	0x5
	.uleb128 0x113
	.long	.LASF496
	.byte	0x5
	.uleb128 0x113
	.long	.LASF503
	.byte	0x5
	.uleb128 0x113
	.long	.LASF504
	.byte	0x5
	.uleb128 0x113
	.long	.LASF514
	.byte	0x5
	.uleb128 0x113
	.long	.LASF515
	.byte	0x5
	.uleb128 0x113
	.long	.LASF516
	.byte	0x5
	.uleb128 0x113
	.long	.LASF517
	.byte	0
	.section	.debug_macro,"G",@progbits,wm4.xmmintrin.h.81.32450da4cc3ab1225ab69ecab0095f57,comdat
.Ldebug_macro73:
	.value	0x5
	.byte	0
	.byte	0x5
	.uleb128 0x51
	.long	.LASF1675
	.byte	0x5
	.uleb128 0x55
	.long	.LASF1676
	.byte	0x5
	.uleb128 0x56
	.long	.LASF1677
	.byte	0x5
	.uleb128 0x57
	.long	.LASF1678
	.byte	0x5
	.uleb128 0x58
	.long	.LASF1679
	.byte	0x5
	.uleb128 0x59
	.long	.LASF1680
	.byte	0x5
	.uleb128 0x5a
	.long	.LASF1681
	.byte	0x5
	.uleb128 0x5b
	.long	.LASF1682
	.byte	0x5
	.uleb128 0x5d
	.long	.LASF1683
	.byte	0x5
	.uleb128 0x5e
	.long	.LASF1684
	.byte	0x5
	.uleb128 0x5f
	.long	.LASF1685
	.byte	0x5
	.uleb128 0x60
	.long	.LASF1686
	.byte	0x5
	.uleb128 0x61
	.long	.LASF1687
	.byte	0x5
	.uleb128 0x62
	.long	.LASF1688
	.byte	0x5
	.uleb128 0x63
	.long	.LASF1689
	.byte	0x5
	.uleb128 0x65
	.long	.LASF1690
	.byte	0x5
	.uleb128 0x66
	.long	.LASF1691
	.byte	0x5
	.uleb128 0x67
	.long	.LASF1692
	.byte	0x5
	.uleb128 0x68
	.long	.LASF1693
	.byte	0x5
	.uleb128 0x69
	.long	.LASF1694
	.byte	0x5
	.uleb128 0x6b
	.long	.LASF1695
	.byte	0x5
	.uleb128 0x6c
	.long	.LASF1696
	.byte	0x5
	.uleb128 0x6d
	.long	.LASF1697
	.byte	0x5
	.uleb128 0x51c
	.long	.LASF1698
	.byte	0
	.section	.debug_macro,"G",@progbits,wm4.pmmintrin.h.28.833d642eed42cc8ecff9c2f21c3771ae,comdat
.Ldebug_macro74:
	.value	0x5
	.byte	0
	.byte	0x5
	.uleb128 0x1c
	.long	.LASF1701
	.byte	0x5
	.uleb128 0x29
	.long	.LASF1702
	.byte	0x5
	.uleb128 0x2a
	.long	.LASF1703
	.byte	0x5
	.uleb128 0x2b
	.long	.LASF1704
	.byte	0x5
	.uleb128 0x2d
	.long	.LASF1705
	.byte	0x5
	.uleb128 0x2f
	.long	.LASF1706
	.byte	0
	.section	.debug_macro,"G",@progbits,wm4.smmintrin.h.28.a24d618d4466f491534c5163ab0b4288,comdat
.Ldebug_macro75:
	.value	0x5
	.byte	0
	.byte	0x5
	.uleb128 0x1c
	.long	.LASF1708
	.byte	0x5
	.uleb128 0x29
	.long	.LASF1709
	.byte	0x5
	.uleb128 0x2a
	.long	.LASF1710
	.byte	0x5
	.uleb128 0x2b
	.long	.LASF1711
	.byte	0x5
	.uleb128 0x2c
	.long	.LASF1712
	.byte	0x5
	.uleb128 0x2d
	.long	.LASF1713
	.byte	0x5
	.uleb128 0x2f
	.long	.LASF1714
	.byte	0x5
	.uleb128 0x30
	.long	.LASF1715
	.byte	0x5
	.uleb128 0x32
	.long	.LASF1716
	.byte	0x5
	.uleb128 0x34
	.long	.LASF1717
	.byte	0x5
	.uleb128 0x36
	.long	.LASF1718
	.byte	0x5
	.uleb128 0x38
	.long	.LASF1719
	.byte	0x5
	.uleb128 0x3a
	.long	.LASF1720
	.byte	0x5
	.uleb128 0x3c
	.long	.LASF1721
	.byte	0x5
	.uleb128 0x59
	.long	.LASF1722
	.byte	0x5
	.uleb128 0x5b
	.long	.LASF1723
	.byte	0x5
	.uleb128 0x5e
	.long	.LASF1724
	.byte	0x5
	.uleb128 0x93
	.long	.LASF1725
	.byte	0x5
	.uleb128 0x94
	.long	.LASF1726
	.byte	0x5
	.uleb128 0x96
	.long	.LASF1727
	.byte	0x5
	.uleb128 0x97
	.long	.LASF1728
	.byte	0x5
	.uleb128 0x99
	.long	.LASF1729
	.byte	0x5
	.uleb128 0x9a
	.long	.LASF1730
	.byte	0x5
	.uleb128 0x9c
	.long	.LASF1731
	.byte	0x5
	.uleb128 0x9d
	.long	.LASF1732
	.byte	0x5
	.uleb128 0x167
	.long	.LASF1733
	.byte	0x5
	.uleb128 0x182
	.long	.LASF1734
	.byte	0x5
	.uleb128 0x187
	.long	.LASF1735
	.byte	0x5
	.uleb128 0x253
	.long	.LASF1736
	.byte	0x5
	.uleb128 0x254
	.long	.LASF1737
	.byte	0x5
	.uleb128 0x255
	.long	.LASF1738
	.byte	0x5
	.uleb128 0x256
	.long	.LASF1739
	.byte	0x5
	.uleb128 0x259
	.long	.LASF1740
	.byte	0x5
	.uleb128 0x25a
	.long	.LASF1741
	.byte	0x5
	.uleb128 0x25b
	.long	.LASF1742
	.byte	0x5
	.uleb128 0x25c
	.long	.LASF1743
	.byte	0x5
	.uleb128 0x25f
	.long	.LASF1744
	.byte	0x5
	.uleb128 0x260
	.long	.LASF1745
	.byte	0x5
	.uleb128 0x261
	.long	.LASF1746
	.byte	0x5
	.uleb128 0x262
	.long	.LASF1747
	.byte	0x5
	.uleb128 0x265
	.long	.LASF1748
	.byte	0x5
	.uleb128 0x266
	.long	.LASF1749
	.byte	0x5
	.uleb128 0x269
	.long	.LASF1750
	.byte	0x5
	.uleb128 0x26a
	.long	.LASF1751
	.byte	0
	.section	.debug_macro,"G",@progbits,wm4.wmmintrin.h.28.9c1e5a166799fe49cc84ef9d489fa757,comdat
.Ldebug_macro76:
	.value	0x5
	.byte	0
	.byte	0x5
	.uleb128 0x1c
	.long	.LASF1752
	.byte	0x5
	.uleb128 0x2b
	.long	.LASF1753
	.byte	0x5
	.uleb128 0x30
	.long	.LASF1754
	.byte	0x5
	.uleb128 0x35
	.long	.LASF1755
	.byte	0x5
	.uleb128 0x3a
	.long	.LASF1756
	.byte	0
	.section	.debug_macro,"G",@progbits,wm4.avxintrin.h.32.e11566b4a02f18b355ce50378b815ae5,comdat
.Ldebug_macro77:
	.value	0x5
	.byte	0
	.byte	0x5
	.uleb128 0x20
	.long	.LASF1757
	.byte	0x5
	.uleb128 0x4c
	.long	.LASF1758
	.byte	0x5
	.uleb128 0x4e
	.long	.LASF1759
	.byte	0x5
	.uleb128 0x50
	.long	.LASF1760
	.byte	0x5
	.uleb128 0x52
	.long	.LASF1761
	.byte	0x5
	.uleb128 0x54
	.long	.LASF1762
	.byte	0x5
	.uleb128 0x56
	.long	.LASF1763
	.byte	0x5
	.uleb128 0x58
	.long	.LASF1764
	.byte	0x5
	.uleb128 0x5a
	.long	.LASF1765
	.byte	0x5
	.uleb128 0x5c
	.long	.LASF1766
	.byte	0x5
	.uleb128 0x5e
	.long	.LASF1767
	.byte	0x5
	.uleb128 0x60
	.long	.LASF1768
	.byte	0x5
	.uleb128 0x62
	.long	.LASF1769
	.byte	0x5
	.uleb128 0x64
	.long	.LASF1770
	.byte	0x5
	.uleb128 0x66
	.long	.LASF1771
	.byte	0x5
	.uleb128 0x68
	.long	.LASF1772
	.byte	0x5
	.uleb128 0x6a
	.long	.LASF1773
	.byte	0x5
	.uleb128 0x6c
	.long	.LASF1774
	.byte	0x5
	.uleb128 0x6e
	.long	.LASF1775
	.byte	0x5
	.uleb128 0x70
	.long	.LASF1776
	.byte	0x5
	.uleb128 0x72
	.long	.LASF1777
	.byte	0x5
	.uleb128 0x74
	.long	.LASF1778
	.byte	0x5
	.uleb128 0x76
	.long	.LASF1779
	.byte	0x5
	.uleb128 0x78
	.long	.LASF1780
	.byte	0x5
	.uleb128 0x7a
	.long	.LASF1781
	.byte	0x5
	.uleb128 0x7c
	.long	.LASF1782
	.byte	0x5
	.uleb128 0x7e
	.long	.LASF1783
	.byte	0x5
	.uleb128 0x80
	.long	.LASF1784
	.byte	0x5
	.uleb128 0x82
	.long	.LASF1785
	.byte	0x5
	.uleb128 0x84
	.long	.LASF1786
	.byte	0x5
	.uleb128 0x86
	.long	.LASF1787
	.byte	0x5
	.uleb128 0x88
	.long	.LASF1788
	.byte	0x5
	.uleb128 0x8a
	.long	.LASF1789
	.byte	0x5
	.uleb128 0x434
	.long	.LASF1790
	.byte	0x5
	.uleb128 0x435
	.long	.LASF1791
	.byte	0x5
	.uleb128 0x436
	.long	.LASF1792
	.byte	0x5
	.uleb128 0x437
	.long	.LASF1793
	.byte	0
	.section	.debug_macro,"G",@progbits,wm4.avxvnniintrin.h.29.ec01663f10a7e2654659b0203affe7db,comdat
.Ldebug_macro78:
	.value	0x5
	.byte	0
	.byte	0x5
	.uleb128 0x1d
	.long	.LASF1794
	.byte	0x6
	.uleb128 0x22
	.long	.LASF1463
	.byte	0x6
	.uleb128 0x22
	.long	.LASF1670
	.byte	0x5
	.uleb128 0x22
	.long	.LASF460
	.byte	0x5
	.uleb128 0x22
	.long	.LASF517
	.byte	0x5
	.uleb128 0x22
	.long	.LASF1795
	.byte	0x5
	.uleb128 0x22
	.long	.LASF1796
	.byte	0x6
	.uleb128 0x6e
	.long	.LASF1797
	.byte	0x6
	.uleb128 0x70
	.long	.LASF1463
	.byte	0x6
	.uleb128 0x70
	.long	.LASF1670
	.byte	0x6
	.uleb128 0x70
	.long	.LASF1798
	.byte	0x5
	.uleb128 0x70
	.long	.LASF460
	.byte	0x5
	.uleb128 0x70
	.long	.LASF517
	.byte	0
	.section	.debug_macro,"G",@progbits,wm4.avxifmaintrin.h.29.fdc981fb387930ca7b94f865ba07b3e5,comdat
.Ldebug_macro79:
	.value	0x5
	.byte	0
	.byte	0x5
	.uleb128 0x1d
	.long	.LASF1799
	.byte	0x6
	.uleb128 0x22
	.long	.LASF1463
	.byte	0x6
	.uleb128 0x22
	.long	.LASF1670
	.byte	0x5
	.uleb128 0x22
	.long	.LASF460
	.byte	0x5
	.uleb128 0x22
	.long	.LASF517
	.byte	0x5
	.uleb128 0x22
	.long	.LASF1800
	.byte	0x5
	.uleb128 0x22
	.long	.LASF1801
	.byte	0x6
	.uleb128 0x4a
	.long	.LASF1802
	.byte	0x6
	.uleb128 0x4c
	.long	.LASF1463
	.byte	0x6
	.uleb128 0x4c
	.long	.LASF1670
	.byte	0x6
	.uleb128 0x4c
	.long	.LASF1803
	.byte	0x5
	.uleb128 0x4c
	.long	.LASF460
	.byte	0x5
	.uleb128 0x4c
	.long	.LASF517
	.byte	0
	.section	.debug_macro,"G",@progbits,wm4.avxvnniint8intrin.h.29.9418466c8404bc56d2c898dd26246f11,comdat
.Ldebug_macro80:
	.value	0x5
	.byte	0
	.byte	0x5
	.uleb128 0x1d
	.long	.LASF1804
	.byte	0x6
	.uleb128 0x22
	.long	.LASF1463
	.byte	0x6
	.uleb128 0x22
	.long	.LASF1670
	.byte	0x5
	.uleb128 0x22
	.long	.LASF460
	.byte	0x5
	.uleb128 0x22
	.long	.LASF517
	.byte	0x5
	.uleb128 0x22
	.long	.LASF1805
	.byte	0x5
	.uleb128 0x22
	.long	.LASF1806
	.byte	0x6
	.uleb128 0x86
	.long	.LASF1807
	.byte	0x6
	.uleb128 0x88
	.long	.LASF1463
	.byte	0x6
	.uleb128 0x88
	.long	.LASF1670
	.byte	0x6
	.uleb128 0x88
	.long	.LASF1808
	.byte	0x5
	.uleb128 0x88
	.long	.LASF460
	.byte	0x5
	.uleb128 0x88
	.long	.LASF517
	.byte	0
	.section	.debug_macro,"G",@progbits,wm4.avxvnniint16intrin.h.29.fb852d1411309082020ffe32de6115f9,comdat
.Ldebug_macro81:
	.value	0x5
	.byte	0
	.byte	0x5
	.uleb128 0x1d
	.long	.LASF1809
	.byte	0x6
	.uleb128 0x22
	.long	.LASF1463
	.byte	0x6
	.uleb128 0x22
	.long	.LASF1670
	.byte	0x5
	.uleb128 0x22
	.long	.LASF460
	.byte	0x5
	.uleb128 0x22
	.long	.LASF517
	.byte	0x5
	.uleb128 0x22
	.long	.LASF1810
	.byte	0x5
	.uleb128 0x22
	.long	.LASF1811
	.byte	0x6
	.uleb128 0x86
	.long	.LASF1812
	.byte	0x6
	.uleb128 0x88
	.long	.LASF1463
	.byte	0x6
	.uleb128 0x88
	.long	.LASF1670
	.byte	0x6
	.uleb128 0x88
	.long	.LASF1813
	.byte	0x5
	.uleb128 0x88
	.long	.LASF460
	.byte	0x5
	.uleb128 0x88
	.long	.LASF517
	.byte	0
	.section	.debug_macro,"G",@progbits,wm4.avx2intrin.h.29.b07a0d4adda66925c559fa2e319d63d6,comdat
.Ldebug_macro82:
	.value	0x5
	.byte	0
	.byte	0x5
	.uleb128 0x1d
	.long	.LASF1814
	.byte	0x5
	.uleb128 0x3b9
	.long	.LASF1815
	.byte	0x5
	.uleb128 0x3ba
	.long	.LASF1816
	.byte	0x5
	.uleb128 0x77e
	.long	.LASF1817
	.byte	0x5
	.uleb128 0x7a4
	.long	.LASF1818
	.byte	0x5
	.uleb128 0x7cc
	.long	.LASF1819
	.byte	0x5
	.uleb128 0x7f4
	.long	.LASF1820
	.byte	0x5
	.uleb128 0x81f
	.long	.LASF1821
	.byte	0x5
	.uleb128 0x84b
	.long	.LASF1822
	.byte	0x5
	.uleb128 0x879
	.long	.LASF1823
	.byte	0x5
	.uleb128 0x8a7
	.long	.LASF1824
	.byte	0
	.section	.debug_macro,"G",@progbits,wm4.avx512fintrin.h.29.844d4189877eb2237ed0a823ee4f69d4,comdat
.Ldebug_macro83:
	.value	0x5
	.byte	0
	.byte	0x5
	.uleb128 0x1d
	.long	.LASF1825
	.byte	0x6
	.uleb128 0x22
	.long	.LASF1463
	.byte	0x6
	.uleb128 0x22
	.long	.LASF1670
	.byte	0x6
	.uleb128 0x22
	.long	.LASF1826
	.byte	0x5
	.uleb128 0x22
	.long	.LASF460
	.byte	0x5
	.uleb128 0x22
	.long	.LASF517
	.byte	0x5
	.uleb128 0x22
	.long	.LASF1827
	.byte	0x5
	.uleb128 0x2d7
	.long	.LASF1828
	.byte	0x5
	.uleb128 0x2da
	.long	.LASF1829
	.byte	0x5
	.uleb128 0x2dd
	.long	.LASF1830
	.byte	0x5
	.uleb128 0x2e0
	.long	.LASF1831
	.byte	0x5
	.uleb128 0x2e3
	.long	.LASF1832
	.byte	0x5
	.uleb128 0x2e6
	.long	.LASF1833
	.byte	0x5
	.uleb128 0x2e9
	.long	.LASF1834
	.byte	0x5
	.uleb128 0x2ec
	.long	.LASF1835
	.byte	0x5
	.uleb128 0x6b1
	.long	.LASF1836
	.byte	0x5
	.uleb128 0x6b4
	.long	.LASF1837
	.byte	0x5
	.uleb128 0x6b7
	.long	.LASF1838
	.byte	0x5
	.uleb128 0x6ba
	.long	.LASF1839
	.byte	0x6
	.uleb128 0xede
	.long	.LASF1840
	.byte	0x6
	.uleb128 0xee0
	.long	.LASF1463
	.byte	0x6
	.uleb128 0xee0
	.long	.LASF1670
	.byte	0x5
	.uleb128 0xee0
	.long	.LASF460
	.byte	0x5
	.uleb128 0xee0
	.long	.LASF517
	.byte	0x5
	.uleb128 0xee0
	.long	.LASF520
	.byte	0x5
	.uleb128 0xf6b
	.long	.LASF1841
	.byte	0x5
	.uleb128 0xf6e
	.long	.LASF1842
	.byte	0x5
	.uleb128 0xf72
	.long	.LASF1843
	.byte	0x5
	.uleb128 0xf75
	.long	.LASF1844
	.byte	0x5
	.uleb128 0xf83
	.long	.LASF1845
	.byte	0x5
	.uleb128 0xf9b
	.long	.LASF1846
	.byte	0x5
	.uleb128 0xfec
	.long	.LASF1847
	.byte	0x5
	.uleb128 0xfef
	.long	.LASF1848
	.byte	0x5
	.uleb128 0xff2
	.long	.LASF1849
	.byte	0x5
	.uleb128 0xff5
	.long	.LASF1850
	.byte	0x5
	.uleb128 0x2fac
	.long	.LASF1851
	.byte	0x5
	.uleb128 0x2fad
	.long	.LASF1852
	.byte	0x5
	.uleb128 0x2fae
	.long	.LASF1853
	.byte	0x5
	.uleb128 0x2faf
	.long	.LASF1854
	.byte	0x5
	.uleb128 0x2fb0
	.long	.LASF1855
	.byte	0x5
	.uleb128 0x2fb1
	.long	.LASF1856
	.byte	0x5
	.uleb128 0x2fb2
	.long	.LASF1857
	.byte	0x5
	.uleb128 0x2fb3
	.long	.LASF1858
	.byte	0x5
	.uleb128 0x2fb4
	.long	.LASF1859
	.byte	0x6
	.uleb128 0x3f14
	.long	.LASF1860
	.byte	0x5
	.uleb128 0x3f15
	.long	.LASF1861
	.byte	0x6
	.uleb128 0x3f5c
	.long	.LASF1860
	.byte	0x5
	.uleb128 0x3f5d
	.long	.LASF1862
	.byte	0x6
	.uleb128 0x3fa8
	.long	.LASF1860
	.byte	0x5
	.uleb128 0x3fa9
	.long	.LASF1863
	.byte	0x6
	.uleb128 0x3fd2
	.long	.LASF1860
	.byte	0x5
	.uleb128 0x3fd3
	.long	.LASF1864
	.byte	0x6
	.uleb128 0x3ffe
	.long	.LASF1860
	.byte	0x5
	.uleb128 0x3fff
	.long	.LASF1865
	.byte	0x6
	.uleb128 0x4044
	.long	.LASF1860
	.byte	0x5
	.uleb128 0x4045
	.long	.LASF1866
	.byte	0x6
	.uleb128 0x4090
	.long	.LASF1860
	.byte	0x5
	.uleb128 0x4091
	.long	.LASF1867
	.byte	0x6
	.uleb128 0x40b8
	.long	.LASF1860
	.byte	0x5
	.uleb128 0x40b9
	.long	.LASF1868
	.byte	0x6
	.uleb128 0x40e2
	.long	.LASF1860
	.byte	0
	.section	.debug_macro,"G",@progbits,wm4.avx512erintrin.h.29.041b85ff27432b6ff4caa85e7a9ccc2f,comdat
.Ldebug_macro84:
	.value	0x5
	.byte	0
	.byte	0x5
	.uleb128 0x1d
	.long	.LASF1869
	.byte	0x6
	.uleb128 0x22
	.long	.LASF1463
	.byte	0x6
	.uleb128 0x22
	.long	.LASF1670
	.byte	0x5
	.uleb128 0x22
	.long	.LASF460
	.byte	0x5
	.uleb128 0x22
	.long	.LASF1870
	.byte	0x5
	.uleb128 0x22
	.long	.LASF517
	.byte	0x5
	.uleb128 0x22
	.long	.LASF1871
	.byte	0x5
	.uleb128 0x1b9
	.long	.LASF1872
	.byte	0x5
	.uleb128 0x1bc
	.long	.LASF1873
	.byte	0x5
	.uleb128 0x1bf
	.long	.LASF1874
	.byte	0x5
	.uleb128 0x1c2
	.long	.LASF1875
	.byte	0x5
	.uleb128 0x1c5
	.long	.LASF1876
	.byte	0x5
	.uleb128 0x1c8
	.long	.LASF1877
	.byte	0x5
	.uleb128 0x1cb
	.long	.LASF1878
	.byte	0x5
	.uleb128 0x1ce
	.long	.LASF1879
	.byte	0x5
	.uleb128 0x1d1
	.long	.LASF1880
	.byte	0x5
	.uleb128 0x1d4
	.long	.LASF1881
	.byte	0x5
	.uleb128 0x1d7
	.long	.LASF1882
	.byte	0x5
	.uleb128 0x1da
	.long	.LASF1883
	.byte	0x5
	.uleb128 0x1dd
	.long	.LASF1884
	.byte	0x5
	.uleb128 0x1e0
	.long	.LASF1885
	.byte	0x5
	.uleb128 0x1e3
	.long	.LASF1886
	.byte	0x5
	.uleb128 0x1e6
	.long	.LASF1887
	.byte	0x5
	.uleb128 0x1e9
	.long	.LASF1888
	.byte	0x5
	.uleb128 0x1ec
	.long	.LASF1889
	.byte	0x5
	.uleb128 0x1ef
	.long	.LASF1890
	.byte	0x5
	.uleb128 0x1f2
	.long	.LASF1891
	.byte	0x5
	.uleb128 0x1f5
	.long	.LASF1892
	.byte	0x5
	.uleb128 0x1f8
	.long	.LASF1893
	.byte	0x5
	.uleb128 0x1fb
	.long	.LASF1894
	.byte	0x5
	.uleb128 0x1fe
	.long	.LASF1895
	.byte	0x5
	.uleb128 0x201
	.long	.LASF1896
	.byte	0x5
	.uleb128 0x204
	.long	.LASF1897
	.byte	0x5
	.uleb128 0x207
	.long	.LASF1898
	.byte	0x5
	.uleb128 0x20a
	.long	.LASF1899
	.byte	0x5
	.uleb128 0x20d
	.long	.LASF1900
	.byte	0x5
	.uleb128 0x210
	.long	.LASF1901
	.byte	0x6
	.uleb128 0x214
	.long	.LASF1902
	.byte	0x6
	.uleb128 0x216
	.long	.LASF1463
	.byte	0x6
	.uleb128 0x216
	.long	.LASF1903
	.byte	0x6
	.uleb128 0x216
	.long	.LASF1670
	.byte	0x5
	.uleb128 0x216
	.long	.LASF460
	.byte	0x5
	.uleb128 0x216
	.long	.LASF517
	.byte	0
	.section	.debug_macro,"G",@progbits,wm4.avx512pfintrin.h.29.91f5248e837dad529077f3920c72771e,comdat
.Ldebug_macro85:
	.value	0x5
	.byte	0
	.byte	0x5
	.uleb128 0x1d
	.long	.LASF1904
	.byte	0x6
	.uleb128 0x22
	.long	.LASF1463
	.byte	0x6
	.uleb128 0x22
	.long	.LASF1670
	.byte	0x5
	.uleb128 0x22
	.long	.LASF460
	.byte	0x5
	.uleb128 0x22
	.long	.LASF1905
	.byte	0x5
	.uleb128 0x22
	.long	.LASF517
	.byte	0x5
	.uleb128 0x22
	.long	.LASF1906
	.byte	0x6
	.uleb128 0x109
	.long	.LASF1907
	.byte	0x6
	.uleb128 0x10b
	.long	.LASF1463
	.byte	0x6
	.uleb128 0x10b
	.long	.LASF1908
	.byte	0x6
	.uleb128 0x10b
	.long	.LASF1670
	.byte	0x5
	.uleb128 0x10b
	.long	.LASF460
	.byte	0x5
	.uleb128 0x10b
	.long	.LASF517
	.byte	0
	.section	.debug_macro,"G",@progbits,wm4.avx512vlintrin.h.29.d92d36e0aee3f7533221dfbdc27f9173,comdat
.Ldebug_macro86:
	.value	0x5
	.byte	0
	.byte	0x5
	.uleb128 0x1d
	.long	.LASF1910
	.byte	0x6
	.uleb128 0x22
	.long	.LASF1463
	.byte	0x6
	.uleb128 0x22
	.long	.LASF1670
	.byte	0x6
	.uleb128 0x22
	.long	.LASF1826
	.byte	0x5
	.uleb128 0x22
	.long	.LASF460
	.byte	0x5
	.uleb128 0x22
	.long	.LASF517
	.byte	0x5
	.uleb128 0x22
	.long	.LASF1911
	.byte	0x5
	.uleb128 0x3545
	.long	.LASF1912
	.byte	0x5
	.uleb128 0x3546
	.long	.LASF1913
	.byte	0x5
	.uleb128 0x3548
	.long	.LASF1914
	.byte	0x5
	.uleb128 0x354a
	.long	.LASF1915
	.byte	0x5
	.uleb128 0x354c
	.long	.LASF1916
	.byte	0x6
	.uleb128 0x354f
	.long	.LASF1917
	.byte	0x6
	.uleb128 0x3551
	.long	.LASF1463
	.byte	0x6
	.uleb128 0x3551
	.long	.LASF1670
	.byte	0x5
	.uleb128 0x3551
	.long	.LASF460
	.byte	0x5
	.uleb128 0x3551
	.long	.LASF517
	.byte	0x5
	.uleb128 0x3551
	.long	.LASF520
	.byte	0
	.section	.debug_macro,"G",@progbits,wm4.avx512bwintrin.h.29.c7f9699a1d6e4f0d6cee817eccac9ff6,comdat
.Ldebug_macro87:
	.value	0x5
	.byte	0
	.byte	0x5
	.uleb128 0x1d
	.long	.LASF1918
	.byte	0x6
	.uleb128 0x22
	.long	.LASF1463
	.byte	0x6
	.uleb128 0x22
	.long	.LASF1670
	.byte	0x6
	.uleb128 0x22
	.long	.LASF1826
	.byte	0x5
	.uleb128 0x22
	.long	.LASF460
	.byte	0x5
	.uleb128 0x22
	.long	.LASF517
	.byte	0x5
	.uleb128 0x22
	.long	.LASF1919
	.byte	0x6
	.uleb128 0x15e
	.long	.LASF1920
	.byte	0x6
	.uleb128 0x160
	.long	.LASF1463
	.byte	0x6
	.uleb128 0x160
	.long	.LASF1670
	.byte	0x5
	.uleb128 0x160
	.long	.LASF460
	.byte	0x5
	.uleb128 0x160
	.long	.LASF517
	.byte	0x5
	.uleb128 0x160
	.long	.LASF520
	.byte	0
	.section	.debug_macro,"G",@progbits,wm4.avx512dqintrin.h.29.fdfb0b55ea7fe73c490e31e8881d5257,comdat
.Ldebug_macro88:
	.value	0x5
	.byte	0
	.byte	0x5
	.uleb128 0x1d
	.long	.LASF1921
	.byte	0x6
	.uleb128 0x22
	.long	.LASF1463
	.byte	0x6
	.uleb128 0x22
	.long	.LASF1670
	.byte	0x6
	.uleb128 0x22
	.long	.LASF1826
	.byte	0x5
	.uleb128 0x22
	.long	.LASF460
	.byte	0x5
	.uleb128 0x22
	.long	.LASF517
	.byte	0x5
	.uleb128 0x22
	.long	.LASF1922
	.byte	0x6
	.uleb128 0x283
	.long	.LASF1923
	.byte	0x6
	.uleb128 0x285
	.long	.LASF1463
	.byte	0x6
	.uleb128 0x285
	.long	.LASF1670
	.byte	0x5
	.uleb128 0x285
	.long	.LASF460
	.byte	0x5
	.uleb128 0x285
	.long	.LASF517
	.byte	0x5
	.uleb128 0x285
	.long	.LASF520
	.byte	0
	.section	.debug_macro,"G",@progbits,wm4.avx512vlbwintrin.h.29.2663f8cdc02a38d27e7c9be1de70b828,comdat
.Ldebug_macro89:
	.value	0x5
	.byte	0
	.byte	0x5
	.uleb128 0x1d
	.long	.LASF1924
	.byte	0x6
	.uleb128 0x22
	.long	.LASF1463
	.byte	0x6
	.uleb128 0x22
	.long	.LASF1670
	.byte	0x6
	.uleb128 0x22
	.long	.LASF1826
	.byte	0x5
	.uleb128 0x22
	.long	.LASF460
	.byte	0x5
	.uleb128 0x22
	.long	.LASF517
	.byte	0x5
	.uleb128 0x22
	.long	.LASF1925
	.byte	0x5
	.uleb128 0xef
	.long	.LASF1926
	.byte	0x5
	.uleb128 0xfb
	.long	.LASF1927
	.byte	0x5
	.uleb128 0x10a
	.long	.LASF1928
	.byte	0x5
	.uleb128 0x11c
	.long	.LASF1929
	.byte	0x6
	.uleb128 0x147c
	.long	.LASF1930
	.byte	0x6
	.uleb128 0x147e
	.long	.LASF1463
	.byte	0x6
	.uleb128 0x147e
	.long	.LASF1670
	.byte	0x5
	.uleb128 0x147e
	.long	.LASF460
	.byte	0x5
	.uleb128 0x147e
	.long	.LASF517
	.byte	0x5
	.uleb128 0x147e
	.long	.LASF520
	.byte	0
	.section	.debug_macro,"G",@progbits,wm4.avx512vldqintrin.h.29.2ec265e4225b52f29e3b9c4582d1b229,comdat
.Ldebug_macro90:
	.value	0x5
	.byte	0
	.byte	0x5
	.uleb128 0x1d
	.long	.LASF1931
	.byte	0x6
	.uleb128 0x22
	.long	.LASF1463
	.byte	0x6
	.uleb128 0x22
	.long	.LASF1670
	.byte	0x6
	.uleb128 0x22
	.long	.LASF1826
	.byte	0x5
	.uleb128 0x22
	.long	.LASF460
	.byte	0x5
	.uleb128 0x22
	.long	.LASF517
	.byte	0x5
	.uleb128 0x22
	.long	.LASF1932
	.byte	0x6
	.uleb128 0x7dc
	.long	.LASF1933
	.byte	0x6
	.uleb128 0x7de
	.long	.LASF1463
	.byte	0x6
	.uleb128 0x7de
	.long	.LASF1670
	.byte	0x5
	.uleb128 0x7de
	.long	.LASF460
	.byte	0x5
	.uleb128 0x7de
	.long	.LASF517
	.byte	0x5
	.uleb128 0x7de
	.long	.LASF520
	.byte	0
	.section	.debug_macro,"G",@progbits,wm4.avx512ifmavlintrin.h.29.d496f88f191b5f51df1de170befdcb52,comdat
.Ldebug_macro91:
	.value	0x5
	.byte	0
	.byte	0x5
	.uleb128 0x1d
	.long	.LASF1935
	.byte	0x6
	.uleb128 0x22
	.long	.LASF1463
	.byte	0x6
	.uleb128 0x22
	.long	.LASF1670
	.byte	0x6
	.uleb128 0x22
	.long	.LASF1826
	.byte	0x5
	.uleb128 0x22
	.long	.LASF460
	.byte	0x5
	.uleb128 0x22
	.long	.LASF517
	.byte	0x5
	.uleb128 0x22
	.long	.LASF1936
	.byte	0x5
	.uleb128 0x25
	.long	.LASF1937
	.byte	0x5
	.uleb128 0x2a
	.long	.LASF1938
	.byte	0x5
	.uleb128 0x2f
	.long	.LASF1939
	.byte	0x5
	.uleb128 0x35
	.long	.LASF1940
	.byte	0x6
	.uleb128 0x8d
	.long	.LASF1941
	.byte	0x6
	.uleb128 0x8f
	.long	.LASF1463
	.byte	0x6
	.uleb128 0x8f
	.long	.LASF1670
	.byte	0x5
	.uleb128 0x8f
	.long	.LASF460
	.byte	0x5
	.uleb128 0x8f
	.long	.LASF517
	.byte	0x5
	.uleb128 0x8f
	.long	.LASF520
	.byte	0
	.section	.debug_macro,"G",@progbits,wm4.avx512vbmivlintrin.h.29.1062d0fcb30a783ad3e71ee68ee80363,comdat
.Ldebug_macro92:
	.value	0x5
	.byte	0
	.byte	0x5
	.uleb128 0x1d
	.long	.LASF1943
	.byte	0x6
	.uleb128 0x22
	.long	.LASF1463
	.byte	0x6
	.uleb128 0x22
	.long	.LASF1670
	.byte	0x6
	.uleb128 0x22
	.long	.LASF1826
	.byte	0x5
	.uleb128 0x22
	.long	.LASF460
	.byte	0x5
	.uleb128 0x22
	.long	.LASF517
	.byte	0x5
	.uleb128 0x22
	.long	.LASF1944
	.byte	0x6
	.uleb128 0x10d
	.long	.LASF1945
	.byte	0x6
	.uleb128 0x10f
	.long	.LASF1463
	.byte	0x6
	.uleb128 0x10f
	.long	.LASF1670
	.byte	0x5
	.uleb128 0x10f
	.long	.LASF460
	.byte	0x5
	.uleb128 0x10f
	.long	.LASF517
	.byte	0x5
	.uleb128 0x10f
	.long	.LASF520
	.byte	0
	.section	.debug_macro,"G",@progbits,wm4.avx5124fmapsintrin.h.29.17e4516cb67c92b4ff14eab247e088c1,comdat
.Ldebug_macro93:
	.value	0x5
	.byte	0
	.byte	0x5
	.uleb128 0x1d
	.long	.LASF1946
	.byte	0x6
	.uleb128 0x22
	.long	.LASF1463
	.byte	0x6
	.uleb128 0x22
	.long	.LASF1670
	.byte	0x5
	.uleb128 0x22
	.long	.LASF460
	.byte	0x5
	.uleb128 0x22
	.long	.LASF1947
	.byte	0x5
	.uleb128 0x22
	.long	.LASF517
	.byte	0x5
	.uleb128 0x22
	.long	.LASF1948
	.byte	0x6
	.uleb128 0xd4
	.long	.LASF1949
	.byte	0x6
	.uleb128 0xd6
	.long	.LASF1463
	.byte	0x6
	.uleb128 0xd6
	.long	.LASF1950
	.byte	0x6
	.uleb128 0xd6
	.long	.LASF1670
	.byte	0x5
	.uleb128 0xd6
	.long	.LASF460
	.byte	0x5
	.uleb128 0xd6
	.long	.LASF517
	.byte	0
	.section	.debug_macro,"G",@progbits,wm4.avx5124vnniwintrin.h.29.d47056dc917da00e28a979e3004b7495,comdat
.Ldebug_macro94:
	.value	0x5
	.byte	0
	.byte	0x5
	.uleb128 0x1d
	.long	.LASF1951
	.byte	0x6
	.uleb128 0x22
	.long	.LASF1463
	.byte	0x6
	.uleb128 0x22
	.long	.LASF1670
	.byte	0x5
	.uleb128 0x22
	.long	.LASF460
	.byte	0x5
	.uleb128 0x22
	.long	.LASF1952
	.byte	0x5
	.uleb128 0x22
	.long	.LASF517
	.byte	0x5
	.uleb128 0x22
	.long	.LASF1953
	.byte	0x6
	.uleb128 0x80
	.long	.LASF1954
	.byte	0x6
	.uleb128 0x82
	.long	.LASF1463
	.byte	0x6
	.uleb128 0x82
	.long	.LASF1955
	.byte	0x6
	.uleb128 0x82
	.long	.LASF1670
	.byte	0x5
	.uleb128 0x82
	.long	.LASF460
	.byte	0x5
	.uleb128 0x82
	.long	.LASF517
	.byte	0
	.section	.debug_macro,"G",@progbits,wm4.avx512vbmi2vlintrin.h.29.cf3f3aacc11561edf12e7194724a0fd2,comdat
.Ldebug_macro95:
	.value	0x5
	.byte	0
	.byte	0x5
	.uleb128 0x1d
	.long	.LASF1958
	.byte	0x6
	.uleb128 0x22
	.long	.LASF1463
	.byte	0x6
	.uleb128 0x22
	.long	.LASF1670
	.byte	0x6
	.uleb128 0x22
	.long	.LASF1826
	.byte	0x5
	.uleb128 0x22
	.long	.LASF460
	.byte	0x5
	.uleb128 0x22
	.long	.LASF517
	.byte	0x5
	.uleb128 0x22
	.long	.LASF1959
	.byte	0x6
	.uleb128 0x3fa
	.long	.LASF1960
	.byte	0x6
	.uleb128 0x3fc
	.long	.LASF1463
	.byte	0x6
	.uleb128 0x3fc
	.long	.LASF1670
	.byte	0x5
	.uleb128 0x3fc
	.long	.LASF460
	.byte	0x5
	.uleb128 0x3fc
	.long	.LASF517
	.byte	0x5
	.uleb128 0x3fc
	.long	.LASF520
	.byte	0
	.section	.debug_macro,"G",@progbits,wm4.avx512vnnivlintrin.h.29.a370e467a0aa984d40ad9b55e1c6f51e,comdat
.Ldebug_macro96:
	.value	0x5
	.byte	0
	.byte	0x5
	.uleb128 0x1d
	.long	.LASF1962
	.byte	0x6
	.uleb128 0x22
	.long	.LASF1463
	.byte	0x6
	.uleb128 0x22
	.long	.LASF1670
	.byte	0x6
	.uleb128 0x22
	.long	.LASF1826
	.byte	0x5
	.uleb128 0x22
	.long	.LASF460
	.byte	0x5
	.uleb128 0x22
	.long	.LASF517
	.byte	0x5
	.uleb128 0x22
	.long	.LASF1963
	.byte	0x5
	.uleb128 0x25
	.long	.LASF1964
	.byte	0x5
	.uleb128 0x3a
	.long	.LASF1965
	.byte	0x5
	.uleb128 0x4f
	.long	.LASF1966
	.byte	0x5
	.uleb128 0x65
	.long	.LASF1967
	.byte	0x5
	.uleb128 0x7a
	.long	.LASF1968
	.byte	0x5
	.uleb128 0x8f
	.long	.LASF1969
	.byte	0x5
	.uleb128 0xa4
	.long	.LASF1970
	.byte	0x5
	.uleb128 0xba
	.long	.LASF1971
	.byte	0x6
	.uleb128 0xcf
	.long	.LASF1972
	.byte	0x6
	.uleb128 0xd1
	.long	.LASF1463
	.byte	0x6
	.uleb128 0xd1
	.long	.LASF1670
	.byte	0x5
	.uleb128 0xd1
	.long	.LASF460
	.byte	0x5
	.uleb128 0xd1
	.long	.LASF517
	.byte	0x5
	.uleb128 0xd1
	.long	.LASF520
	.byte	0
	.section	.debug_macro,"G",@progbits,wm4.avx512vpopcntdqvlintrin.h.29.1f69ca082558dcf92555f07e0e4e7c1d,comdat
.Ldebug_macro97:
	.value	0x5
	.byte	0
	.byte	0x5
	.uleb128 0x1d
	.long	.LASF1973
	.byte	0x6
	.uleb128 0x23
	.long	.LASF1463
	.byte	0x6
	.uleb128 0x23
	.long	.LASF1670
	.byte	0x6
	.uleb128 0x23
	.long	.LASF1826
	.byte	0x5
	.uleb128 0x23
	.long	.LASF460
	.byte	0x5
	.uleb128 0x23
	.long	.LASF517
	.byte	0x5
	.uleb128 0x23
	.long	.LASF1974
	.byte	0x6
	.uleb128 0x8f
	.long	.LASF1975
	.byte	0x6
	.uleb128 0x91
	.long	.LASF1463
	.byte	0x6
	.uleb128 0x91
	.long	.LASF1670
	.byte	0x5
	.uleb128 0x91
	.long	.LASF460
	.byte	0x5
	.uleb128 0x91
	.long	.LASF517
	.byte	0x5
	.uleb128 0x91
	.long	.LASF520
	.byte	0
	.section	.debug_macro,"G",@progbits,wm4.avx512bitalgvlintrin.h.29.fb4cc8d7d15d9aed127cf80fbc2ca3d8,comdat
.Ldebug_macro98:
	.value	0x5
	.byte	0
	.byte	0x5
	.uleb128 0x1d
	.long	.LASF1977
	.byte	0x6
	.uleb128 0x22
	.long	.LASF1463
	.byte	0x6
	.uleb128 0x22
	.long	.LASF1670
	.byte	0x6
	.uleb128 0x22
	.long	.LASF1826
	.byte	0x5
	.uleb128 0x22
	.long	.LASF460
	.byte	0x5
	.uleb128 0x22
	.long	.LASF517
	.byte	0x5
	.uleb128 0x22
	.long	.LASF1978
	.byte	0x6
	.uleb128 0xb0
	.long	.LASF1979
	.byte	0x6
	.uleb128 0xb2
	.long	.LASF1463
	.byte	0x6
	.uleb128 0xb2
	.long	.LASF1670
	.byte	0x5
	.uleb128 0xb2
	.long	.LASF460
	.byte	0x5
	.uleb128 0xb2
	.long	.LASF517
	.byte	0x5
	.uleb128 0xb2
	.long	.LASF520
	.byte	0
	.section	.debug_macro,"G",@progbits,wm4.avx512vp2intersectintrin.h.29.b9e0f121bca5596e258d658c9eb6c528,comdat
.Ldebug_macro99:
	.value	0x5
	.byte	0
	.byte	0x5
	.uleb128 0x1d
	.long	.LASF1980
	.byte	0x6
	.uleb128 0x22
	.long	.LASF1463
	.byte	0x6
	.uleb128 0x22
	.long	.LASF1670
	.byte	0x5
	.uleb128 0x22
	.long	.LASF460
	.byte	0x5
	.uleb128 0x22
	.long	.LASF1981
	.byte	0x5
	.uleb128 0x22
	.long	.LASF517
	.byte	0x5
	.uleb128 0x22
	.long	.LASF1982
	.byte	0x6
	.uleb128 0x36
	.long	.LASF1983
	.byte	0x6
	.uleb128 0x38
	.long	.LASF1463
	.byte	0x6
	.uleb128 0x38
	.long	.LASF1984
	.byte	0x6
	.uleb128 0x38
	.long	.LASF1670
	.byte	0x5
	.uleb128 0x38
	.long	.LASF460
	.byte	0x5
	.uleb128 0x38
	.long	.LASF517
	.byte	0
	.section	.debug_macro,"G",@progbits,wm4.avx512vp2intersectvlintrin.h.29.1dae10b68f6acc4ae6a7ccd31ca9a079,comdat
.Ldebug_macro100:
	.value	0x5
	.byte	0
	.byte	0x5
	.uleb128 0x1d
	.long	.LASF1985
	.byte	0x6
	.uleb128 0x23
	.long	.LASF1463
	.byte	0x6
	.uleb128 0x23
	.long	.LASF1670
	.byte	0x6
	.uleb128 0x23
	.long	.LASF1826
	.byte	0x5
	.uleb128 0x23
	.long	.LASF460
	.byte	0x5
	.uleb128 0x23
	.long	.LASF1981
	.byte	0x5
	.uleb128 0x23
	.long	.LASF517
	.byte	0x5
	.uleb128 0x23
	.long	.LASF1986
	.byte	0x6
	.uleb128 0x45
	.long	.LASF1987
	.byte	0x6
	.uleb128 0x47
	.long	.LASF1463
	.byte	0x6
	.uleb128 0x47
	.long	.LASF1984
	.byte	0x6
	.uleb128 0x47
	.long	.LASF1670
	.byte	0x5
	.uleb128 0x47
	.long	.LASF460
	.byte	0x5
	.uleb128 0x47
	.long	.LASF517
	.byte	0x5
	.uleb128 0x47
	.long	.LASF520
	.byte	0
	.section	.debug_macro,"G",@progbits,wm4.avx512fp16intrin.h.29.41bef4c7eff1d4225fff60e881106848,comdat
.Ldebug_macro101:
	.value	0x5
	.byte	0
	.byte	0x5
	.uleb128 0x1d
	.long	.LASF1988
	.byte	0x6
	.uleb128 0x22
	.long	.LASF1463
	.byte	0x6
	.uleb128 0x22
	.long	.LASF1670
	.byte	0x6
	.uleb128 0x22
	.long	.LASF1826
	.byte	0x5
	.uleb128 0x22
	.long	.LASF460
	.byte	0x5
	.uleb128 0x22
	.long	.LASF1989
	.byte	0x5
	.uleb128 0x22
	.long	.LASF517
	.byte	0x5
	.uleb128 0x22
	.long	.LASF1990
	.byte	0x5
	.uleb128 0xb15
	.long	.LASF1991
	.byte	0x5
	.uleb128 0xb16
	.long	.LASF1992
	.byte	0x5
	.uleb128 0xb17
	.long	.LASF1993
	.byte	0x5
	.uleb128 0xb18
	.long	.LASF1994
	.byte	0x5
	.uleb128 0xb19
	.long	.LASF1995
	.byte	0x5
	.uleb128 0xb1b
	.long	.LASF1996
	.byte	0x5
	.uleb128 0xb1e
	.long	.LASF1997
	.byte	0x5
	.uleb128 0xb1f
	.long	.LASF1998
	.byte	0x5
	.uleb128 0xb20
	.long	.LASF1999
	.byte	0x5
	.uleb128 0xb21
	.long	.LASF2000
	.byte	0x5
	.uleb128 0xb22
	.long	.LASF2001
	.byte	0x5
	.uleb128 0xb24
	.long	.LASF2002
	.byte	0x6
	.uleb128 0xb28
	.long	.LASF2003
	.byte	0x6
	.uleb128 0xb2a
	.long	.LASF1463
	.byte	0x6
	.uleb128 0xb2a
	.long	.LASF2004
	.byte	0x6
	.uleb128 0xb2a
	.long	.LASF1670
	.byte	0x5
	.uleb128 0xb2a
	.long	.LASF460
	.byte	0x5
	.uleb128 0xb2a
	.long	.LASF517
	.byte	0x5
	.uleb128 0xb2a
	.long	.LASF520
	.byte	0x6
	.uleb128 0xb2f
	.long	.LASF1463
	.byte	0x6
	.uleb128 0xb2f
	.long	.LASF1670
	.byte	0x5
	.uleb128 0xb2f
	.long	.LASF460
	.byte	0x5
	.uleb128 0xb2f
	.long	.LASF1989
	.byte	0x5
	.uleb128 0xb2f
	.long	.LASF517
	.byte	0x5
	.uleb128 0xb2f
	.long	.LASF2005
	.byte	0x5
	.uleb128 0xde1
	.long	.LASF2006
	.byte	0x5
	.uleb128 0xde4
	.long	.LASF2007
	.byte	0x5
	.uleb128 0xde7
	.long	.LASF2008
	.byte	0x5
	.uleb128 0xdea
	.long	.LASF2009
	.byte	0x5
	.uleb128 0x1ba6
	.long	.LASF2010
	.byte	0x6
	.uleb128 0x1bc4
	.long	.LASF2011
	.byte	0x5
	.uleb128 0x1bc8
	.long	.LASF2012
	.byte	0x6
	.uleb128 0x1c06
	.long	.LASF2011
	.byte	0x5
	.uleb128 0x1c35
	.long	.LASF2013
	.byte	0x5
	.uleb128 0x1c36
	.long	.LASF2014
	.byte	0x5
	.uleb128 0x1c38
	.long	.LASF2015
	.byte	0x5
	.uleb128 0x1c39
	.long	.LASF2016
	.byte	0x5
	.uleb128 0x1c3a
	.long	.LASF2017
	.byte	0x5
	.uleb128 0x1c3c
	.long	.LASF2018
	.byte	0x5
	.uleb128 0x1c3f
	.long	.LASF2019
	.byte	0x5
	.uleb128 0x1c40
	.long	.LASF2020
	.byte	0x5
	.uleb128 0x1c42
	.long	.LASF2021
	.byte	0x5
	.uleb128 0x1c43
	.long	.LASF2022
	.byte	0x5
	.uleb128 0x1c44
	.long	.LASF2023
	.byte	0x5
	.uleb128 0x1c46
	.long	.LASF2024
	.byte	0x6
	.uleb128 0x1c4a
	.long	.LASF2025
	.byte	0x6
	.uleb128 0x1c4c
	.long	.LASF1463
	.byte	0x6
	.uleb128 0x1c4c
	.long	.LASF2004
	.byte	0x6
	.uleb128 0x1c4c
	.long	.LASF1670
	.byte	0x5
	.uleb128 0x1c4c
	.long	.LASF460
	.byte	0x5
	.uleb128 0x1c4c
	.long	.LASF517
	.byte	0
	.section	.debug_macro,"G",@progbits,wm4.avx512fp16vlintrin.h.29.6fbe8dfde9725a21f909d21f50ff3d2c,comdat
.Ldebug_macro102:
	.value	0x5
	.byte	0
	.byte	0x5
	.uleb128 0x1d
	.long	.LASF2026
	.byte	0x6
	.uleb128 0x22
	.long	.LASF1463
	.byte	0x6
	.uleb128 0x22
	.long	.LASF1670
	.byte	0x6
	.uleb128 0x22
	.long	.LASF1826
	.byte	0x5
	.uleb128 0x22
	.long	.LASF460
	.byte	0x5
	.uleb128 0x22
	.long	.LASF1989
	.byte	0x5
	.uleb128 0x22
	.long	.LASF517
	.byte	0x5
	.uleb128 0x22
	.long	.LASF2027
	.byte	0x5
	.uleb128 0x22f
	.long	.LASF2028
	.byte	0x5
	.uleb128 0x232
	.long	.LASF2029
	.byte	0x5
	.uleb128 0x235
	.long	.LASF2030
	.byte	0x5
	.uleb128 0x238
	.long	.LASF2031
	.byte	0x5
	.uleb128 0xc65
	.long	.LASF2032
	.byte	0x6
	.uleb128 0xc7f
	.long	.LASF2033
	.byte	0x5
	.uleb128 0xc80
	.long	.LASF2034
	.byte	0x5
	.uleb128 0xc9b
	.long	.LASF2035
	.byte	0x6
	.uleb128 0xcb2
	.long	.LASF2036
	.byte	0x5
	.uleb128 0xcb3
	.long	.LASF2037
	.byte	0x6
	.uleb128 0xccb
	.long	.LASF2033
	.byte	0x6
	.uleb128 0xccc
	.long	.LASF2036
	.byte	0x5
	.uleb128 0xd27
	.long	.LASF2038
	.byte	0x5
	.uleb128 0xd28
	.long	.LASF2039
	.byte	0x5
	.uleb128 0xd29
	.long	.LASF2040
	.byte	0x5
	.uleb128 0xd2a
	.long	.LASF2041
	.byte	0x5
	.uleb128 0xd2b
	.long	.LASF2042
	.byte	0x5
	.uleb128 0xd2d
	.long	.LASF2043
	.byte	0x5
	.uleb128 0xd2f
	.long	.LASF2044
	.byte	0x5
	.uleb128 0xd30
	.long	.LASF2045
	.byte	0x5
	.uleb128 0xd31
	.long	.LASF2046
	.byte	0x5
	.uleb128 0xd32
	.long	.LASF2047
	.byte	0x5
	.uleb128 0xd33
	.long	.LASF2048
	.byte	0x5
	.uleb128 0xd35
	.long	.LASF2049
	.byte	0x6
	.uleb128 0xd38
	.long	.LASF2050
	.byte	0x6
	.uleb128 0xd3a
	.long	.LASF1463
	.byte	0x6
	.uleb128 0xd3a
	.long	.LASF2004
	.byte	0x6
	.uleb128 0xd3a
	.long	.LASF1670
	.byte	0x5
	.uleb128 0xd3a
	.long	.LASF460
	.byte	0x5
	.uleb128 0xd3a
	.long	.LASF517
	.byte	0x5
	.uleb128 0xd3a
	.long	.LASF520
	.byte	0
	.section	.debug_macro,"G",@progbits,wm4.sm3intrin.h.29.b727787ee39f39e433163148f0c60d9a,comdat
.Ldebug_macro103:
	.value	0x5
	.byte	0
	.byte	0x5
	.uleb128 0x1d
	.long	.LASF2052
	.byte	0x6
	.uleb128 0x22
	.long	.LASF1463
	.byte	0x6
	.uleb128 0x22
	.long	.LASF1670
	.byte	0x5
	.uleb128 0x22
	.long	.LASF460
	.byte	0x5
	.uleb128 0x22
	.long	.LASF517
	.byte	0x5
	.uleb128 0x22
	.long	.LASF2053
	.byte	0x5
	.uleb128 0x22
	.long	.LASF2054
	.byte	0x6
	.uleb128 0x44
	.long	.LASF2055
	.byte	0x6
	.uleb128 0x46
	.long	.LASF1463
	.byte	0x6
	.uleb128 0x46
	.long	.LASF1670
	.byte	0x6
	.uleb128 0x46
	.long	.LASF2056
	.byte	0x5
	.uleb128 0x46
	.long	.LASF460
	.byte	0x5
	.uleb128 0x46
	.long	.LASF517
	.byte	0
	.section	.debug_macro,"G",@progbits,wm4.sha512intrin.h.29.4cf03ee4a90c7ab3b9ff149bd1f34b7c,comdat
.Ldebug_macro104:
	.value	0x5
	.byte	0
	.byte	0x5
	.uleb128 0x1d
	.long	.LASF2057
	.byte	0x6
	.uleb128 0x22
	.long	.LASF1463
	.byte	0x6
	.uleb128 0x22
	.long	.LASF1670
	.byte	0x5
	.uleb128 0x22
	.long	.LASF460
	.byte	0x5
	.uleb128 0x22
	.long	.LASF517
	.byte	0x5
	.uleb128 0x22
	.long	.LASF2058
	.byte	0x5
	.uleb128 0x22
	.long	.LASF2059
	.byte	0x6
	.uleb128 0x3c
	.long	.LASF2060
	.byte	0x6
	.uleb128 0x3e
	.long	.LASF1463
	.byte	0x6
	.uleb128 0x3e
	.long	.LASF1670
	.byte	0x6
	.uleb128 0x3e
	.long	.LASF2061
	.byte	0x5
	.uleb128 0x3e
	.long	.LASF460
	.byte	0x5
	.uleb128 0x3e
	.long	.LASF517
	.byte	0
	.section	.debug_macro,"G",@progbits,wm4.sm4intrin.h.29.f335f52527897e541dc183562387a60d,comdat
.Ldebug_macro105:
	.value	0x5
	.byte	0
	.byte	0x5
	.uleb128 0x1d
	.long	.LASF2062
	.byte	0x6
	.uleb128 0x22
	.long	.LASF1463
	.byte	0x6
	.uleb128 0x22
	.long	.LASF1670
	.byte	0x5
	.uleb128 0x22
	.long	.LASF460
	.byte	0x5
	.uleb128 0x22
	.long	.LASF517
	.byte	0x5
	.uleb128 0x22
	.long	.LASF2063
	.byte	0x5
	.uleb128 0x22
	.long	.LASF2064
	.byte	0x6
	.uleb128 0x42
	.long	.LASF2065
	.byte	0x6
	.uleb128 0x44
	.long	.LASF1463
	.byte	0x6
	.uleb128 0x44
	.long	.LASF1670
	.byte	0x6
	.uleb128 0x44
	.long	.LASF2066
	.byte	0x5
	.uleb128 0x44
	.long	.LASF460
	.byte	0x5
	.uleb128 0x44
	.long	.LASF517
	.byte	0
	.section	.debug_macro,"G",@progbits,wm4.avx512bf16vlintrin.h.29.cbbf034ad1c84e9b0cbf2a31a14d77ad,comdat
.Ldebug_macro106:
	.value	0x5
	.byte	0
	.byte	0x5
	.uleb128 0x1d
	.long	.LASF2072
	.byte	0x6
	.uleb128 0x22
	.long	.LASF1463
	.byte	0x6
	.uleb128 0x22
	.long	.LASF1670
	.byte	0x6
	.uleb128 0x22
	.long	.LASF1826
	.byte	0x5
	.uleb128 0x22
	.long	.LASF460
	.byte	0x5
	.uleb128 0x22
	.long	.LASF517
	.byte	0x5
	.uleb128 0x22
	.long	.LASF2073
	.byte	0x5
	.uleb128 0x56
	.long	.LASF2074
	.byte	0x5
	.uleb128 0x58
	.long	.LASF2075
	.byte	0x6
	.uleb128 0x110
	.long	.LASF2076
	.byte	0x6
	.uleb128 0x112
	.long	.LASF1463
	.byte	0x6
	.uleb128 0x112
	.long	.LASF1670
	.byte	0x5
	.uleb128 0x112
	.long	.LASF460
	.byte	0x5
	.uleb128 0x112
	.long	.LASF517
	.byte	0x5
	.uleb128 0x112
	.long	.LASF520
	.byte	0
	.section	.debug_macro,"G",@progbits,wm4.avx512bf16intrin.h.29.675acca7d56c5b625255534c7a844775,comdat
.Ldebug_macro107:
	.value	0x5
	.byte	0
	.byte	0x5
	.uleb128 0x1d
	.long	.LASF2077
	.byte	0x6
	.uleb128 0x22
	.long	.LASF1463
	.byte	0x6
	.uleb128 0x22
	.long	.LASF1670
	.byte	0x6
	.uleb128 0x22
	.long	.LASF1826
	.byte	0x5
	.uleb128 0x22
	.long	.LASF460
	.byte	0x5
	.uleb128 0x22
	.long	.LASF517
	.byte	0x5
	.uleb128 0x22
	.long	.LASF2078
	.byte	0x6
	.uleb128 0x2e
	.long	.LASF2079
	.byte	0x6
	.uleb128 0x30
	.long	.LASF1463
	.byte	0x6
	.uleb128 0x30
	.long	.LASF1670
	.byte	0x5
	.uleb128 0x30
	.long	.LASF460
	.byte	0x5
	.uleb128 0x30
	.long	.LASF517
	.byte	0x5
	.uleb128 0x30
	.long	.LASF520
	.byte	0
	.section	.debug_macro,"G",@progbits,wm4.avxneconvertintrin.h.29.7b1137999f24b414a36f19f4075a9ca6,comdat
.Ldebug_macro108:
	.value	0x5
	.byte	0
	.byte	0x5
	.uleb128 0x1d
	.long	.LASF2080
	.byte	0x6
	.uleb128 0x22
	.long	.LASF1463
	.byte	0x6
	.uleb128 0x22
	.long	.LASF1670
	.byte	0x5
	.uleb128 0x22
	.long	.LASF460
	.byte	0x5
	.uleb128 0x22
	.long	.LASF517
	.byte	0x5
	.uleb128 0x22
	.long	.LASF2081
	.byte	0x5
	.uleb128 0x22
	.long	.LASF2082
	.byte	0x6
	.uleb128 0x88
	.long	.LASF2083
	.byte	0x6
	.uleb128 0x8a
	.long	.LASF1463
	.byte	0x6
	.uleb128 0x8a
	.long	.LASF1670
	.byte	0x6
	.uleb128 0x8a
	.long	.LASF2084
	.byte	0x5
	.uleb128 0x8a
	.long	.LASF460
	.byte	0x5
	.uleb128 0x8a
	.long	.LASF517
	.byte	0
	.section	.debug_macro,"G",@progbits,wm4.amxtileintrin.h.29.c6750cc92f88a6c6e5527497bb610988,comdat
.Ldebug_macro109:
	.value	0x5
	.byte	0
	.byte	0x5
	.uleb128 0x1d
	.long	.LASF2085
	.byte	0x6
	.uleb128 0x22
	.long	.LASF1463
	.byte	0x6
	.uleb128 0x22
	.long	.LASF1670
	.byte	0x5
	.uleb128 0x22
	.long	.LASF460
	.byte	0x5
	.uleb128 0x22
	.long	.LASF517
	.byte	0x5
	.uleb128 0x22
	.long	.LASF2086
	.byte	0x5
	.uleb128 0x22
	.long	.LASF2087
	.byte	0x5
	.uleb128 0x3b
	.long	.LASF2088
	.byte	0x5
	.uleb128 0x3e
	.long	.LASF2089
	.byte	0x5
	.uleb128 0x43
	.long	.LASF2090
	.byte	0x5
	.uleb128 0x46
	.long	.LASF2091
	.byte	0x5
	.uleb128 0x4b
	.long	.LASF2092
	.byte	0x5
	.uleb128 0x4e
	.long	.LASF2093
	.byte	0x5
	.uleb128 0x54
	.long	.LASF2094
	.byte	0x5
	.uleb128 0x57
	.long	.LASF2095
	.byte	0x6
	.uleb128 0x5e
	.long	.LASF2096
	.byte	0x6
	.uleb128 0x60
	.long	.LASF1463
	.byte	0x6
	.uleb128 0x60
	.long	.LASF1670
	.byte	0x6
	.uleb128 0x60
	.long	.LASF2097
	.byte	0x5
	.uleb128 0x60
	.long	.LASF460
	.byte	0x5
	.uleb128 0x60
	.long	.LASF517
	.byte	0
	.section	.debug_macro,"G",@progbits,wm4.amxint8intrin.h.29.5163b6b62968283214ea5bb90f68b735,comdat
.Ldebug_macro110:
	.value	0x5
	.byte	0
	.byte	0x5
	.uleb128 0x1d
	.long	.LASF2098
	.byte	0x6
	.uleb128 0x22
	.long	.LASF1463
	.byte	0x6
	.uleb128 0x22
	.long	.LASF1670
	.byte	0x5
	.uleb128 0x22
	.long	.LASF460
	.byte	0x5
	.uleb128 0x22
	.long	.LASF517
	.byte	0x5
	.uleb128 0x22
	.long	.LASF2086
	.byte	0x5
	.uleb128 0x22
	.long	.LASF2099
	.byte	0x5
	.uleb128 0x22
	.long	.LASF2100
	.byte	0x5
	.uleb128 0x26
	.long	.LASF2101
	.byte	0x5
	.uleb128 0x2c
	.long	.LASF2102
	.byte	0x5
	.uleb128 0x2f
	.long	.LASF2103
	.byte	0x5
	.uleb128 0x32
	.long	.LASF2104
	.byte	0x5
	.uleb128 0x35
	.long	.LASF2105
	.byte	0x6
	.uleb128 0x3b
	.long	.LASF2106
	.byte	0x6
	.uleb128 0x3d
	.long	.LASF1463
	.byte	0x6
	.uleb128 0x3d
	.long	.LASF1670
	.byte	0x6
	.uleb128 0x3d
	.long	.LASF2097
	.byte	0x6
	.uleb128 0x3d
	.long	.LASF2107
	.byte	0x5
	.uleb128 0x3d
	.long	.LASF460
	.byte	0x5
	.uleb128 0x3d
	.long	.LASF517
	.byte	0
	.section	.debug_macro,"G",@progbits,wm4.amxbf16intrin.h.29.8157d2e2c4659b3ab0667558f43bd70f,comdat
.Ldebug_macro111:
	.value	0x5
	.byte	0
	.byte	0x5
	.uleb128 0x1d
	.long	.LASF2108
	.byte	0x6
	.uleb128 0x22
	.long	.LASF1463
	.byte	0x6
	.uleb128 0x22
	.long	.LASF1670
	.byte	0x5
	.uleb128 0x22
	.long	.LASF460
	.byte	0x5
	.uleb128 0x22
	.long	.LASF517
	.byte	0x5
	.uleb128 0x22
	.long	.LASF2086
	.byte	0x5
	.uleb128 0x22
	.long	.LASF2109
	.byte	0x5
	.uleb128 0x22
	.long	.LASF2110
	.byte	0x5
	.uleb128 0x26
	.long	.LASF2111
	.byte	0x5
	.uleb128 0x2c
	.long	.LASF2112
	.byte	0x6
	.uleb128 0x32
	.long	.LASF2113
	.byte	0x6
	.uleb128 0x34
	.long	.LASF1463
	.byte	0x6
	.uleb128 0x34
	.long	.LASF1670
	.byte	0x6
	.uleb128 0x34
	.long	.LASF2097
	.byte	0x6
	.uleb128 0x34
	.long	.LASF2114
	.byte	0x5
	.uleb128 0x34
	.long	.LASF460
	.byte	0x5
	.uleb128 0x34
	.long	.LASF517
	.byte	0
	.section	.debug_macro,"G",@progbits,wm4.amxcomplexintrin.h.29.328b3f490f51e8d09d0b24b80b987c04,comdat
.Ldebug_macro112:
	.value	0x5
	.byte	0
	.byte	0x5
	.uleb128 0x1d
	.long	.LASF2115
	.byte	0x6
	.uleb128 0x22
	.long	.LASF1463
	.byte	0x6
	.uleb128 0x22
	.long	.LASF1670
	.byte	0x5
	.uleb128 0x22
	.long	.LASF460
	.byte	0x5
	.uleb128 0x22
	.long	.LASF517
	.byte	0x5
	.uleb128 0x22
	.long	.LASF2086
	.byte	0x5
	.uleb128 0x22
	.long	.LASF2116
	.byte	0x5
	.uleb128 0x22
	.long	.LASF2117
	.byte	0x5
	.uleb128 0x26
	.long	.LASF2118
	.byte	0x5
	.uleb128 0x2c
	.long	.LASF2119
	.byte	0x5
	.uleb128 0x32
	.long	.LASF2120
	.byte	0x5
	.uleb128 0x35
	.long	.LASF2121
	.byte	0x6
	.uleb128 0x3b
	.long	.LASF2122
	.byte	0x6
	.uleb128 0x3d
	.long	.LASF1463
	.byte	0x6
	.uleb128 0x3d
	.long	.LASF1670
	.byte	0x6
	.uleb128 0x3d
	.long	.LASF2097
	.byte	0x6
	.uleb128 0x3d
	.long	.LASF2123
	.byte	0x5
	.uleb128 0x3d
	.long	.LASF460
	.byte	0x5
	.uleb128 0x3d
	.long	.LASF517
	.byte	0
	.section	.debug_macro,"G",@progbits,wm4.keylockerintrin.h.29.11bfe9f23f1b5bef81e0e4d559e36f94,comdat
.Ldebug_macro113:
	.value	0x5
	.byte	0
	.byte	0x5
	.uleb128 0x1d
	.long	.LASF2125
	.byte	0x6
	.uleb128 0x22
	.long	.LASF1463
	.byte	0x6
	.uleb128 0x22
	.long	.LASF1670
	.byte	0x5
	.uleb128 0x22
	.long	.LASF460
	.byte	0x5
	.uleb128 0x22
	.long	.LASF517
	.byte	0x5
	.uleb128 0x22
	.long	.LASF2126
	.byte	0x5
	.uleb128 0x22
	.long	.LASF2127
	.byte	0x6
	.uleb128 0x58
	.long	.LASF2128
	.byte	0x6
	.uleb128 0x5a
	.long	.LASF1463
	.byte	0x6
	.uleb128 0x5a
	.long	.LASF1670
	.byte	0x6
	.uleb128 0x5a
	.long	.LASF2129
	.byte	0x5
	.uleb128 0x5a
	.long	.LASF460
	.byte	0x5
	.uleb128 0x5a
	.long	.LASF517
	.byte	0x6
	.uleb128 0x5f
	.long	.LASF1463
	.byte	0x6
	.uleb128 0x5f
	.long	.LASF1670
	.byte	0x5
	.uleb128 0x5f
	.long	.LASF460
	.byte	0x5
	.uleb128 0x5f
	.long	.LASF517
	.byte	0x5
	.uleb128 0x5f
	.long	.LASF2126
	.byte	0x5
	.uleb128 0x5f
	.long	.LASF2130
	.byte	0x5
	.uleb128 0x5f
	.long	.LASF2131
	.byte	0x6
	.uleb128 0x7e
	.long	.LASF2132
	.byte	0x6
	.uleb128 0x80
	.long	.LASF1463
	.byte	0x6
	.uleb128 0x80
	.long	.LASF1670
	.byte	0x6
	.uleb128 0x80
	.long	.LASF2129
	.byte	0x6
	.uleb128 0x80
	.long	.LASF2133
	.byte	0x5
	.uleb128 0x80
	.long	.LASF460
	.byte	0x5
	.uleb128 0x80
	.long	.LASF517
	.byte	0
	.section	.debug_macro,"G",@progbits,wm4.amxfp16intrin.h.29.a594b892a9dddf30fa1b1d168a8f72d4,comdat
.Ldebug_macro114:
	.value	0x5
	.byte	0
	.byte	0x5
	.uleb128 0x1d
	.long	.LASF2134
	.byte	0x5
	.uleb128 0x20
	.long	.LASF2135
	.byte	0x5
	.uleb128 0x26
	.long	.LASF2136
	.byte	0
	.section	.debug_macro,"G",@progbits,wm4.stdint.h.4.659be5aa44c4ab4eb7c7cc2b24d8ceee,comdat
.Ldebug_macro115:
	.value	0x5
	.byte	0
	.byte	0x6
	.uleb128 0x4
	.long	.LASF2138
	.byte	0x5
	.uleb128 0x5
	.long	.LASF2139
	.byte	0x6
	.uleb128 0x6
	.long	.LASF2140
	.byte	0x5
	.uleb128 0x7
	.long	.LASF2141
	.byte	0
	.section	.debug_macro,"G",@progbits,wm4.stdint.h.23.022efde71688fcb285fe42cc87d41ee3,comdat
.Ldebug_macro116:
	.value	0x5
	.byte	0
	.byte	0x5
	.uleb128 0x17
	.long	.LASF2142
	.byte	0x5
	.uleb128 0x19
	.long	.LASF1130
	.byte	0
	.section	.debug_macro,"G",@progbits,wm4.wchar.h.20.510818a05484290d697a517509bf4b2d,comdat
.Ldebug_macro117:
	.value	0x5
	.byte	0
	.byte	0x5
	.uleb128 0x14
	.long	.LASF2143
	.byte	0x5
	.uleb128 0x22
	.long	.LASF2144
	.byte	0x5
	.uleb128 0x2a
	.long	.LASF2145
	.byte	0
	.section	.debug_macro,"G",@progbits,wm4.stdint.h.77.03f2a3817bc7187bfc5f7f25ec29f174,comdat
.Ldebug_macro118:
	.value	0x5
	.byte	0
	.byte	0x5
	.uleb128 0x4d
	.long	.LASF2148
	.byte	0x5
	.uleb128 0x5f
	.long	.LASF199
	.byte	0x5
	.uleb128 0x60
	.long	.LASF208
	.byte	0x5
	.uleb128 0x69
	.long	.LASF2149
	.byte	0x5
	.uleb128 0x6a
	.long	.LASF2150
	.byte	0x5
	.uleb128 0x6b
	.long	.LASF2151
	.byte	0x5
	.uleb128 0x6c
	.long	.LASF2152
	.byte	0x5
	.uleb128 0x6e
	.long	.LASF2153
	.byte	0x5
	.uleb128 0x6f
	.long	.LASF2154
	.byte	0x5
	.uleb128 0x70
	.long	.LASF2155
	.byte	0x5
	.uleb128 0x71
	.long	.LASF2156
	.byte	0x5
	.uleb128 0x74
	.long	.LASF2157
	.byte	0x5
	.uleb128 0x75
	.long	.LASF2158
	.byte	0x5
	.uleb128 0x76
	.long	.LASF2159
	.byte	0x5
	.uleb128 0x77
	.long	.LASF2160
	.byte	0x5
	.uleb128 0x7b
	.long	.LASF2161
	.byte	0x5
	.uleb128 0x7c
	.long	.LASF2162
	.byte	0x5
	.uleb128 0x7d
	.long	.LASF2163
	.byte	0x5
	.uleb128 0x7e
	.long	.LASF2164
	.byte	0x5
	.uleb128 0x80
	.long	.LASF2165
	.byte	0x5
	.uleb128 0x81
	.long	.LASF2166
	.byte	0x5
	.uleb128 0x82
	.long	.LASF2167
	.byte	0x5
	.uleb128 0x83
	.long	.LASF2168
	.byte	0x5
	.uleb128 0x86
	.long	.LASF2169
	.byte	0x5
	.uleb128 0x87
	.long	.LASF2170
	.byte	0x5
	.uleb128 0x88
	.long	.LASF2171
	.byte	0x5
	.uleb128 0x89
	.long	.LASF2172
	.byte	0x5
	.uleb128 0x8d
	.long	.LASF2173
	.byte	0x5
	.uleb128 0x8f
	.long	.LASF2174
	.byte	0x5
	.uleb128 0x90
	.long	.LASF2175
	.byte	0x5
	.uleb128 0x95
	.long	.LASF2176
	.byte	0x5
	.uleb128 0x97
	.long	.LASF2177
	.byte	0x5
	.uleb128 0x99
	.long	.LASF2178
	.byte	0x5
	.uleb128 0x9a
	.long	.LASF2179
	.byte	0x5
	.uleb128 0x9f
	.long	.LASF2180
	.byte	0x5
	.uleb128 0xa2
	.long	.LASF2181
	.byte	0x5
	.uleb128 0xa4
	.long	.LASF2182
	.byte	0x5
	.uleb128 0xa5
	.long	.LASF2183
	.byte	0x5
	.uleb128 0xaa
	.long	.LASF2184
	.byte	0x5
	.uleb128 0xaf
	.long	.LASF2185
	.byte	0x5
	.uleb128 0xb0
	.long	.LASF2186
	.byte	0x5
	.uleb128 0xb1
	.long	.LASF2187
	.byte	0x5
	.uleb128 0xba
	.long	.LASF2188
	.byte	0x5
	.uleb128 0xbc
	.long	.LASF2189
	.byte	0x5
	.uleb128 0xbf
	.long	.LASF2190
	.byte	0x5
	.uleb128 0xc6
	.long	.LASF2191
	.byte	0x5
	.uleb128 0xc7
	.long	.LASF2192
	.byte	0x5
	.uleb128 0xd3
	.long	.LASF2193
	.byte	0x5
	.uleb128 0xd4
	.long	.LASF2194
	.byte	0x5
	.uleb128 0xd8
	.long	.LASF2195
	.byte	0x5
	.uleb128 0xe4
	.long	.LASF2196
	.byte	0x5
	.uleb128 0xe5
	.long	.LASF2197
	.byte	0x5
	.uleb128 0xe9
	.long	.LASF2198
	.byte	0x5
	.uleb128 0xea
	.long	.LASF2199
	.byte	0x5
	.uleb128 0xed
	.long	.LASF2200
	.byte	0x5
	.uleb128 0xee
	.long	.LASF2201
	.byte	0x5
	.uleb128 0xef
	.long	.LASF2202
	.byte	0x5
	.uleb128 0xf1
	.long	.LASF2203
	.byte	0x5
	.uleb128 0xf7
	.long	.LASF2204
	.byte	0x5
	.uleb128 0xf8
	.long	.LASF2205
	.byte	0x5
	.uleb128 0xf9
	.long	.LASF2206
	.byte	0x5
	.uleb128 0xfb
	.long	.LASF2207
	.byte	0x5
	.uleb128 0x102
	.long	.LASF2208
	.byte	0x5
	.uleb128 0x103
	.long	.LASF2209
	.byte	0x5
	.uleb128 0x10b
	.long	.LASF2210
	.byte	0x5
	.uleb128 0x10c
	.long	.LASF2211
	.byte	0x5
	.uleb128 0x10d
	.long	.LASF2212
	.byte	0x5
	.uleb128 0x10e
	.long	.LASF2213
	.byte	0x5
	.uleb128 0x10f
	.long	.LASF2214
	.byte	0x5
	.uleb128 0x110
	.long	.LASF2215
	.byte	0x5
	.uleb128 0x111
	.long	.LASF2216
	.byte	0x5
	.uleb128 0x112
	.long	.LASF2217
	.byte	0x5
	.uleb128 0x114
	.long	.LASF2218
	.byte	0x5
	.uleb128 0x115
	.long	.LASF2219
	.byte	0x5
	.uleb128 0x116
	.long	.LASF2220
	.byte	0x5
	.uleb128 0x117
	.long	.LASF2221
	.byte	0x5
	.uleb128 0x118
	.long	.LASF2222
	.byte	0x5
	.uleb128 0x119
	.long	.LASF2223
	.byte	0x5
	.uleb128 0x11a
	.long	.LASF2224
	.byte	0x5
	.uleb128 0x11b
	.long	.LASF2225
	.byte	0x5
	.uleb128 0x11d
	.long	.LASF2226
	.byte	0x5
	.uleb128 0x11e
	.long	.LASF2227
	.byte	0x5
	.uleb128 0x11f
	.long	.LASF2228
	.byte	0x5
	.uleb128 0x120
	.long	.LASF2229
	.byte	0x5
	.uleb128 0x121
	.long	.LASF2230
	.byte	0x5
	.uleb128 0x122
	.long	.LASF2231
	.byte	0x5
	.uleb128 0x123
	.long	.LASF2232
	.byte	0x5
	.uleb128 0x124
	.long	.LASF2233
	.byte	0x5
	.uleb128 0x126
	.long	.LASF2234
	.byte	0x5
	.uleb128 0x127
	.long	.LASF2235
	.byte	0x5
	.uleb128 0x129
	.long	.LASF2236
	.byte	0x5
	.uleb128 0x12a
	.long	.LASF2237
	.byte	0x5
	.uleb128 0x12c
	.long	.LASF2238
	.byte	0x5
	.uleb128 0x12d
	.long	.LASF2239
	.byte	0x5
	.uleb128 0x12e
	.long	.LASF2240
	.byte	0x5
	.uleb128 0x12f
	.long	.LASF2241
	.byte	0x5
	.uleb128 0x130
	.long	.LASF2242
	.byte	0
	.section	.debug_macro,"G",@progbits,wm4.version.h.53.cb4cdcf82d6874f7b6c139f7459ce594,comdat
.Ldebug_macro119:
	.value	0x5
	.byte	0
	.byte	0x5
	.uleb128 0x35
	.long	.LASF2245
	.byte	0x6
	.uleb128 0x3b
	.long	.LASF2246
	.byte	0x5
	.uleb128 0x3f
	.long	.LASF2247
	.byte	0x6
	.uleb128 0x45
	.long	.LASF2248
	.byte	0x5
	.uleb128 0x49
	.long	.LASF2249
	.byte	0x6
	.uleb128 0x4f
	.long	.LASF2250
	.byte	0x5
	.uleb128 0x53
	.long	.LASF2251
	.byte	0x6
	.uleb128 0x59
	.long	.LASF2252
	.byte	0x5
	.uleb128 0x5d
	.long	.LASF2253
	.byte	0x6
	.uleb128 0x63
	.long	.LASF2254
	.byte	0x5
	.uleb128 0x67
	.long	.LASF2255
	.byte	0x6
	.uleb128 0x72
	.long	.LASF2256
	.byte	0x5
	.uleb128 0x76
	.long	.LASF2257
	.byte	0x6
	.uleb128 0x7c
	.long	.LASF2258
	.byte	0x5
	.uleb128 0x80
	.long	.LASF2259
	.byte	0x6
	.uleb128 0x86
	.long	.LASF2260
	.byte	0x5
	.uleb128 0x8a
	.long	.LASF2261
	.byte	0x6
	.uleb128 0x90
	.long	.LASF2262
	.byte	0x5
	.uleb128 0x94
	.long	.LASF2263
	.byte	0x6
	.uleb128 0x9a
	.long	.LASF2264
	.byte	0x5
	.uleb128 0x9e
	.long	.LASF2265
	.byte	0x6
	.uleb128 0xa4
	.long	.LASF2266
	.byte	0x5
	.uleb128 0xa8
	.long	.LASF2267
	.byte	0x6
	.uleb128 0xae
	.long	.LASF2268
	.byte	0x5
	.uleb128 0xb2
	.long	.LASF2269
	.byte	0x6
	.uleb128 0xb8
	.long	.LASF2270
	.byte	0x5
	.uleb128 0xbc
	.long	.LASF2271
	.byte	0x6
	.uleb128 0xc2
	.long	.LASF2272
	.byte	0x5
	.uleb128 0xc6
	.long	.LASF2273
	.byte	0x6
	.uleb128 0xcc
	.long	.LASF2274
	.byte	0x5
	.uleb128 0xd0
	.long	.LASF2275
	.byte	0x6
	.uleb128 0xd6
	.long	.LASF2276
	.byte	0x5
	.uleb128 0xda
	.long	.LASF2277
	.byte	0x6
	.uleb128 0xe0
	.long	.LASF2278
	.byte	0x5
	.uleb128 0xe4
	.long	.LASF2279
	.byte	0x6
	.uleb128 0xea
	.long	.LASF2280
	.byte	0x5
	.uleb128 0xee
	.long	.LASF2281
	.byte	0x6
	.uleb128 0xf4
	.long	.LASF2282
	.byte	0x5
	.uleb128 0xf8
	.long	.LASF2283
	.byte	0x6
	.uleb128 0xfe
	.long	.LASF2284
	.byte	0x5
	.uleb128 0x102
	.long	.LASF2285
	.byte	0x6
	.uleb128 0x108
	.long	.LASF2286
	.byte	0x5
	.uleb128 0x10c
	.long	.LASF2287
	.byte	0x6
	.uleb128 0x112
	.long	.LASF2288
	.byte	0x5
	.uleb128 0x11b
	.long	.LASF2289
	.byte	0x6
	.uleb128 0x121
	.long	.LASF2290
	.byte	0x5
	.uleb128 0x125
	.long	.LASF2291
	.byte	0x6
	.uleb128 0x12b
	.long	.LASF2292
	.byte	0x5
	.uleb128 0x12f
	.long	.LASF2293
	.byte	0x6
	.uleb128 0x135
	.long	.LASF2294
	.byte	0x5
	.uleb128 0x139
	.long	.LASF2295
	.byte	0x6
	.uleb128 0x13f
	.long	.LASF2296
	.byte	0x5
	.uleb128 0x143
	.long	.LASF2297
	.byte	0x6
	.uleb128 0x149
	.long	.LASF2298
	.byte	0x5
	.uleb128 0x14d
	.long	.LASF2299
	.byte	0x6
	.uleb128 0x153
	.long	.LASF2300
	.byte	0x5
	.uleb128 0x157
	.long	.LASF2301
	.byte	0x6
	.uleb128 0x15d
	.long	.LASF2302
	.byte	0x5
	.uleb128 0x161
	.long	.LASF2303
	.byte	0x6
	.uleb128 0x167
	.long	.LASF2304
	.byte	0x5
	.uleb128 0x16b
	.long	.LASF2305
	.byte	0x6
	.uleb128 0x171
	.long	.LASF2306
	.byte	0x5
	.uleb128 0x175
	.long	.LASF2307
	.byte	0x6
	.uleb128 0x17b
	.long	.LASF2308
	.byte	0x5
	.uleb128 0x17f
	.long	.LASF2309
	.byte	0x6
	.uleb128 0x185
	.long	.LASF2310
	.byte	0x5
	.uleb128 0x189
	.long	.LASF2311
	.byte	0x6
	.uleb128 0x18f
	.long	.LASF2312
	.byte	0x5
	.uleb128 0x193
	.long	.LASF2313
	.byte	0x6
	.uleb128 0x199
	.long	.LASF2314
	.byte	0x5
	.uleb128 0x19d
	.long	.LASF2315
	.byte	0x6
	.uleb128 0x1a3
	.long	.LASF2316
	.byte	0x5
	.uleb128 0x1a7
	.long	.LASF2317
	.byte	0x6
	.uleb128 0x1ad
	.long	.LASF2318
	.byte	0x5
	.uleb128 0x1b1
	.long	.LASF2319
	.byte	0x6
	.uleb128 0x1b7
	.long	.LASF2320
	.byte	0x5
	.uleb128 0x1bb
	.long	.LASF2321
	.byte	0x6
	.uleb128 0x1c1
	.long	.LASF2322
	.byte	0x5
	.uleb128 0x1c5
	.long	.LASF2323
	.byte	0x6
	.uleb128 0x1cb
	.long	.LASF2324
	.byte	0x5
	.uleb128 0x1cf
	.long	.LASF2325
	.byte	0x6
	.uleb128 0x1d5
	.long	.LASF2326
	.byte	0x5
	.uleb128 0x1d9
	.long	.LASF2327
	.byte	0x6
	.uleb128 0x1df
	.long	.LASF2328
	.byte	0x5
	.uleb128 0x1e3
	.long	.LASF2329
	.byte	0x6
	.uleb128 0x1e9
	.long	.LASF2330
	.byte	0x5
	.uleb128 0x1ed
	.long	.LASF2331
	.byte	0x6
	.uleb128 0x1f3
	.long	.LASF2332
	.byte	0x5
	.uleb128 0x1f7
	.long	.LASF2333
	.byte	0x6
	.uleb128 0x1fd
	.long	.LASF2334
	.byte	0x5
	.uleb128 0x201
	.long	.LASF2335
	.byte	0x6
	.uleb128 0x207
	.long	.LASF2336
	.byte	0x5
	.uleb128 0x20b
	.long	.LASF2337
	.byte	0x6
	.uleb128 0x211
	.long	.LASF2338
	.byte	0x5
	.uleb128 0x215
	.long	.LASF2339
	.byte	0x6
	.uleb128 0x220
	.long	.LASF2340
	.byte	0x5
	.uleb128 0x224
	.long	.LASF2341
	.byte	0x6
	.uleb128 0x22a
	.long	.LASF2342
	.byte	0x5
	.uleb128 0x22e
	.long	.LASF2343
	.byte	0x6
	.uleb128 0x234
	.long	.LASF2344
	.byte	0x5
	.uleb128 0x238
	.long	.LASF2345
	.byte	0x6
	.uleb128 0x23e
	.long	.LASF2346
	.byte	0x5
	.uleb128 0x242
	.long	.LASF2347
	.byte	0x6
	.uleb128 0x248
	.long	.LASF2348
	.byte	0x5
	.uleb128 0x24c
	.long	.LASF2349
	.byte	0x6
	.uleb128 0x257
	.long	.LASF2350
	.byte	0x5
	.uleb128 0x25b
	.long	.LASF2351
	.byte	0x6
	.uleb128 0x261
	.long	.LASF2352
	.byte	0x5
	.uleb128 0x265
	.long	.LASF2353
	.byte	0x6
	.uleb128 0x26b
	.long	.LASF2354
	.byte	0x5
	.uleb128 0x26f
	.long	.LASF2355
	.byte	0x6
	.uleb128 0x275
	.long	.LASF2356
	.byte	0x5
	.uleb128 0x279
	.long	.LASF2357
	.byte	0x6
	.uleb128 0x27f
	.long	.LASF2358
	.byte	0x5
	.uleb128 0x283
	.long	.LASF2359
	.byte	0x6
	.uleb128 0x28e
	.long	.LASF2360
	.byte	0x5
	.uleb128 0x292
	.long	.LASF2361
	.byte	0x6
	.uleb128 0x298
	.long	.LASF2362
	.byte	0x5
	.uleb128 0x29c
	.long	.LASF2363
	.byte	0x6
	.uleb128 0x2a2
	.long	.LASF2364
	.byte	0x5
	.uleb128 0x2a6
	.long	.LASF2365
	.byte	0x6
	.uleb128 0x2ac
	.long	.LASF2366
	.byte	0x5
	.uleb128 0x2b0
	.long	.LASF2367
	.byte	0x6
	.uleb128 0x2b6
	.long	.LASF2368
	.byte	0x5
	.uleb128 0x2ba
	.long	.LASF2369
	.byte	0x6
	.uleb128 0x2c0
	.long	.LASF2370
	.byte	0x5
	.uleb128 0x2c4
	.long	.LASF2371
	.byte	0x6
	.uleb128 0x2cf
	.long	.LASF2372
	.byte	0x5
	.uleb128 0x2d3
	.long	.LASF2373
	.byte	0x6
	.uleb128 0x2d9
	.long	.LASF2374
	.byte	0x5
	.uleb128 0x2dd
	.long	.LASF2375
	.byte	0x6
	.uleb128 0x2e3
	.long	.LASF2376
	.byte	0x5
	.uleb128 0x2e7
	.long	.LASF2377
	.byte	0x6
	.uleb128 0x2ed
	.long	.LASF2378
	.byte	0x5
	.uleb128 0x2f1
	.long	.LASF2379
	.byte	0x6
	.uleb128 0x2f7
	.long	.LASF2380
	.byte	0x5
	.uleb128 0x2fb
	.long	.LASF2381
	.byte	0x6
	.uleb128 0x301
	.long	.LASF2382
	.byte	0x5
	.uleb128 0x305
	.long	.LASF2383
	.byte	0x6
	.uleb128 0x30b
	.long	.LASF2384
	.byte	0x5
	.uleb128 0x30f
	.long	.LASF2385
	.byte	0x6
	.uleb128 0x315
	.long	.LASF2386
	.byte	0x5
	.uleb128 0x319
	.long	.LASF2387
	.byte	0x6
	.uleb128 0x31f
	.long	.LASF2388
	.byte	0x5
	.uleb128 0x323
	.long	.LASF2389
	.byte	0x6
	.uleb128 0x329
	.long	.LASF2390
	.byte	0x5
	.uleb128 0x32d
	.long	.LASF2391
	.byte	0x6
	.uleb128 0x333
	.long	.LASF2392
	.byte	0x5
	.uleb128 0x337
	.long	.LASF2393
	.byte	0x6
	.uleb128 0x33d
	.long	.LASF2394
	.byte	0x5
	.uleb128 0x341
	.long	.LASF2395
	.byte	0x6
	.uleb128 0x347
	.long	.LASF2396
	.byte	0x5
	.uleb128 0x34b
	.long	.LASF2397
	.byte	0x6
	.uleb128 0x351
	.long	.LASF2398
	.byte	0x5
	.uleb128 0x355
	.long	.LASF2399
	.byte	0x6
	.uleb128 0x35b
	.long	.LASF2400
	.byte	0x6
	.uleb128 0x365
	.long	.LASF2401
	.byte	0x5
	.uleb128 0x369
	.long	.LASF2402
	.byte	0x6
	.uleb128 0x36f
	.long	.LASF2403
	.byte	0x5
	.uleb128 0x373
	.long	.LASF2404
	.byte	0x6
	.uleb128 0x379
	.long	.LASF2405
	.byte	0x5
	.uleb128 0x37d
	.long	.LASF2406
	.byte	0x6
	.uleb128 0x383
	.long	.LASF2407
	.byte	0x5
	.uleb128 0x387
	.long	.LASF2408
	.byte	0x6
	.uleb128 0x38d
	.long	.LASF2409
	.byte	0x5
	.uleb128 0x391
	.long	.LASF2410
	.byte	0x6
	.uleb128 0x397
	.long	.LASF2411
	.byte	0x5
	.uleb128 0x3a0
	.long	.LASF2412
	.byte	0x6
	.uleb128 0x3ab
	.long	.LASF2413
	.byte	0x5
	.uleb128 0x3af
	.long	.LASF2414
	.byte	0x6
	.uleb128 0x3b5
	.long	.LASF2415
	.byte	0x5
	.uleb128 0x3b9
	.long	.LASF2416
	.byte	0x6
	.uleb128 0x3bf
	.long	.LASF2417
	.byte	0x5
	.uleb128 0x3c3
	.long	.LASF2418
	.byte	0x6
	.uleb128 0x3c9
	.long	.LASF2419
	.byte	0x5
	.uleb128 0x3cd
	.long	.LASF2420
	.byte	0x6
	.uleb128 0x3d3
	.long	.LASF2421
	.byte	0x5
	.uleb128 0x3d7
	.long	.LASF2422
	.byte	0x6
	.uleb128 0x3dd
	.long	.LASF2423
	.byte	0x5
	.uleb128 0x3e1
	.long	.LASF2424
	.byte	0x6
	.uleb128 0x3e7
	.long	.LASF2425
	.byte	0x5
	.uleb128 0x3eb
	.long	.LASF2426
	.byte	0x6
	.uleb128 0x3f6
	.long	.LASF2427
	.byte	0x5
	.uleb128 0x3fa
	.long	.LASF2428
	.byte	0x6
	.uleb128 0x400
	.long	.LASF2429
	.byte	0x5
	.uleb128 0x404
	.long	.LASF2430
	.byte	0x6
	.uleb128 0x40a
	.long	.LASF2431
	.byte	0x5
	.uleb128 0x40e
	.long	.LASF2432
	.byte	0x6
	.uleb128 0x414
	.long	.LASF2433
	.byte	0x5
	.uleb128 0x418
	.long	.LASF2434
	.byte	0x6
	.uleb128 0x41e
	.long	.LASF2435
	.byte	0x5
	.uleb128 0x422
	.long	.LASF2436
	.byte	0x6
	.uleb128 0x428
	.long	.LASF2437
	.byte	0x5
	.uleb128 0x42c
	.long	.LASF2438
	.byte	0x6
	.uleb128 0x432
	.long	.LASF2439
	.byte	0x5
	.uleb128 0x436
	.long	.LASF2440
	.byte	0x6
	.uleb128 0x43c
	.long	.LASF2441
	.byte	0x5
	.uleb128 0x445
	.long	.LASF2442
	.byte	0x6
	.uleb128 0x44b
	.long	.LASF2443
	.byte	0x5
	.uleb128 0x44f
	.long	.LASF2444
	.byte	0x6
	.uleb128 0x455
	.long	.LASF2445
	.byte	0x5
	.uleb128 0x459
	.long	.LASF2446
	.byte	0x6
	.uleb128 0x45f
	.long	.LASF2447
	.byte	0x5
	.uleb128 0x463
	.long	.LASF2448
	.byte	0x6
	.uleb128 0x469
	.long	.LASF2449
	.byte	0x5
	.uleb128 0x46d
	.long	.LASF2450
	.byte	0x6
	.uleb128 0x473
	.long	.LASF2451
	.byte	0x5
	.uleb128 0x477
	.long	.LASF2452
	.byte	0x6
	.uleb128 0x47d
	.long	.LASF2453
	.byte	0x5
	.uleb128 0x481
	.long	.LASF2454
	.byte	0x6
	.uleb128 0x487
	.long	.LASF2455
	.byte	0x5
	.uleb128 0x48b
	.long	.LASF2456
	.byte	0x6
	.uleb128 0x491
	.long	.LASF2457
	.byte	0x5
	.uleb128 0x495
	.long	.LASF2458
	.byte	0x6
	.uleb128 0x49b
	.long	.LASF2459
	.byte	0x5
	.uleb128 0x49f
	.long	.LASF2460
	.byte	0x6
	.uleb128 0x4a5
	.long	.LASF2461
	.byte	0x5
	.uleb128 0x4a9
	.long	.LASF2462
	.byte	0x6
	.uleb128 0x4af
	.long	.LASF2463
	.byte	0x5
	.uleb128 0x4bd
	.long	.LASF2464
	.byte	0x6
	.uleb128 0x4c3
	.long	.LASF2465
	.byte	0x5
	.uleb128 0x4c7
	.long	.LASF2466
	.byte	0x6
	.uleb128 0x4cd
	.long	.LASF2467
	.byte	0x5
	.uleb128 0x4d1
	.long	.LASF2468
	.byte	0x6
	.uleb128 0x4d7
	.long	.LASF2469
	.byte	0x5
	.uleb128 0x4db
	.long	.LASF2470
	.byte	0x6
	.uleb128 0x4e1
	.long	.LASF2471
	.byte	0x5
	.uleb128 0x4e5
	.long	.LASF2472
	.byte	0x6
	.uleb128 0x4eb
	.long	.LASF2473
	.byte	0x5
	.uleb128 0x4f4
	.long	.LASF2474
	.byte	0x6
	.uleb128 0x4fa
	.long	.LASF2475
	.byte	0x5
	.uleb128 0x4fe
	.long	.LASF2476
	.byte	0x6
	.uleb128 0x504
	.long	.LASF2477
	.byte	0x5
	.uleb128 0x508
	.long	.LASF2478
	.byte	0x6
	.uleb128 0x513
	.long	.LASF2479
	.byte	0x5
	.uleb128 0x517
	.long	.LASF2480
	.byte	0x6
	.uleb128 0x51d
	.long	.LASF2481
	.byte	0x5
	.uleb128 0x521
	.long	.LASF2482
	.byte	0x6
	.uleb128 0x527
	.long	.LASF2483
	.byte	0x5
	.uleb128 0x52b
	.long	.LASF2484
	.byte	0x6
	.uleb128 0x531
	.long	.LASF2485
	.byte	0x5
	.uleb128 0x535
	.long	.LASF2486
	.byte	0x6
	.uleb128 0x53b
	.long	.LASF2487
	.byte	0x5
	.uleb128 0x53f
	.long	.LASF2488
	.byte	0x6
	.uleb128 0x545
	.long	.LASF2489
	.byte	0x5
	.uleb128 0x549
	.long	.LASF2490
	.byte	0x6
	.uleb128 0x559
	.long	.LASF2491
	.byte	0x5
	.uleb128 0x55d
	.long	.LASF2492
	.byte	0x6
	.uleb128 0x563
	.long	.LASF2493
	.byte	0x5
	.uleb128 0x567
	.long	.LASF2494
	.byte	0x6
	.uleb128 0x56d
	.long	.LASF2495
	.byte	0x5
	.uleb128 0x571
	.long	.LASF2496
	.byte	0x6
	.uleb128 0x577
	.long	.LASF2497
	.byte	0x5
	.uleb128 0x57b
	.long	.LASF2498
	.byte	0x6
	.uleb128 0x581
	.long	.LASF2499
	.byte	0x5
	.uleb128 0x585
	.long	.LASF2500
	.byte	0x6
	.uleb128 0x58b
	.long	.LASF2501
	.byte	0x5
	.uleb128 0x58f
	.long	.LASF2502
	.byte	0x6
	.uleb128 0x595
	.long	.LASF2503
	.byte	0x5
	.uleb128 0x599
	.long	.LASF2504
	.byte	0x6
	.uleb128 0x59f
	.long	.LASF2505
	.byte	0x5
	.uleb128 0x5a3
	.long	.LASF2506
	.byte	0x6
	.uleb128 0x5a9
	.long	.LASF2507
	.byte	0x5
	.uleb128 0x5ad
	.long	.LASF2508
	.byte	0x6
	.uleb128 0x5b3
	.long	.LASF2509
	.byte	0x5
	.uleb128 0x5b7
	.long	.LASF2510
	.byte	0x6
	.uleb128 0x5bd
	.long	.LASF2511
	.byte	0x5
	.uleb128 0x5c1
	.long	.LASF2512
	.byte	0x6
	.uleb128 0x5c7
	.long	.LASF2513
	.byte	0x6
	.uleb128 0x5d1
	.long	.LASF2514
	.byte	0x6
	.uleb128 0x5db
	.long	.LASF2515
	.byte	0x6
	.uleb128 0x5e5
	.long	.LASF2516
	.byte	0x6
	.uleb128 0x5ef
	.long	.LASF2517
	.byte	0x6
	.uleb128 0x5f9
	.long	.LASF2518
	.byte	0x6
	.uleb128 0x603
	.long	.LASF2519
	.byte	0x6
	.uleb128 0x60d
	.long	.LASF2520
	.byte	0x6
	.uleb128 0x617
	.long	.LASF2521
	.byte	0x6
	.uleb128 0x621
	.long	.LASF2522
	.byte	0x6
	.uleb128 0x62b
	.long	.LASF2523
	.byte	0x6
	.uleb128 0x635
	.long	.LASF2524
	.byte	0x6
	.uleb128 0x63f
	.long	.LASF2525
	.byte	0x6
	.uleb128 0x649
	.long	.LASF2526
	.byte	0x6
	.uleb128 0x653
	.long	.LASF2527
	.byte	0x6
	.uleb128 0x65d
	.long	.LASF2528
	.byte	0x6
	.uleb128 0x667
	.long	.LASF2529
	.byte	0x6
	.uleb128 0x671
	.long	.LASF2530
	.byte	0x6
	.uleb128 0x67b
	.long	.LASF2531
	.byte	0x6
	.uleb128 0x685
	.long	.LASF2532
	.byte	0x6
	.uleb128 0x68f
	.long	.LASF2533
	.byte	0x6
	.uleb128 0x699
	.long	.LASF2534
	.byte	0x6
	.uleb128 0x6a3
	.long	.LASF2535
	.byte	0x6
	.uleb128 0x6ad
	.long	.LASF2536
	.byte	0x6
	.uleb128 0x6b7
	.long	.LASF2537
	.byte	0x6
	.uleb128 0x6c1
	.long	.LASF2538
	.byte	0x6
	.uleb128 0x6cb
	.long	.LASF2539
	.byte	0x6
	.uleb128 0x6d5
	.long	.LASF2540
	.byte	0x6
	.uleb128 0x6df
	.long	.LASF2541
	.byte	0x6
	.uleb128 0x6e9
	.long	.LASF2542
	.byte	0x6
	.uleb128 0x6f3
	.long	.LASF2543
	.byte	0x6
	.uleb128 0x6fd
	.long	.LASF2544
	.byte	0x6
	.uleb128 0x707
	.long	.LASF2545
	.byte	0x6
	.uleb128 0x711
	.long	.LASF2546
	.byte	0x6
	.uleb128 0x71b
	.long	.LASF2547
	.byte	0x6
	.uleb128 0x725
	.long	.LASF2548
	.byte	0x6
	.uleb128 0x72f
	.long	.LASF2549
	.byte	0x6
	.uleb128 0x739
	.long	.LASF2550
	.byte	0x6
	.uleb128 0x743
	.long	.LASF2551
	.byte	0x6
	.uleb128 0x74d
	.long	.LASF2552
	.byte	0x6
	.uleb128 0x757
	.long	.LASF2553
	.byte	0x6
	.uleb128 0x761
	.long	.LASF2554
	.byte	0x6
	.uleb128 0x76b
	.long	.LASF2555
	.byte	0x6
	.uleb128 0x775
	.long	.LASF2556
	.byte	0x6
	.uleb128 0x77f
	.long	.LASF2557
	.byte	0x6
	.uleb128 0x789
	.long	.LASF2558
	.byte	0x6
	.uleb128 0x793
	.long	.LASF2559
	.byte	0x6
	.uleb128 0x79d
	.long	.LASF2560
	.byte	0x6
	.uleb128 0x7a7
	.long	.LASF2561
	.byte	0x6
	.uleb128 0x7b1
	.long	.LASF2562
	.byte	0x6
	.uleb128 0x7bb
	.long	.LASF2563
	.byte	0x6
	.uleb128 0x7c5
	.long	.LASF2564
	.byte	0x6
	.uleb128 0x7cf
	.long	.LASF2565
	.byte	0x6
	.uleb128 0x7d9
	.long	.LASF2566
	.byte	0x6
	.uleb128 0x7db
	.long	.LASF2567
	.byte	0
	.section	.debug_macro,"G",@progbits,wm4.string.h.23.93403f89af7dba8212345449bb14b09d,comdat
.Ldebug_macro120:
	.value	0x5
	.byte	0
	.byte	0x5
	.uleb128 0x17
	.long	.LASF2568
	.byte	0x5
	.uleb128 0x19
	.long	.LASF1130
	.byte	0
	.section	.debug_macro,"G",@progbits,wm4.string.h.31.e39a94e203ad4e1d978c0fc68ce016ee,comdat
.Ldebug_macro121:
	.value	0x5
	.byte	0
	.byte	0x5
	.uleb128 0x1f
	.long	.LASF1146
	.byte	0x5
	.uleb128 0x20
	.long	.LASF1148
	.byte	0
	.section	.debug_macro,"G",@progbits,wm4.stddef.h.173.7770149e60552f73dd7310299f539ffc,comdat
.Ldebug_macro122:
	.value	0x5
	.byte	0
	.byte	0x6
	.uleb128 0xad
	.long	.LASF1522
	.byte	0x6
	.uleb128 0xfc
	.long	.LASF1167
	.byte	0x6
	.uleb128 0x16c
	.long	.LASF1185
	.byte	0x6
	.uleb128 0x19e
	.long	.LASF1186
	.byte	0x5
	.uleb128 0x1a0
	.long	.LASF1187
	.byte	0x6
	.uleb128 0x1a9
	.long	.LASF1188
	.byte	0x6
	.uleb128 0x1ae
	.long	.LASF1523
	.byte	0x5
	.uleb128 0x1af
	.long	.LASF1524
	.byte	0
	.section	.debug_macro,"G",@progbits,wm4.string.h.38.5e57f557920b43aac91880039d9f0c7a,comdat
.Ldebug_macro123:
	.value	0x5
	.byte	0
	.byte	0x5
	.uleb128 0x26
	.long	.LASF2569
	.byte	0x5
	.uleb128 0xc9
	.long	.LASF2570
	.byte	0x5
	.uleb128 0xd3
	.long	.LASF2571
	.byte	0
	.section	.debug_macro,"G",@progbits,wm4.strings.h.19.a259f126920b1bb5ef76bc62b3984a3c,comdat
.Ldebug_macro124:
	.value	0x5
	.byte	0
	.byte	0x5
	.uleb128 0x13
	.long	.LASF2572
	.byte	0x5
	.uleb128 0x16
	.long	.LASF1146
	.byte	0
	.section	.debug_macro,"G",@progbits,wm4.cstring.46.2f0aafa78e9b7e2ffb5ed3d4c91190d4,comdat
.Ldebug_macro125:
	.value	0x5
	.byte	0
	.byte	0x5
	.uleb128 0x2e
	.long	.LASF2574
	.byte	0x6
	.uleb128 0x31
	.long	.LASF2575
	.byte	0x6
	.uleb128 0x32
	.long	.LASF2576
	.byte	0x6
	.uleb128 0x33
	.long	.LASF2577
	.byte	0x6
	.uleb128 0x34
	.long	.LASF2578
	.byte	0x6
	.uleb128 0x35
	.long	.LASF2579
	.byte	0x6
	.uleb128 0x36
	.long	.LASF2580
	.byte	0x6
	.uleb128 0x37
	.long	.LASF2581
	.byte	0x6
	.uleb128 0x38
	.long	.LASF2582
	.byte	0x6
	.uleb128 0x39
	.long	.LASF2583
	.byte	0x6
	.uleb128 0x3a
	.long	.LASF2584
	.byte	0x6
	.uleb128 0x3b
	.long	.LASF2585
	.byte	0x6
	.uleb128 0x3c
	.long	.LASF2586
	.byte	0x6
	.uleb128 0x3d
	.long	.LASF2587
	.byte	0x6
	.uleb128 0x3e
	.long	.LASF2588
	.byte	0x6
	.uleb128 0x3f
	.long	.LASF2589
	.byte	0x6
	.uleb128 0x40
	.long	.LASF2590
	.byte	0x6
	.uleb128 0x41
	.long	.LASF2591
	.byte	0x6
	.uleb128 0x42
	.long	.LASF2592
	.byte	0x6
	.uleb128 0x43
	.long	.LASF2593
	.byte	0x6
	.uleb128 0x44
	.long	.LASF2594
	.byte	0x6
	.uleb128 0x45
	.long	.LASF2595
	.byte	0x6
	.uleb128 0x46
	.long	.LASF2596
	.byte	0
	.section	.debug_line,"",@progbits
.Ldebug_line0:
	.section	.debug_str,"MS",@progbits,1
.LASF864:
	.string	"_PSTL_CPP14_VARIABLE_TEMPLATES_PRESENT "
.LASF1618:
	.string	"__encls_generic(leaf,b,c,d,retval) __asm__ __volatile__(\"encls\\n\\t\" : \"=a\" (retval), \"=b\" (b), \"=c\" (c), \"=d\" (d) : \"a\" (leaf), \"b\" (b), \"c\" (c), \"d\" (d) : \"cc\")"
.LASF1506:
	.string	"_rotwr(a,b) __rorw((a), (b))"
.LASF2283:
	.string	"__glibcxx_tuple_element_t 201402L"
.LASF1247:
	.string	"__ldiv_t_defined 1"
.LASF2220:
	.string	"INT_LEAST16_WIDTH 16"
.LASF1478:
	.string	"__EVEX256__"
.LASF1888:
	.string	"_mm512_maskz_rcp28_pd(U,A) _mm512_maskz_rcp28_round_pd(U, A, _MM_FROUND_CUR_DIRECTION)"
.LASF378:
	.string	"__FLT64X_HAS_QUIET_NAN__ 1"
.LASF1500:
	.string	"_bswap(a) __bswapd(a)"
.LASF1129:
	.string	"_GLIBCXX_INCLUDE_NEXT_C_HEADERS "
.LASF1112:
	.string	"_GLIBCXX_USE_REALPATH 1"
.LASF144:
	.string	"__cpp_aligned_new 201606L"
.LASF186:
	.string	"__UINT16_MAX__ 0xffff"
.LASF2629:
	.string	"__uint_least64_t"
.LASF609:
	.string	"_GLIBCXX_USE_ALLOCATOR_NEW 1"
.LASF1404:
	.string	"__SIZEOF_PTHREAD_CONDATTR_T 4"
.LASF931:
	.string	"_GLIBCXX_HAVE_ISINFF 1"
.LASF704:
	.string	"__GLIBC_USE_DEPRECATED_SCANF 0"
.LASF2628:
	.string	"__int_least64_t"
.LASF2417:
	.string	"__glibcxx_want_constexpr_string_view"
.LASF1464:
	.string	"__MMX__"
.LASF2509:
	.string	"__glibcxx_want_semaphore"
.LASF298:
	.string	"__FLT32_DIG__ 6"
.LASF482:
	.string	"__AVX512VBMI2__ 1"
.LASF1874:
	.string	"_mm_mask_rcp28_ss(W,U,A,B) _mm_mask_rcp28_round_ss ((W), (U), (A), (B), _MM_FROUND_CUR_DIRECTION)"
.LASF2289:
	.string	"__glibcxx_to_chars 201611L"
.LASF566:
	.string	"_GLIBCXX17_INLINE inline"
.LASF2228:
	.string	"INT_FAST16_WIDTH __WORDSIZE"
.LASF713:
	.string	"__glibc_has_attribute(attr) __has_attribute (attr)"
.LASF1348:
	.string	"__LONG_LONG_PAIR(HI,LO) LO, HI"
.LASF1329:
	.string	"__ssize_t_defined "
.LASF671:
	.string	"_DYNAMIC_STACK_SIZE_SOURCE 1"
.LASF83:
	.string	"__cpp_rtti 199711L"
.LASF850:
	.string	"_PSTL_HIDE_FROM_ABI_PUSH "
.LASF2055:
	.string	"__DISABLE_SM3__"
.LASF742:
	.string	"__ASMNAME(cname) __ASMNAME2 (__USER_LABEL_PREFIX__, cname)"
.LASF677:
	.string	"__USE_ISOCXX11 1"
.LASF314:
	.string	"__FLT64_MANT_DIG__ 53"
.LASF1130:
	.string	"__GLIBC_INTERNAL_STARTING_HEADER_IMPLEMENTATION "
.LASF2212:
	.string	"INT16_WIDTH 16"
.LASF2544:
	.string	"__glibcxx_want_constexpr_bitset"
.LASF235:
	.string	"__FLT_MAX_10_EXP__ 38"
.LASF937:
	.string	"_GLIBCXX_HAVE_LDEXPF 1"
.LASF1655:
	.string	"_HRESETINTRIN_H_INCLUDED "
.LASF2118:
	.ascii	"_tile_cm"
	.string	"mimfp16ps_internal(src1_dst,src2,src3) __asm__ volatile (\"{tcmmimfp16ps\\t%%tmm%c[_src3], %%tmm%c[_src2], %%tmm%c[_src1_dst]\t      |tcmmimfp16ps\\ttmm%c[_src1_dst], tmm%c[_src2], tmm%c[_src3]}\" :: [_src1_dst]\"i\"(src1_dst), [_src2]\"i\"(src2), [_src3]\"i\"(src3))"
.LASF1769:
	.string	"_CMP_FALSE_OQ 0x0b"
.LASF813:
	.string	"_GLIBCXX_WEAK_DEFINITION "
.LASF910:
	.string	"_GLIBCXX_HAVE_FCNTL_H 1"
.LASF698:
	.string	"__USE_MISC 1"
.LASF842:
	.string	"_PSTL_VERSION_MAJOR (_PSTL_VERSION / 1000)"
.LASF1762:
	.string	"_CMP_NEQ_UQ 0x04"
.LASF2225:
	.string	"UINT_LEAST64_WIDTH 64"
.LASF1869:
	.string	"_AVX512ERINTRIN_H_INCLUDED "
.LASF2308:
	.string	"__glibcxx_want_any"
.LASF591:
	.string	"_GLIBCXX_BEGIN_NAMESPACE_ALGO "
.LASF2446:
	.string	"__glibcxx_three_way_comparison 201907L"
.LASF1327:
	.string	"__pid_t_defined "
.LASF1341:
	.string	"_BITS_ENDIAN_H 1"
.LASF2268:
	.string	"__glibcxx_want_exchange_function"
.LASF1596:
	.string	"_XBEGIN_STARTED (~0u)"
.LASF2413:
	.string	"__glibcxx_want_optional"
.LASF848:
	.string	"_PSTL_STRING(x) _PSTL_STRING_AUX(x)"
.LASF768:
	.string	"__fortify_function __extern_always_inline __attribute_artificial__"
.LASF404:
	.string	"__DEC64_MIN_EXP__ (-382)"
.LASF969:
	.string	"_GLIBCXX_HAVE_POSIX_MEMALIGN 1"
.LASF317:
	.string	"__FLT64_MIN_10_EXP__ (-307)"
.LASF1195:
	.string	"WNOWAIT 0x01000000"
.LASF455:
	.string	"__ATOMIC_HLE_RELEASE 131072"
.LASF2036:
	.string	"_MM_REDUCE_OP"
.LASF162:
	.string	"__PTRDIFF_MAX__ 0x7fffffffffffffffL"
.LASF137:
	.string	"__cpp_constexpr_dynamic_alloc 201907L"
.LASF2143:
	.string	"_BITS_WCHAR_H 1"
.LASF1481:
	.string	"__AVX512VBMI2__"
.LASF46:
	.string	"__WCHAR_TYPE__ int"
.LASF1142:
	.string	"__GLIBC_USE_IEC_60559_FUNCS_EXT_C23"
.LASF2341:
	.string	"__glibcxx_lcm 201606L"
.LASF2605:
	.string	"7lldiv_t"
.LASF2:
	.string	"__STDC__ 1"
.LASF1502:
	.string	"_rdpmc(a) __rdpmc(a)"
.LASF1689:
	.string	"_MM_MASK_INEXACT 0x1000"
.LASF471:
	.string	"__PCLMUL__ 1"
.LASF1124:
	.string	"_GLIBCXX_X86_RDRAND 1"
.LASF2057:
	.string	"_SHA512INTRIN_H_INCLUDED "
.LASF779:
	.string	"__LDBL_REDIR(name,proto) name proto"
.LASF2124:
	.string	"_PRFCHWINTRIN_H_INCLUDED "
.LASF2604:
	.string	"ldiv_t"
.LASF1093:
	.string	"_GLIBCXX_USE_FCHMOD 1"
.LASF218:
	.string	"__UINT_FAST16_MAX__ 0xffffffffffffffffUL"
.LASF1729:
	.string	"_mm_ceil_ps(V) _mm_round_ps ((V), _MM_FROUND_CEIL)"
.LASF411:
	.string	"__DEC128_MIN_EXP__ (-6142)"
.LASF2357:
	.string	"__glibcxx_boyer_moore_searcher 201603L"
.LASF1094:
	.string	"_GLIBCXX_USE_FCHMODAT 1"
.LASF1386:
	.string	"NFDBITS __NFDBITS"
.LASF2672:
	.string	"uint_fast16_t"
.LASF342:
	.string	"__FLT128_DENORM_MIN__ 6.47517511943802511092443895822764655e-4966F128"
.LASF2382:
	.string	"__glibcxx_want_shared_ptr_weak_type"
.LASF1931:
	.string	"_AVX512VLDQINTRIN_H_INCLUDED "
.LASF2264:
	.string	"__glibcxx_want_math_spec_funcs"
.LASF252:
	.string	"__DBL_MAX_10_EXP__ 308"
.LASF598:
	.string	"_GLIBCXX_NAMESPACE_LDBL_OR_CXX11 _GLIBCXX_NAMESPACE_CXX11"
.LASF2376:
	.string	"__glibcxx_want_parallel_algorithm"
.LASF1030:
	.string	"_GLIBCXX_HAVE_VFWSCANF 1"
.LASF1462:
	.string	"_X86GPRINTRIN_H_INCLUDED "
.LASF1353:
	.string	"_BITS_BYTESWAP_H 1"
.LASF2307:
	.string	"__glibcxx_any 201606L"
.LASF584:
	.string	"_GLIBCXX_END_NAMESPACE_VERSION "
.LASF1585:
	.string	"__DISABLE_PREFETCHI__"
.LASF2102:
	.string	"_tile_dpbssd(dst,src1,src2) _tile_int8_dp_internal (tdpbssd, dst, src1, src2)"
.LASF2412:
	.string	"__glibcxx_optional 202106L"
.LASF1083:
	.string	"_GLIBCXX_USE_C99_MATH_FUNCS 1"
.LASF1105:
	.string	"_GLIBCXX_USE_NLS 1"
.LASF2058:
	.string	"__SHA512__ 1"
.LASF2101:
	.string	"_tile_int8_dp_internal(name,dst,src1,src2) __asm__ volatile (\"{\"#name\"\\t%%tmm%c[_src2], %%tmm%c[_src1], %%tmm%c[_dst]\t\t   |\"#name\"\\ttmm%c[_dst], tmm%c[_src1], tmm%c[_src2]}\" ::[_dst]\"i\"(dst),[_src1]\"i\"(src1),[_src2]\"i\"(src2))"
.LASF528:
	.string	"__ELF__ 1"
.LASF2533:
	.string	"__glibcxx_want_ranges_join_with"
.LASF870:
	.string	"_PSTL_PRAGMA_DECLARE_REDUCTION(NAME,OP) _PSTL_PRAGMA(omp declare reduction(NAME:OP : omp_out(omp_in)) initializer(omp_priv = omp_orig))"
.LASF865:
	.string	"_PSTL_UDR_PRESENT "
.LASF2104:
	.string	"_tile_dpbusd(dst,src1,src2) _tile_int8_dp_internal (tdpbusd, dst, src1, src2)"
.LASF633:
	.string	"__USE_DYNAMIC_STACK_SIZE"
.LASF2275:
	.string	"__glibcxx_make_reverse_iterator 201402L"
.LASF2424:
	.string	"__glibcxx_is_constant_evaluated 201811L"
.LASF514:
	.string	"__VAES__ 1"
.LASF936:
	.string	"_GLIBCXX_HAVE_LC_MESSAGES 1"
.LASF2608:
	.string	"short unsigned int"
.LASF2381:
	.string	"__glibcxx_shared_ptr_weak_type 201606L"
.LASF1870:
	.string	"__AVX512ER__ 1"
.LASF2510:
	.string	"__glibcxx_smart_ptr_for_overwrite 202002L"
.LASF577:
	.string	"_GLIBCXX_USE_CXX11_ABI 1"
.LASF1748:
	.string	"_SIDD_LEAST_SIGNIFICANT 0x00"
.LASF2405:
	.string	"__glibcxx_want_bit_cast"
.LASF2437:
	.string	"__glibcxx_want_make_obj_using_allocator"
.LASF1169:
	.string	"__WCHAR_T__ "
.LASF1670:
	.string	"__MMX_WITH_SSE__"
.LASF2558:
	.string	"__glibcxx_want_to_underlying"
.LASF1189:
	.string	"_STDLIB_H 1"
.LASF2051:
	.string	"_SHAINTRIN_H_INCLUDED "
.LASF562:
	.string	"_GLIBCXX14_CONSTEXPR constexpr"
.LASF771:
	.string	"__restrict_arr "
.LASF610:
	.string	"_GLIBCXX_OS_DEFINES 1"
.LASF469:
	.string	"__AES__ 1"
.LASF1587:
	.string	"__RAOINTINTRIN_H_INCLUDED "
.LASF61:
	.string	"__UINT64_TYPE__ long unsigned int"
.LASF100:
	.string	"__cpp_inheriting_constructors 201511L"
.LASF2520:
	.string	"__glibcxx_want_freestanding_cstring"
.LASF2274:
	.string	"__glibcxx_want_is_final"
.LASF2464:
	.string	"__glibcxx_ranges 202110L"
.LASF857:
	.string	"_PSTL_PRAGMA_SIMD_SCAN(PRM) _PSTL_PRAGMA(omp simd reduction(inscan, PRM))"
.LASF165:
	.string	"__SHRT_WIDTH__ 16"
.LASF36:
	.string	"__ORDER_BIG_ENDIAN__ 4321"
.LASF420:
	.string	"__STRICT_ANSI__ 1"
.LASF1987:
	.string	"__DISABLE_AVX512VP2INTERSECTVL__"
.LASF1993:
	.string	"_mm_maskz_mul_sch(U,A,B) _mm_maskz_fmul_sch ((U), (A), (B))"
.LASF1018:
	.string	"_GLIBCXX_HAVE_TANHF 1"
.LASF904:
	.string	"_GLIBCXX_HAVE_EXCEPTION_PTR_SINCE_GCC46 1"
.LASF260:
	.string	"__DBL_HAS_INFINITY__ 1"
.LASF2669:
	.string	"int_fast32_t"
.LASF1622:
	.string	"__enclu_eexit(leaf,b,c,retval) __asm__ __volatile__(\"enclu\\n\\t\" : \"=a\" (retval), \"=c\" (c) : \"a\" (leaf), \"b\" (b) : \"cc\")"
.LASF2336:
	.string	"__glibcxx_want_not_fn"
.LASF1970:
	.string	"_mm256_dpwssds_epi32(A,B,C) ((__m256i) __builtin_ia32_vpdpwssds_v8si ((__v8si) (A), (__v8si) (B), (__v8si) (C)))"
.LASF903:
	.string	"_GLIBCXX_HAVE_ENDIAN_H 1"
.LASF243:
	.string	"__FLT_HAS_INFINITY__ 1"
.LASF2265:
	.string	"__glibcxx_coroutine 201902L"
.LASF288:
	.string	"__FLT16_MAX__ 6.55040000000000000000000000000000000e+4F16"
.LASF334:
	.string	"__FLT128_MIN_10_EXP__ (-4931)"
.LASF2656:
	.string	"uint16_t"
.LASF1705:
	.string	"_MM_SET_DENORMALS_ZERO_MODE(mode) _mm_setcsr ((_mm_getcsr () & ~_MM_DENORMALS_ZERO_MASK) | (mode))"
.LASF1890:
	.string	"_mm512_mask_rcp28_ps(W,U,A) _mm512_mask_rcp28_round_ps(W, U, A, _MM_FROUND_CUR_DIRECTION)"
.LASF159:
	.string	"__WCHAR_MIN__ (-__WCHAR_MAX__ - 1)"
.LASF734:
	.string	"__glibc_objsize(__o) __bos (__o)"
.LASF1049:
	.string	"_GLIBCXX11_USE_C99_MATH 1"
.LASF818:
	.string	"_GLIBCXX_FAST_MATH 0"
.LASF1313:
	.string	"__FD_SETSIZE 1024"
.LASF393:
	.string	"__BFLT16_HAS_INFINITY__ 1"
.LASF901:
	.string	"_GLIBCXX_HAVE_DIRFD 1"
.LASF965:
	.string	"_GLIBCXX_HAVE_OPENAT 1"
.LASF2518:
	.string	"__glibcxx_want_freestanding_algorithm"
.LASF2038:
	.string	"_mm_mul_pch(A,B) _mm_fmul_pch ((A), (B))"
.LASF1884:
	.string	"_mm512_mask_exp2a23_ps(W,U,A) _mm512_mask_exp2a23_round_ps(W, U, A, _MM_FROUND_CUR_DIRECTION)"
.LASF94:
	.string	"__cpp_rvalue_reference 200610L"
.LASF906:
	.string	"_GLIBCXX_HAVE_EXPF 1"
.LASF1530:
	.string	"_CETINTRIN_H_INCLUDED "
.LASF1589:
	.string	"__DISABLE_RAOINT__ "
.LASF145:
	.string	"__STDCPP_DEFAULT_NEW_ALIGNMENT__ 16"
.LASF970:
	.string	"_GLIBCXX_HAVE_POSIX_SEMAPHORE 1"
.LASF822:
	.string	"_GLIBCXX_USE_C99_STDIO _GLIBCXX11_USE_C99_STDIO"
.LASF1896:
	.string	"_mm512_mask_rsqrt28_ps(W,U,A) _mm512_mask_rsqrt28_round_ps(W, U, A, _MM_FROUND_CUR_DIRECTION)"
.LASF2030:
	.string	"_mm256_cmp_ph_mask(A,B,C) (__builtin_ia32_cmpph256_mask ((A), (B), (C), (-1)))"
.LASF1001:
	.string	"_GLIBCXX_HAVE_SYMVER_SYMBOL_RENAMING_RUNTIME_SUPPORT 1"
.LASF391:
	.string	"__BFLT16_DENORM_MIN__ 9.18354961579912115600575419704879436e-41BF16"
.LASF1952:
	.string	"__AVX5124VNNIW__ 1"
.LASF2410:
	.string	"__glibcxx_concepts 202002L"
.LASF2247:
	.string	"__glibcxx_uncaught_exceptions 201411L"
.LASF1563:
	.string	"__DISABLE_MOVDIRI__"
.LASF1850:
	.string	"_mm512_setr4_ps(e0,e1,e2,e3) _mm512_set4_ps(e3,e2,e1,e0)"
.LASF312:
	.string	"__FP_FAST_FMAF32 1"
.LASF1432:
	.string	"calloc"
.LASF1031:
	.string	"_GLIBCXX_HAVE_VSWSCANF 1"
.LASF2570:
	.string	"strdupa(s) (__extension__ ({ const char *__old = (s); size_t __len = strlen (__old) + 1; char *__new = (char *) __builtin_alloca (__len); (char *) memcpy (__new, __old, __len); }))"
.LASF2067:
	.string	"_FMAINTRIN_H_INCLUDED "
.LASF819:
	.string	"__N(msgid) (msgid)"
.LASF2158:
	.string	"UINT16_MAX (65535)"
.LASF1324:
	.string	"__uid_t_defined "
.LASF2576:
	.string	"memcmp"
.LASF458:
	.string	"__znver4__ 1"
.LASF596:
	.string	"_GLIBCXX_BEGIN_NAMESPACE_LDBL "
.LASF2177:
	.string	"INT_FAST8_MAX (127)"
.LASF1260:
	.string	"__U32_TYPE unsigned int"
.LASF2014:
	.string	"_mm512_mask_mul_pch(W,U,A,B) _mm512_mask_fmul_pch ((W), (U), (A), (B))"
.LASF518:
	.string	"__LAHF_SAHF__ 1"
.LASF1459:
	.string	"strtof"
.LASF1641:
	.string	"__DISABLE_UINTR__ "
.LASF1760:
	.string	"_CMP_LE_OS 0x02"
.LASF470:
	.string	"__SHA__ 1"
.LASF382:
	.string	"__BFLT16_MIN_EXP__ (-125)"
.LASF194:
	.string	"__INT_LEAST16_WIDTH__ 16"
.LASF2595:
	.string	"strtok"
.LASF2196:
	.string	"WCHAR_MIN __WCHAR_MIN"
.LASF102:
	.string	"__cpp_alias_templates 200704L"
.LASF2040:
	.string	"_mm_maskz_mul_pch(U,A,B) _mm_maskz_fmul_pch ((U), (A), (B))"
.LASF2406:
	.string	"__glibcxx_bitops 201907L"
.LASF1137:
	.string	"__GLIBC_USE_IEC_60559_BFP_EXT_C23 1"
.LASF1583:
	.string	"__PREFETCHI__ 1"
.LASF631:
	.string	"__USE_MISC"
.LASF220:
	.string	"__UINT_FAST64_MAX__ 0xffffffffffffffffUL"
.LASF293:
	.string	"__FLT16_HAS_DENORM__ 1"
.LASF1107:
	.string	"_GLIBCXX_USE_PTHREAD_COND_CLOCKWAIT 1"
.LASF2673:
	.string	"uint_fast32_t"
.LASF525:
	.string	"__linux__ 1"
.LASF553:
	.string	"_GLIBCXX17_DEPRECATED_SUGGEST(ALT) _GLIBCXX_DEPRECATED_SUGGEST(ALT)"
.LASF1701:
	.string	"_PMMINTRIN_H_INCLUDED "
.LASF410:
	.string	"__DEC128_MANT_DIG__ 34"
.LASF1323:
	.string	"__nlink_t_defined "
.LASF154:
	.string	"__SHRT_MAX__ 0x7fff"
.LASF1004:
	.string	"_GLIBCXX_HAVE_SYS_MMAN_H 1"
.LASF1609:
	.string	"__DISABLE_SERIALIZE__"
.LASF1803:
	.string	"__AVXIFMA__"
.LASF1010:
	.string	"_GLIBCXX_HAVE_SYS_STATVFS_H 1"
.LASF246:
	.string	"__FLT_IS_IEC_60559__ 1"
.LASF1168:
	.string	"__wchar_t__ "
.LASF308:
	.string	"__FLT32_DENORM_MIN__ 1.40129846432481707092372958328991613e-45F32"
.LASF851:
	.string	"_PSTL_HIDE_FROM_ABI_POP "
.LASF192:
	.string	"__INT_LEAST16_MAX__ 0x7fff"
.LASF622:
	.string	"__USE_XOPEN_EXTENDED"
.LASF2204:
	.string	"UINT8_C(c) c"
.LASF604:
	.string	"__glibcxx_assert(cond) do { if (std::__is_constant_evaluated() && !bool(cond)) std::__glibcxx_assert_fail(); } while (false)"
.LASF2136:
	.string	"_tile_dpfp16ps(dst,src1,src2) _tile_dpfp16ps_internal (dst,src1,src2)"
.LASF780:
	.string	"__LDBL_REDIR1_NTH(name,proto,alias) name proto __THROW"
.LASF1280:
	.string	"__MODE_T_TYPE __U32_TYPE"
.LASF2486:
	.string	"__glibcxx_constexpr_complex 201711L"
.LASF2505:
	.string	"__glibcxx_want_polymorphic_allocator"
.LASF1242:
	.string	"__f64x(x) x ##f64x"
.LASF65:
	.string	"__INT_LEAST64_TYPE__ long int"
.LASF678:
	.string	"__USE_POSIX 1"
.LASF340:
	.string	"__FLT128_MIN__ 3.36210314311209350626267781732175260e-4932F128"
.LASF1985:
	.string	"_AVX512VP2INTERSECTVLINTRIN_H_INCLUDED "
.LASF539:
	.string	"__GLIBCXX__ 20251226"
.LASF1800:
	.string	"__AVXIFMA__ 1"
.LASF2545:
	.string	"__glibcxx_want_stdatomic_h"
.LASF2465:
	.string	"__glibcxx_want_ranges"
.LASF2507:
	.string	"__glibcxx_want_move_iterator_concept"
.LASF427:
	.string	"__GCC_ATOMIC_CHAR_LOCK_FREE 2"
.LASF129:
	.string	"__cpp_constexpr_in_decltype 201711L"
.LASF511:
	.string	"__PKU__ 1"
.LASF2342:
	.string	"__glibcxx_want_lcm"
.LASF2049:
	.string	"_mm256_maskz_cmul_pch(U,A,B) _mm256_maskz_fcmul_pch((U), (A), (B))"
.LASF2007:
	.string	"_mm512_mask_cmp_ph_mask(A,B,C,D) (__builtin_ia32_cmpph512_mask ((B), (C), (D), (A)))"
.LASF76:
	.string	"__UINT_FAST32_TYPE__ long unsigned int"
.LASF927:
	.string	"_GLIBCXX_HAVE_HYPOTF 1"
.LASF2272:
	.string	"__glibcxx_want_integral_constant_callable"
.LASF1429:
	.string	"atoi"
.LASF1309:
	.string	"__INO_T_MATCHES_INO64_T 1"
.LASF1430:
	.string	"atol"
.LASF25:
	.string	"__SIZEOF_INT__ 4"
.LASF2493:
	.string	"__glibcxx_want_constexpr_vector"
.LASF738:
	.string	"__glibc_c99_flexarr_available 1"
.LASF911:
	.string	"_GLIBCXX_HAVE_FDOPENDIR 1"
.LASF352:
	.string	"__FLT32X_MAX_10_EXP__ 308"
.LASF2541:
	.string	"__glibcxx_want_ranges_contains"
.LASF2583:
	.string	"strcoll"
.LASF1479:
	.string	"__AVX512VBMI__"
.LASF2378:
	.string	"__glibcxx_want_scoped_lock"
.LASF1635:
	.string	"__TSXLDTRK__ 1"
.LASF1045:
	.string	"_GLIBCXX_PACKAGE__GLIBCXX_VERSION \"version-unused\""
.LASF53:
	.string	"__SIG_ATOMIC_TYPE__ int"
.LASF1160:
	.string	"_BSD_SIZE_T_DEFINED_ "
.LASF1851:
	.string	"_MM_CMPINT_EQ 0x0"
.LASF2020:
	.string	"_mm512_mask_cmul_pch(W,U,A,B) _mm512_mask_fcmul_pch ((W), (U), (A), (B))"
.LASF289:
	.string	"__FLT16_NORM_MAX__ 6.55040000000000000000000000000000000e+4F16"
.LASF478:
	.string	"__AVX512VL__ 1"
.LASF212:
	.string	"__INT_FAST16_WIDTH__ 64"
.LASF387:
	.string	"__BFLT16_MAX__ 3.38953138925153547590470800371487867e+38BF16"
.LASF1703:
	.string	"_MM_DENORMALS_ZERO_ON 0x0040"
.LASF2065:
	.string	"__DISABLE_SM4__"
.LASF2384:
	.string	"__glibcxx_want_string_view"
.LASF2529:
	.string	"__glibcxx_want_ranges_zip"
.LASF896:
	.string	"_GLIBCXX_HAVE_COSHF 1"
.LASF2025:
	.string	"__DISABLE_AVX512FP16_512__"
.LASF1391:
	.string	"__blksize_t_defined "
.LASF1078:
	.string	"_GLIBCXX_USE_C99_FENV_TR1 1"
.LASF204:
	.string	"__UINT16_C(c) c"
.LASF442:
	.string	"__PRAGMA_REDEFINE_EXTNAME 1"
.LASF1370:
	.string	"_SYS_SELECT_H 1"
.LASF2634:
	.string	"int32_t"
.LASF2592:
	.string	"strrchr"
.LASF1220:
	.string	"__HAVE_DISTINCT_FLOAT128 1"
.LASF75:
	.string	"__UINT_FAST16_TYPE__ long unsigned int"
.LASF2677:
	.string	"intmax_t"
.LASF17:
	.string	"__pic__ 2"
.LASF1943:
	.string	"_AVX512VBMIVLINTRIN_H_INCLUDED "
.LASF1381:
	.string	"__NFDBITS (8 * (int) sizeof (__fd_mask))"
.LASF880:
	.string	"_GLIBCXX_HAVE_ARC4RANDOM 1"
.LASF2589:
	.string	"strncmp"
.LASF20:
	.string	"__PIE__ 2"
.LASF118:
	.string	"__cpp_aggregate_bases 201603L"
.LASF2450:
	.string	"__glibcxx_to_array 201907L"
.LASF1508:
	.string	"_rotr(a,b) __rord((a), (b))"
.LASF953:
	.string	"_GLIBCXX_HAVE_LOGF 1"
.LASF575:
	.string	"_GLIBCXX_EXTERN_TEMPLATE 1"
.LASF1254:
	.string	"_BITS_TYPES___LOCALE_T_H 1"
.LASF1725:
	.string	"_mm_ceil_pd(V) _mm_round_pd ((V), _MM_FROUND_CEIL)"
.LASF1179:
	.string	"___int_wchar_t_h "
.LASF1138:
	.string	"__GLIBC_USE_IEC_60559_EXT"
.LASF440:
	.string	"__HAVE_SPECULATION_SAFE_VALUE 1"
.LASF951:
	.string	"_GLIBCXX_HAVE_LOG10F 1"
.LASF2060:
	.string	"__DISABLE_SHA512__"
.LASF2559:
	.string	"__glibcxx_want_tuple_like"
.LASF1981:
	.string	"__AVX512VP2INTERSECT__ 1"
.LASF613:
	.string	"__USE_ISOC11"
.LASF839:
	.string	"_PSTL_ASSERT_MSG(_Condition,_Message) __glibcxx_assert(_Condition)"
.LASF1534:
	.string	"__SHSTK__"
.LASF588:
	.string	"_GLIBCXX_BEGIN_NAMESPACE_CONTAINER "
.LASF2024:
	.string	"_mm512_maskz_cmul_round_pch(U,A,B,R) _mm512_maskz_fcmul_round_pch ((U), (A), (B), (R))"
.LASF2213:
	.string	"UINT16_WIDTH 16"
.LASF717:
	.string	"__LEAF_ATTR __attribute__ ((__leaf__))"
.LASF2678:
	.string	"uintmax_t"
.LASF2578:
	.string	"memmove"
.LASF2536:
	.string	"__glibcxx_want_ranges_cartesian_product"
.LASF790:
	.string	"__fortified_attr_access(a,o,s) __attr_access ((a, o, s))"
.LASF163:
	.string	"__SIZE_MAX__ 0xffffffffffffffffUL"
.LASF509:
	.string	"__CLWB__ 1"
.LASF110:
	.string	"__cpp_namespace_attributes 201411L"
.LASF1480:
	.string	"__AVX512IFMA__"
.LASF354:
	.string	"__FLT32X_MAX__ 1.79769313486231570814527423731704357e+308F32x"
.LASF2180:
	.string	"INT_FAST64_MAX (__INT64_C(9223372036854775807))"
.LASF1616:
	.string	"__encls_c(leaf,c,retval) __asm__ __volatile__(\"encls\\n\\t\" : \"=a\" (retval) : \"a\" (leaf), \"c\" (c) : \"cc\")"
.LASF763:
	.string	"__always_inline"
.LASF58:
	.string	"__UINT8_TYPE__ unsigned char"
.LASF2236:
	.string	"INTMAX_WIDTH 64"
.LASF1226:
	.string	"__HAVE_FLOAT16 0"
.LASF827:
	.string	"_GLIBCXX_USE_FLOAT128 1"
.LASF1081:
	.string	"_GLIBCXX_USE_C99_INTTYPES_WCHAR_T 1"
.LASF1673:
	.string	"_MM_MALLOC_H_INCLUDED "
.LASF692:
	.string	"__USE_LARGEFILE64 1"
.LASF1877:
	.string	"_mm_maskz_rsqrt28_sd(U,A,B) _mm_maskz_rsqrt28_round_sd ((U), (A), (B), _MM_FROUND_CUR_DIRECTION)"
.LASF832:
	.string	"_GLIBCXX_HAVE_BUILTIN_IS_AGGREGATE 1"
.LASF300:
	.string	"__FLT32_MIN_10_EXP__ (-37)"
.LASF131:
	.string	"__cpp_consteval 202211L"
.LASF2237:
	.string	"UINTMAX_WIDTH 64"
.LASF1469:
	.string	"__SSE4_1__"
.LASF1602:
	.string	"_XABORT_NESTED (1 << 5)"
.LASF2151:
	.string	"INT32_MIN (-2147483647-1)"
.LASF730:
	.string	"__attribute_overloadable__ "
.LASF333:
	.string	"__FLT128_MIN_EXP__ (-16381)"
.LASF2010:
	.ascii	"_MM512_REDUCE_OP(op) __m256h __T1 = (__m256h) _mm512_extract"
	.ascii	"f64x4_pd ((__m512d) __A, 0); __m256h __T2 = (__m256h) _mm512"
	.ascii	"_extractf64x4_pd ((__m512d) __A, 1); __m256h __T3 = (__T1 op"
	.ascii	" __T2); __m128h __T4 = (__m128h) _mm256_extractf128_pd ((__m"
	.ascii	"256d) __T3, 0); __m128h __T5 = (__m128h) _mm256_extractf128_"
	.ascii	"pd ((__m256d) __T3, 1); __m128h __T6 = (__T4 op __T5); __m12"
	.ascii	"8h __T7 = (__m128h) _"
	.string	"_builtin_shuffle ((__m128h)__T6, (__v8hi) { 4, 5, 6, 7, 0, 1, 2, 3 }); __m128h __T8 = (__T6 op __T7); __m128h __T9 = (__m128h) __builtin_shuffle ((__m128h)__T8, (__v8hi) { 2, 3, 0, 1, 4, 5, 6, 7 }); __m128h __T10 = __T8 op __T9; return __T10[0] op __T10[1]"
.LASF2557:
	.string	"__glibcxx_want_string_resize_and_overwrite"
.LASF797:
	.string	"__stub___compat_bdflush "
.LASF5:
	.string	"__STDC_UTF_32__ 1"
.LASF2009:
	.string	"_mm512_mask_cmp_round_ph_mask(A,B,C,D,E) (__builtin_ia32_cmpph512_mask_round ((B), (C), (D), (A), (E)))"
.LASF1079:
	.string	"_GLIBCXX_USE_C99_INTTYPES 1"
.LASF1527:
	.string	"_ADXINTRIN_H_INCLUDED "
.LASF1672:
	.string	"_XMMINTRIN_H_INCLUDED "
.LASF1599:
	.string	"_XABORT_CONFLICT (1 << 2)"
.LASF2144:
	.string	"__WCHAR_MAX __WCHAR_MAX__"
.LASF271:
	.string	"__LDBL_DECIMAL_DIG__ 21"
.LASF2680:
	.string	"__builtin_memset"
.LASF2602:
	.string	"6ldiv_t"
.LASF570:
	.string	"_GLIBCXX_THROW(_EXC) "
.LASF1699:
	.string	"_EMMINTRIN_H_INCLUDED "
.LASF1424:
	.string	"abort"
.LASF1983:
	.string	"__DISABLE_AVX512VP2INTERSECT__"
.LASF1102:
	.string	"_GLIBCXX_USE_LSTAT 1"
.LASF1617:
	.string	"__encls_edbgrd(leaf,b,c,retval) __asm__ __volatile__(\"encls\\n\\t\" : \"=a\" (retval), \"=b\" (b) : \"a\" (leaf), \"c\" (c))"
.LASF569:
	.string	"_GLIBCXX_USE_NOEXCEPT noexcept"
.LASF209:
	.string	"__INT_FAST8_MAX__ 0x7f"
.LASF2646:
	.string	"__isoc23_strtol"
.LASF1735:
	.string	"_MM_PICK_OUT_PS(X,N) _mm_insert_ps (_mm_setzero_ps (), (X), _MM_MK_INSERTPS_NDX ((N), 0, 0x0e))"
.LASF1732:
	.string	"_mm_floor_ss(D,V) _mm_round_ss ((D), (V), _MM_FROUND_FLOOR)"
.LASF59:
	.string	"__UINT16_TYPE__ short unsigned int"
.LASF1065:
	.string	"_GLIBCXX_STATIC_TZDATA 1"
.LASF1076:
	.string	"_GLIBCXX_USE_C99_CTYPE_TR1 1"
.LASF1857:
	.string	"_MM_CMPINT_GE 0x5"
.LASF2173:
	.string	"INT_FAST8_MIN (-128)"
.LASF882:
	.string	"_GLIBCXX_HAVE_ASINF 1"
.LASF127:
	.string	"__cpp_designated_initializers 201707L"
.LASF2128:
	.string	"__DISABLE_KL__"
.LASF1365:
	.string	"le32toh(x) __uint32_identity (x)"
.LASF2273:
	.string	"__glibcxx_is_final 201402L"
.LASF1357:
	.string	"_BITS_UINTN_IDENTITY_H 1"
.LASF746:
	.string	"__attribute_malloc__ __attribute__ ((__malloc__))"
.LASF605:
	.string	"_GLIBCXX_SYNCHRONIZATION_HAPPENS_BEFORE(A) "
.LASF1153:
	.string	"_T_SIZE_ "
.LASF2662:
	.string	"int_least64_t"
.LASF2026:
	.string	"__AVX512FP16VLINTRIN_H_INCLUDED "
.LASF1366:
	.string	"htobe64(x) __bswap_64 (x)"
.LASF2018:
	.string	"_mm512_maskz_mul_round_pch(U,A,B,R) _mm512_maskz_fmul_round_pch ((U), (A), (B), (R))"
.LASF360:
	.string	"__FLT32X_HAS_INFINITY__ 1"
.LASF720:
	.string	"__NTH(fct) __LEAF_ATTR fct __THROW"
.LASF1892:
	.string	"_mm512_rsqrt28_pd(A) _mm512_rsqrt28_round_pd(A, _MM_FROUND_CUR_DIRECTION)"
.LASF1374:
	.string	"__FD_ISSET(d,s) ((__FDS_BITS (s)[__FD_ELT (d)] & __FD_MASK (d)) != 0)"
.LASF2531:
	.string	"__glibcxx_want_ranges_slide"
.LASF1692:
	.string	"_MM_ROUND_DOWN 0x2000"
.LASF2500:
	.string	"__glibcxx_latch 201907L"
.LASF296:
	.string	"__FLT16_IS_IEC_60559__ 1"
.LASF1060:
	.string	"_GLIBCXX_FULLY_DYNAMIC_STRING 0"
.LASF2473:
	.string	"__glibcxx_want_constexpr_tuple"
.LASF188:
	.string	"__UINT64_MAX__ 0xffffffffffffffffUL"
.LASF190:
	.string	"__INT8_C(c) c"
.LASF1434:
	.string	"free"
.LASF798:
	.string	"__stub_chflags "
.LASF481:
	.string	"__AVX512IFMA__ 1"
.LASF2108:
	.string	"_AMXBF16INTRIN_H_INCLUDED "
.LASF1771:
	.string	"_CMP_GE_OS 0x0d"
.LASF1727:
	.string	"_mm_floor_pd(V) _mm_round_pd((V), _MM_FROUND_FLOOR)"
.LASF121:
	.string	"__cpp_structured_bindings 201606L"
.LASF285:
	.string	"__FLT16_MAX_EXP__ 16"
.LASF933:
	.string	"_GLIBCXX_HAVE_ISNANF 1"
.LASF2527:
	.string	"__glibcxx_want_reference_from_temporary"
.LASF1668:
	.string	"__PTWRITE__"
.LASF1206:
	.string	"__WCOREDUMP(status) ((status) & __WCOREFLAG)"
.LASF1766:
	.string	"_CMP_EQ_UQ 0x08"
.LASF234:
	.string	"__FLT_MAX_EXP__ 128"
.LASF2649:
	.string	"__isoc23_strtoll"
.LASF2200:
	.string	"INT8_C(c) c"
.LASF12:
	.string	"__ATOMIC_SEQ_CST 5"
.LASF1164:
	.string	"_GCC_SIZE_T "
.LASF87:
	.string	"__cpp_runtime_arrays 198712L"
.LASF802:
	.string	"__stub_setlogin "
.LASF130:
	.string	"__cpp_conditional_explicit 201806L"
.LASF1230:
	.string	"__HAVE_FLOAT128X 0"
.LASF1513:
	.string	"_T_PTRDIFF_ "
.LASF2096:
	.string	"__DISABLE_AMX_TILE__"
.LASF1664:
	.string	"__USER_MSR__"
.LASF648:
	.string	"_ISOC99_SOURCE"
.LASF1935:
	.string	"_AVX512IFMAVLINTRIN_H_INCLUDED "
.LASF594:
	.string	"_GLIBCXX_LONG_DOUBLE_ALT128_COMPAT"
.LASF1588:
	.string	"__RAOINT__ 1"
.LASF372:
	.string	"__FLT64X_NORM_MAX__ 1.18973149535723176502126385303097021e+4932F64x"
.LASF297:
	.string	"__FLT32_MANT_DIG__ 24"
.LASF804:
	.string	"__stub_stty "
.LASF2292:
	.string	"__glibcxx_want_chrono_udls"
.LASF1108:
	.string	"_GLIBCXX_USE_PTHREAD_MUTEX_CLOCKLOCK (_GLIBCXX_TSAN==0)"
.LASF1632:
	.string	"__DISABLE_TBM__"
.LASF1443:
	.string	"quick_exit"
.LASF479:
	.string	"__EVEX256__ 1"
.LASF2387:
	.string	"__glibcxx_assume_aligned 201811L"
.LASF551:
	.string	"_GLIBCXX14_DEPRECATED_SUGGEST(ALT) _GLIBCXX_DEPRECATED_SUGGEST(ALT)"
.LASF1523:
	.string	"offsetof"
.LASF379:
	.string	"__FLT64X_IS_IEC_60559__ 1"
.LASF336:
	.string	"__FLT128_MAX_10_EXP__ 4932"
.LASF1054:
	.string	"_GLIBCXX98_USE_C99_MATH 1"
.LASF1973:
	.string	"_AVX512VPOPCNTDQVLINTRIN_H_INCLUDED "
.LASF174:
	.string	"__INTMAX_C(c) c ## L"
.LASF2202:
	.string	"INT32_C(c) c"
.LASF191:
	.string	"__INT_LEAST8_WIDTH__ 8"
.LASF2512:
	.string	"__glibcxx_syncbuf 201803L"
.LASF2659:
	.string	"int_least8_t"
.LASF2090:
	.string	"_tile_stream_loadd(dst,base,stride) _tile_stream_loadd_internal (dst, base, stride)"
.LASF2577:
	.string	"memcpy"
.LASF134:
	.string	"__cpp_nontype_template_args 201911L"
.LASF81:
	.string	"__DEPRECATED 1"
.LASF151:
	.string	"__cpp_exceptions 199711L"
.LASF520:
	.string	"__EVEX512__ 1"
.LASF1042:
	.string	"_GLIBCXX_PACKAGE_STRING \"package-unused version-unused\""
.LASF2390:
	.string	"__glibcxx_want_atomic_flag_test"
.LASF2333:
	.string	"__glibcxx_make_from_tuple 201606L"
.LASF2338:
	.string	"__glibcxx_want_type_trait_variable_templates"
.LASF1203:
	.string	"__WIFSIGNALED(status) (((signed char) (((status) & 0x7f) + 1) >> 1) > 0)"
.LASF225:
	.string	"__GCC_IEC_559_COMPLEX 2"
.LASF920:
	.string	"_GLIBCXX_HAVE_FMODL 1"
.LASF10:
	.string	"__VERSION__ \"14.3.1 20251226\""
.LASF2251:
	.string	"__glibcxx_is_null_pointer 201309L"
.LASF2002:
	.string	"_mm_maskz_cmul_round_sch(U,A,B,R) _mm_maskz_fcmul_round_sch ((U), (A), (B), (R))"
.LASF295:
	.string	"__FLT16_HAS_QUIET_NAN__ 1"
.LASF2648:
	.string	"__gnu_cxx"
.LASF1222:
	.string	"__HAVE_FLOAT64X_LONG_DOUBLE 1"
.LASF999:
	.string	"_GLIBCXX_HAVE_STRXFRM_L 1"
.LASF1007:
	.string	"_GLIBCXX_HAVE_SYS_SDT_H 1"
.LASF418:
	.string	"__USER_LABEL_PREFIX__ "
.LASF719:
	.string	"__THROWNL __THROW"
.LASF590:
	.string	"_GLIBCXX_STD_A std"
.LASF973:
	.string	"_GLIBCXX_HAVE_QUICK_EXIT 1"
.LASF908:
	.string	"_GLIBCXX_HAVE_FABSF 1"
.LASF2478:
	.string	"__glibcxx_atomic_wait 201907L"
.LASF2631:
	.string	"__uintmax_t"
.LASF1161:
	.string	"_SIZE_T_DECLARED "
.LASF702:
	.string	"__USE_FORTIFY_LEVEL 0"
.LASF270:
	.string	"__DECIMAL_DIG__ 21"
.LASF1133:
	.string	"__GLIBC_USE_LIB_EXT2 1"
.LASF1553:
	.string	"_FXSRINTRIN_H_INCLUDED "
.LASF1272:
	.string	"_BITS_TYPESIZES_H 1"
.LASF2367:
	.string	"__glibcxx_map_try_emplace 201411L"
.LASF1547:
	.string	"__CMPCCXADD__"
.LASF284:
	.string	"__FLT16_MIN_10_EXP__ (-4)"
.LASF2189:
	.string	"INTMAX_MAX (__INT64_C(9223372036854775807))"
.LASF34:
	.string	"__BIGGEST_ALIGNMENT__ 64"
.LASF697:
	.string	"__USE_TIME_BITS64 1"
.LASF78:
	.string	"__INTPTR_TYPE__ long int"
.LASF1110:
	.string	"_GLIBCXX_USE_PTHREAD_RWLOCK_T 1"
.LASF1861:
	.ascii	"__MM512_REDUCE_OP(op) __v8si __T1 = (__v8si) _mm512_extracti"
	.ascii	"64x4_epi64 (__A, 1); __v8si __T2 = (__v8si) _mm512_extracti6"
	.ascii	"4x4_epi64 (__A, 0); __m256i __T3 = (__m256i) (__T1 op __T2);"
	.ascii	" __v4si _"
	.string	"_T4 = (__v4si) _mm256_extracti128_si256 (__T3, 1); __v4si __T5 = (__v4si) _mm256_extracti128_si256 (__T3, 0); __v4si __T6 = __T4 op __T5; __v4si __T7 = __builtin_shuffle (__T6, (__v4si) { 2, 3, 0, 1 }); __v4si __T8 = __T6 op __T7; return __T8[0] op __T8[1]"
.LASF1259:
	.string	"__S32_TYPE int"
.LASF2134:
	.string	"_AMXFP16INTRIN_H_INCLUDED "
.LASF618:
	.string	"__USE_POSIX2"
.LASF1854:
	.string	"_MM_CMPINT_UNUSED 0x3"
.LASF1318:
	.string	"__ino_t_defined "
.LASF386:
	.string	"__BFLT16_DECIMAL_DIG__ 4"
.LASF1352:
	.string	"BYTE_ORDER __BYTE_ORDER"
.LASF1170:
	.string	"_WCHAR_T "
.LASF1708:
	.string	"_SMMINTRIN_H_INCLUDED "
.LASF2276:
	.string	"__glibcxx_want_make_reverse_iterator"
.LASF1412:
	.string	"__PTHREAD_MUTEX_INITIALIZER(__kind) 0, 0, 0, 0, __kind, 0, 0, { NULL, NULL }"
.LASF705:
	.string	"__GLIBC_USE_C23_STRTOL 1"
.LASF228:
	.string	"__DEC_EVAL_METHOD__ 2"
.LASF1144:
	.string	"__GLIBC_USE_IEC_60559_TYPES_EXT"
.LASF902:
	.string	"_GLIBCXX_HAVE_DLFCN_H 1"
.LASF1455:
	.string	"lldiv"
.LASF1700:
	.string	"_MM_SHUFFLE2(fp1,fp0) (((fp1) << 1) | (fp0))"
.LASF2284:
	.string	"__glibcxx_want_tuple_element_t"
.LASF2097:
	.string	"__AMX_TILE__"
.LASF1879:
	.string	"_mm_maskz_rsqrt28_ss(U,A,B) _mm_maskz_rsqrt28_round_ss ((U), (A), (B), _MM_FROUND_CUR_DIRECTION)"
.LASF2085:
	.string	"_AMXTILEINTRIN_H_INCLUDED "
.LASF1570:
	.string	"__DISABLE_MWAIT__ "
.LASF501:
	.string	"__XSAVE__ 1"
.LASF2481:
	.string	"__glibcxx_want_barrier"
.LASF1852:
	.string	"_MM_CMPINT_LT 0x1"
.LASF299:
	.string	"__FLT32_MIN_EXP__ (-125)"
.LASF1594:
	.string	"__RTM__ 1"
.LASF1345:
	.string	"_BITS_ENDIANNESS_H 1"
.LASF2587:
	.string	"strlen"
.LASF1749:
	.string	"_SIDD_MOST_SIGNIFICANT 0x40"
.LASF550:
	.string	"_GLIBCXX14_DEPRECATED _GLIBCXX_DEPRECATED"
.LASF250:
	.string	"__DBL_MIN_10_EXP__ (-307)"
.LASF2239:
	.string	"SIG_ATOMIC_WIDTH 32"
.LASF2549:
	.string	"__glibcxx_want_generator"
.LASF1378:
	.string	"__timeval_defined 1"
.LASF814:
	.string	"_GLIBCXX_USE_WEAK_REF __GXX_WEAK__"
.LASF1519:
	.string	"_GCC_PTRDIFF_T "
.LASF358:
	.string	"__FLT32X_DENORM_MIN__ 4.94065645841246544176568792868221372e-324F32x"
.LASF978:
	.string	"_GLIBCXX_HAVE_SINCOSF 1"
.LASF2182:
	.string	"UINT_FAST16_MAX (18446744073709551615UL)"
.LASF80:
	.string	"__GXX_WEAK__ 1"
.LASF233:
	.string	"__FLT_MIN_10_EXP__ (-37)"
.LASF2615:
	.string	"__int16_t"
.LASF2199:
	.string	"WINT_MAX (4294967295u)"
.LASF737:
	.string	"__flexarr []"
.LASF2078:
	.string	"__DISABLE_AVX512BF16__ "
.LASF2617:
	.string	"__uint16_t"
.LASF1245:
	.string	"__CFLOAT32X _Complex _Float32x"
.LASF2083:
	.string	"__DISABLE_AVXNECONVERT__"
.LASF1878:
	.string	"_mm_mask_rsqrt28_ss(W,U,A,B) _mm_mask_rsqrt28_round_ss ((W), (U), (A), (B), _MM_FROUND_CUR_DIRECTION)"
.LASF215:
	.string	"__INT_FAST64_MAX__ 0x7fffffffffffffffL"
.LASF2420:
	.string	"__glibcxx_int_pow2 202002L"
.LASF247:
	.string	"__DBL_MANT_DIG__ 53"
.LASF2389:
	.string	"__glibcxx_atomic_flag_test 201907L"
.LASF971:
	.string	"_GLIBCXX_HAVE_POWF 1"
.LASF2591:
	.string	"strpbrk"
.LASF977:
	.string	"_GLIBCXX_HAVE_SINCOS 1"
.LASF617:
	.string	"__USE_POSIX"
.LASF940:
	.string	"_GLIBCXX_HAVE_LIMIT_AS 1"
.LASF1180:
	.string	"__INT_WCHAR_T_H "
.LASF1619:
	.string	"__enclu_bc(leaf,b,c,retval) __asm__ __volatile__(\"enclu\\n\\t\" : \"=a\" (retval) : \"a\" (leaf), \"b\" (b), \"c\" (c) : \"cc\")"
.LASF1321:
	.string	"__gid_t_defined "
.LASF273:
	.string	"__LDBL_NORM_MAX__ 1.18973149535723176502126385303097021e+4932L"
.LASF1933:
	.string	"__DISABLE_AVX512VLDQ__"
.LASF1755:
	.string	"_mm_aesenc_si128(X,Y) (__m128i) __builtin_ia32_aesenc128 ((__v2di) (X), (__v2di) (Y))"
.LASF401:
	.string	"__DEC32_EPSILON__ 1E-6DF"
.LASF2426:
	.string	"__glibcxx_constexpr_char_traits 201811L"
.LASF2140:
	.string	"__STDC_CONSTANT_MACROS"
.LASF1823:
	.ascii	"_MM256_REDUCE_OPERATOR_BASIC_EPI8(op) __v16qi __T1 = (__v16q"
	.ascii	"i)_mm256_extracti128_si256 (__W, 0); __v16qi __T2 = (__v16qi"
	.ascii	")_mm256_extracti128_si256 (__W, 1); __v16qi __T3 = __T1 op _"
	.ascii	"_T2; __v16qi __T4 = __builtin_shufflevector (__T3, __T3, 8, "
	.ascii	"9, 10, 11, 12, 13, 14, 15, 8, 9, 10, 11, 12, 13, 14, 15); __"
	.ascii	"v16qi __T5 = __T3 op __T4; __v16qi __T6 = __builtin_shufflev"
	.ascii	"ector (__T5, __T5, 4, 5, 6, 7, 4, 5, 6, 7, 8, 9, 10, 11, 12,"
	.ascii	" 13, 14, 15); __v16qi __T7 = __T5 op __T6; __v16qi __T8 = __"
	.ascii	"builtin_shuffleve"
	.string	"ctor (__T7, __T7, 2, 3, 2, 3, 4, 5, 6, 7, 8, 9, 10, 11, 12, 13, 14, 15); __v16qi __T9 = __T7 op __T8; __v16qi __T10 = __builtin_shufflevector (__T9, __T9, 1, 1, 2, 3, 4, 5, 6, 7, 8, 9, 10, 11, 12, 13, 14, 15); __v16qi __T11 = __T9 op __T10; return __T11[0]"
.LASF221:
	.string	"__INTPTR_MAX__ 0x7fffffffffffffffL"
.LASF1764:
	.string	"_CMP_NLE_US 0x06"
.LASF477:
	.string	"__AVX512BW__ 1"
.LASF1127:
	.string	"_GTHREAD_USE_MUTEX_TIMEDLOCK 1"
.LASF1426:
	.string	"atexit"
.LASF2069:
	.string	"_GFNIINTRIN_H_INCLUDED "
.LASF787:
	.string	"__glibc_macro_warning(message) __glibc_macro_warning1 (GCC warning message)"
.LASF675:
	.string	"__USE_ISOC99 1"
.LASF1371:
	.string	"__FD_ZERO(s) do { unsigned int __i; fd_set *__arr = (s); for (__i = 0; __i < sizeof (fd_set) / sizeof (__fd_mask); ++__i) __FDS_BITS (__arr)[__i] = 0; } while (0)"
.LASF656:
	.string	"_POSIX_SOURCE"
.LASF1781:
	.string	"_CMP_ORD_S 0x17"
.LASF1166:
	.string	"__size_t "
.LASF160:
	.string	"__WINT_MAX__ 0xffffffffU"
.LASF29:
	.string	"__SIZEOF_FLOAT__ 4"
.LASF2326:
	.string	"__glibcxx_want_is_aggregate"
.LASF1387:
	.string	"FD_SET(fd,fdsetp) __FD_SET (fd, fdsetp)"
.LASF2000:
	.string	"_mm_cmul_round_sch(A,B,R) _mm_fcmul_round_sch ((A), (B), (R))"
.LASF240:
	.string	"__FLT_EPSILON__ 1.19209289550781250000000000000000000e-7F"
.LASF843:
	.string	"_PSTL_VERSION_MINOR ((_PSTL_VERSION % 1000) / 10)"
.LASF1600:
	.string	"_XABORT_CAPACITY (1 << 3)"
.LASF2349:
	.string	"__glibcxx_array_constexpr 201811L"
.LASF1495:
	.string	"_popcnt64(a) __popcntq(a)"
.LASF394:
	.string	"__BFLT16_HAS_QUIET_NAN__ 1"
.LASF2428:
	.string	"__glibcxx_is_layout_compatible 201907L"
.LASF964:
	.string	"_GLIBCXX_HAVE_NETINET_TCP_H 1"
.LASF879:
	.string	"_GLIBCXX_HAVE_ALIGNED_ALLOC 1"
.LASF367:
	.string	"__FLT64X_MIN_10_EXP__ (-4931)"
.LASF1650:
	.string	"_XSAVEINTRIN_H_INCLUDED "
.LASF1216:
	.string	"WIFSTOPPED(status) __WIFSTOPPED (status)"
.LASF436:
	.string	"__GCC_ATOMIC_TEST_AND_SET_TRUEVAL 1"
.LASF2012:
	.ascii	"_MM512_REDUCE_OP(op) __m256h __T1 = (__m256h) _mm512_extract"
	.ascii	"f64x4_pd ((__m512d) __A, 0); __m256h __T2 = (__m256h) _mm512"
	.ascii	"_extractf64x4_pd ((__m512d) __A, 1); __m256h __T3 = __builti"
	.ascii	"n_ia32_ ##op ##ph256_mask (__T1, __T2, _mm256_setzero_ph (),"
	.ascii	" (__mmask16) -1); __m128h __T4 = (__m128h) _mm256_extractf12"
	.ascii	"8_pd ((__m256d) __T3, 0); __m128h __T5 = (__m128h) _mm256_ex"
	.ascii	"tractf128_pd ((__m256d) __T3, 1); __m128h __T6 = __builtin_i"
	.ascii	"a32_ ##op ##ph128_mask (__T4, __T5, _mm_setzero_ph (),(__mma"
	.ascii	"sk8) -1); __m128h __T7 = (__m128h) __builtin_shuffle ((__m12"
	.ascii	"8h)__T6, (__v8hi) { 2, 3, 0, 1, 6, 7, 4, 5 }); __m128h __T8 "
	.ascii	"= (__m128h) __builtin_ia32_ ##op ##ph128_mask (__T6, __T7, _"
	.ascii	"mm_setzero_ph (),(__mmask8) -1); __m128h __T9 = (__m128h) __"
	.ascii	"builtin_shuffle ((__m128h)__T8, (__v8hi) { 4, 5 }); __m128h "
	.ascii	"__T10 = __builtin_i"
	.string	"a32_ ##op ##ph128_mask (__T8, __T9, _mm_setzero_ph (),(__mmask8) -1); __m128h __T11 = (__m128h) __builtin_shuffle (__T10, (__v8hi) { 1, 0 }); __m128h __T12 = __builtin_ia32_ ##op ##ph128_mask (__T10, __T11, _mm_setzero_ph (),(__mmask8) -1); return __T12[0]"
.LASF2121:
	.string	"_tile_cmmrlfp16ps(src1_dst,src2,src3) _tile_cmmrlfp16ps_internal (src1_dst, src2, src3)"
.LASF1470:
	.string	"__SSE4_2__"
.LASF2383:
	.string	"__glibcxx_string_view 201803L"
.LASF207:
	.string	"__UINT_LEAST64_MAX__ 0xffffffffffffffffUL"
.LASF1134:
	.string	"__GLIBC_USE_IEC_60559_BFP_EXT"
.LASF2294:
	.string	"__glibcxx_want_complex_udls"
.LASF773:
	.string	"__glibc_likely(cond) __builtin_expect ((cond), 1)"
.LASF202:
	.string	"__UINT8_C(c) c"
.LASF476:
	.string	"__AVX512DQ__ 1"
.LASF113:
	.string	"__cpp_fold_expressions 201603L"
.LASF1805:
	.string	"__AVXVNNIINT8__ 1"
.LASF1978:
	.string	"__DISABLE_AVX512BITALGVL__ "
.LASF2348:
	.string	"__glibcxx_want_raw_memory_algorithms"
.LASF304:
	.string	"__FLT32_MAX__ 3.40282346638528859811704183484516925e+38F32"
.LASF1746:
	.string	"_SIDD_MASKED_POSITIVE_POLARITY 0x20"
.LASF1241:
	.string	"__f32x(x) x ##f32x"
.LASF2502:
	.string	"__glibcxx_list_remove_return_type 201806L"
.LASF1101:
	.string	"_GLIBCXX_USE_LONG_LONG 1"
.LASF1140:
	.string	"__GLIBC_USE_IEC_60559_FUNCS_EXT"
.LASF991:
	.string	"_GLIBCXX_HAVE_STDLIB_H 1"
.LASF1787:
	.string	"_CMP_GE_OQ 0x1d"
.LASF48:
	.string	"__INTMAX_TYPE__ long int"
.LASF1095:
	.string	"_GLIBCXX_USE_FSEEKO_FTELLO 1"
.LASF2485:
	.string	"__glibcxx_want_format_uchar"
.LASF1942:
	.string	"_AVX512VBMIINTRIN_H_INCLUDED "
.LASF2164:
	.string	"INT_LEAST64_MIN (-__INT64_C(9223372036854775807)-1)"
.LASF2219:
	.string	"UINT_LEAST8_WIDTH 8"
.LASF448:
	.string	"__amd64 1"
.LASF1438:
	.string	"malloc"
.LASF1080:
	.string	"_GLIBCXX_USE_C99_INTTYPES_TR1 1"
.LASF1829:
	.string	"_mm_maskz_sqrt_sd(U,A,B) _mm_maskz_sqrt_round_sd ((U), (A), (B), _MM_FROUND_CUR_DIRECTION)"
.LASF2610:
	.string	"unsigned char"
.LASF2146:
	.string	"_BITS_STDINT_UINTN_H 1"
.LASF244:
	.string	"__FLT_HAS_QUIET_NAN__ 1"
.LASF2463:
	.string	"__glibcxx_want_shift"
.LASF1863:
	.ascii	"__MM512_REDUCE_OP(op) __m256 __T1 = (__m256) _mm512_extractf"
	.ascii	"64x4_pd ((__m512d) __A, 1); __m256 __T2 = (__m256) _mm512_ex"
	.ascii	"tractf64x4_pd ((__m512d) __A, 0); __m256 __T3 "
	.string	"= __T1 op __T2; __m128 __T4 = _mm256_extractf128_ps (__T3, 1); __m128 __T5 = _mm256_extractf128_ps (__T3, 0); __m128 __T6 = __T4 op __T5; __m128 __T7 = __builtin_shuffle (__T6, (__v4si) { 2, 3, 0, 1 }); __m128 __T8 = __T6 op __T7; return __T8[0] op __T8[1]"
.LASF1542:
	.string	"_CLZEROINTRIN_H_INCLUDED "
.LASF1989:
	.string	"__AVX512FP16__ 1"
.LASF788:
	.string	"__HAVE_GENERIC_SELECTION 0"
.LASF2551:
	.string	"__glibcxx_want_move_only_function"
.LASF1928:
	.ascii	"_MM256_AVX512_REDUCE_OPERATOR_BASIC_EPI8(op) __v16qi __T1 = "
	.ascii	"(__v16qi)_mm256_avx512_extracti128_si256 (__W, 0); __v16qi _"
	.ascii	"_T2 = (__v16qi)_mm256_avx512_extracti128_si256 (__W, 1); __v"
	.ascii	"16qi __T3 = __T1 op __T2; __v16qi __T4 = __builtin_shuffleve"
	.ascii	"ctor (__T3, __T3, 8, 9, 10, 11, 12, 13, 14, 15, 8, 9, 10, 11"
	.ascii	", 12, 13, 14, 15); __v16qi __T5 = __T3 op __T4; __v16qi __T6"
	.ascii	" = __builtin_shufflevector (__T5, __T5, 4, 5, 6, 7, 4, 5, 6,"
	.ascii	" 7, 8, 9, 10, 11, 12, 13, 14, 15); __v16qi __T7 = __T5 op __"
	.ascii	"T6; __v16qi __T8 = __builtin_shuffleve"
	.string	"ctor (__T7, __T7, 2, 3, 2, 3, 4, 5, 6, 7, 8, 9, 10, 11, 12, 13, 14, 15); __v16qi __T9 = __T7 op __T8; __v16qi __T10 = __builtin_shufflevector (__T9, __T9, 1, 1, 2, 3, 4, 5, 6, 7, 8, 9, 10, 11, 12, 13, 14, 15); __v16qi __T11 = __T9 op __T10; return __T11[0]"
.LASF855:
	.string	"_PSTL_PRAGMA_SIMD_REDUCTION(PRM) _PSTL_PRAGMA(omp simd reduction(PRM))"
.LASF2178:
	.string	"INT_FAST16_MAX (9223372036854775807L)"
.LASF1872:
	.string	"_mm_mask_rcp28_sd(W,U,A,B) _mm_mask_rcp28_round_sd ((W), (U), (A), (B), _MM_FROUND_CUR_DIRECTION)"
.LASF35:
	.string	"__ORDER_LITTLE_ENDIAN__ 1234"
.LASF1520:
	.string	"_PTRDIFF_T_DECLARED "
.LASF1536:
	.string	"__CLDEMOTE__ 1"
.LASF1322:
	.string	"__mode_t_defined "
.LASF1090:
	.string	"_GLIBCXX_USE_CLOCK_REALTIME 1"
.LASF2331:
	.string	"__glibcxx_logical_traits 201510L"
.LASF1753:
	.string	"_mm_aesdec_si128(X,Y) (__m128i) __builtin_ia32_aesdec128 ((__v2di) (X), (__v2di) (Y))"
.LASF1103:
	.string	"_GLIBCXX_USE_MKDIR 1"
.LASF1274:
	.string	"__SYSCALL_ULONG_TYPE __ULONGWORD_TYPE"
.LASF877:
	.string	"_GLIBCXX_HAVE_ACOSF 1"
.LASF231:
	.string	"__FLT_DIG__ 6"
.LASF153:
	.string	"__SCHAR_MAX__ 0x7f"
.LASF1072:
	.string	"_GLIBCXX_USE_C99 1"
.LASF2651:
	.string	"float"
.LASF251:
	.string	"__DBL_MAX_EXP__ 1024"
.LASF615:
	.string	"__USE_ISOC95"
.LASF2606:
	.string	"long long int"
.LASF1697:
	.string	"_MM_FLUSH_ZERO_OFF 0x0000"
.LASF614:
	.string	"__USE_ISOC99"
.LASF203:
	.string	"__UINT_LEAST16_MAX__ 0xffff"
.LASF2535:
	.string	"__glibcxx_want_ranges_stride"
.LASF1798:
	.string	"__AVXVNNI__"
.LASF2042:
	.string	"_mm256_mask_mul_pch(W,U,A,B) _mm256_mask_fmul_pch ((W), (U), (A), (B))"
.LASF1556:
	.string	"__LWP__ 1"
.LASF673:
	.string	"__GLIBC_USE_ISOC23 1"
.LASF351:
	.string	"__FLT32X_MAX_EXP__ 1024"
.LASF1740:
	.string	"_SIDD_CMP_EQUAL_ANY 0x00"
.LASF149:
	.string	"__STDCPP_THREADS__ 1"
.LASF2291:
	.string	"__glibcxx_chrono_udls 201304L"
.LASF178:
	.string	"__SIG_ATOMIC_MAX__ 0x7fffffff"
.LASF2567:
	.string	"__glibcxx_want_all"
.LASF1494:
	.string	"_bswap64(a) __bswapq(a)"
.LASF32:
	.string	"__SIZEOF_SIZE_T__ 8"
.LASF414:
	.string	"__DEC128_MAX__ 9.999999999999999999999999999999999E6144DL"
.LASF1493:
	.string	"__DISABLE_GENERAL_REGS_ONLY__ "
.LASF1405:
	.string	"__SIZEOF_PTHREAD_RWLOCKATTR_T 8"
.LASF2343:
	.string	"__glibcxx_gcd 201606L"
.LASF1338:
	.string	"_BITS_STDINT_INTN_H 1"
.LASF2665:
	.string	"uint_least32_t"
.LASF1512:
	.string	"_PTRDIFF_T "
.LASF2080:
	.string	"_AVXNECONVERTINTRIN_H_INCLUDED "
.LASF2139:
	.string	"__STDC_LIMIT_MACROS "
.LASF784:
	.string	"__REDIRECT_LDBL(name,proto,alias) __REDIRECT (name, proto, alias)"
.LASF171:
	.string	"__PTRDIFF_WIDTH__ 64"
.LASF1350:
	.string	"BIG_ENDIAN __BIG_ENDIAN"
.LASF624:
	.string	"__USE_XOPEN2K"
.LASF1535:
	.string	"_CLDEMOTE_H_INCLUDED "
.LASF2469:
	.string	"__glibcxx_want_constexpr_functional"
.LASF620:
	.string	"__USE_POSIX199506"
.LASF2407:
	.string	"__glibcxx_want_bitops"
.LASF1738:
	.string	"_SIDD_SBYTE_OPS 0x02"
.LASF2362:
	.string	"__glibcxx_want_execution"
.LASF2044:
	.string	"_mm_cmul_pch(A,B) _mm_fcmul_pch ((A), (B))"
.LASF2318:
	.string	"__glibcxx_want_byte"
.LASF1564:
	.string	"__MOVDIRI__"
.LASF2566:
	.string	"__glibcxx_want_to_string"
.LASF527:
	.string	"__unix__ 1"
.LASF1765:
	.string	"_CMP_ORD_Q 0x07"
.LASF1126:
	.string	"_GLIBCXX_ZONEINFO_DIR \"/usr/share/zoneinfo\""
.LASF976:
	.string	"_GLIBCXX_HAVE_SETENV 1"
.LASF1841:
	.string	"_mm512_setr_epi64(e0,e1,e2,e3,e4,e5,e6,e7) _mm512_set_epi64(e7,e6,e5,e4,e3,e2,e1,e0)"
.LASF1927:
	.ascii	"_MM256_AVX512_REDUCE_OPERATOR_MAX_MIN_EP16(op) __m128i __T1 "
	.ascii	"= _mm256_avx512_extracti128_si256 (__V, 0); __m128i __T2 = _"
	.ascii	"mm256_avx512_extracti128_si256 (__V, 1); __m128i __T3 = _mm_"
	.ascii	"avx512_ ##op (__T1, __T2); __m128i __T4 = (__m128i)__builtin"
	.ascii	"_shufflevector ((__v8hi)__T3, (__v8hi)__T3, 4, 5, 6, 7, 4, 5"
	.ascii	", 6, 7); __m128i __T5 = _mm_avx512_ ##op (__T3, __T4); __m12"
	.ascii	"8i __T6 = (__m128i)__builtin_shufflevector ((__v8hi)__T5"
	.string	", (__v8hi)__T5, 2, 3, 2, 3, 4, 5, 6, 7); __m128i __T7 = _mm_avx512_ ##op (__T5, __T6); __m128i __T8 = (__m128i)__builtin_shufflevector ((__v8hi)__T7, (__v8hi)__T7, 1, 1, 2, 3, 4, 5, 6, 7); __v8hi __T9 = (__v8hi)_mm_avx512_ ##op (__T7, __T8); return __T9[0]"
.LASF274:
	.string	"__LDBL_MIN__ 3.36210314311209350626267781732175260e-4932L"
.LASF2563:
	.string	"__glibcxx_want_reference_wrapper"
.LASF2360:
	.string	"__glibcxx_want_chrono"
.LASF2572:
	.string	"_STRINGS_H 1"
.LASF1627:
	.string	"__DISABLE_SGX__"
.LASF666:
	.string	"_DEFAULT_SOURCE"
.LASF2539:
	.string	"__glibcxx_want_ranges_enumerate"
.LASF2087:
	.string	"__DISABLE_AMX_TILE__ "
.LASF1021:
	.string	"_GLIBCXX_HAVE_TGMATH_H 1"
.LASF2593:
	.string	"strspn"
.LASF589:
	.string	"_GLIBCXX_END_NAMESPACE_CONTAINER "
.LASF1785:
	.string	"_CMP_FALSE_OS 0x1b"
.LASF1818:
	.ascii	"_MM_REDUCE_OPERATOR_MAX_MIN_EP16(op) __m128i __T1 = (__m128i"
	.ascii	")__builtin_shufflevector ((__v8hi)__V, (__v8hi)__V, 4, 5, 6,"
	.ascii	" 7, 4, 5, 6, 7); __m128i __T2 = _mm_ ##op (__V, __T1); __m12"
	.ascii	"8i __T3 = (__m128i)__builtin_shufflevector"
	.string	" ((__v8hi)__T2, (__v8hi)__T2, 2, 3, 2, 3, 4, 5, 6, 7); __m128i __T4 = _mm_ ##op (__T2, __T3); __m128i __T5 = (__m128i)__builtin_shufflevector ((__v8hi)__T4, (__v8hi)__T4, 1, 1, 2, 3, 4, 5, 6, 7); __v8hi __T6 = (__v8hi)_mm_ ##op (__T4, __T5); return __T6[0]"
.LASF1099:
	.string	"_GLIBCXX_USE_INIT_PRIORITY_ATTRIBUTE 1"
.LASF2089:
	.string	"_tile_loadd_internal(dst,base,stride) __asm__ volatile (\"{tileloadd\\t(%0,%1,1), %%tmm%c[_dst]|tileloadd\\ttmm%c[_dst], [%0+%1*1]}\" :: \"r\" ((const void*) (base)), \"r\" ((__PTRDIFF_TYPE__) (stride)), [_dst]\"i\"(dst))"
.LASF762:
	.string	"__wur "
.LASF1397:
	.string	"_BITS_PTHREADTYPES_ARCH_H 1"
.LASF962:
	.string	"_GLIBCXX_HAVE_NETDB_H 1"
.LASF253:
	.string	"__DBL_DECIMAL_DIG__ 17"
.LASF27:
	.string	"__SIZEOF_LONG_LONG__ 8"
.LASF2298:
	.string	"__glibcxx_want_make_unique"
.LASF1788:
	.string	"_CMP_GT_OQ 0x1e"
.LASF1885:
	.string	"_mm512_maskz_exp2a23_ps(U,A) _mm512_maskz_exp2a23_round_ps(U, A, _MM_FROUND_CUR_DIRECTION)"
.LASF2329:
	.string	"__glibcxx_launder 201606L"
.LASF1320:
	.string	"__dev_t_defined "
.LASF1335:
	.string	"__timer_t_defined 1"
.LASF1205:
	.string	"__WIFCONTINUED(status) ((status) == __W_CONTINUED)"
.LASF2548:
	.string	"__glibcxx_want_forward_like"
.LASF369:
	.string	"__FLT64X_MAX_10_EXP__ 4932"
.LASF303:
	.string	"__FLT32_DECIMAL_DIG__ 9"
.LASF2514:
	.string	"__glibcxx_want_byteswap"
.LASF1813:
	.string	"__AVXVNNIINT16__"
.LASF2029:
	.string	"_mm_mask_cmp_ph_mask(A,B,C,D) (__builtin_ia32_cmpph128_mask ((B), (C), (D), (A)))"
.LASF1452:
	.string	"wctomb"
.LASF2523:
	.string	"__glibcxx_want_freestanding_string_view"
.LASF541:
	.string	"_GLIBCXX_CONST __attribute__ ((__const__))"
.LASF996:
	.string	"_GLIBCXX_HAVE_STRTOF 1"
.LASF1577:
	.string	"__pconfig_generic(leaf,b,c,d,retval) __asm__ __volatile__ (\"pconfig\\n\\t\" : \"=a\" (retval), \"=b\" (b), \"=c\" (c), \"=d\" (d) : \"a\" (leaf), \"b\" (b), \"c\" (c), \"d\" (d) : \"cc\")"
.LASF1891:
	.string	"_mm512_maskz_rcp28_ps(U,A) _mm512_maskz_rcp28_round_ps(U, A, _MM_FROUND_CUR_DIRECTION)"
.LASF1332:
	.string	"__clock_t_defined 1"
.LASF1905:
	.string	"__AVX512PF__ 1"
.LASF667:
	.string	"_DEFAULT_SOURCE 1"
.LASF1176:
	.string	"_WCHAR_T_DEFINED_ "
.LASF2443:
	.string	"__glibcxx_want_span"
.LASF1052:
	.string	"_GLIBCXX11_USE_C99_WCHAR 1"
.LASF1282:
	.string	"__FSWORD_T_TYPE __SYSCALL_SLONG_TYPE"
.LASF47:
	.string	"__WINT_TYPE__ unsigned int"
.LASF1087:
	.string	"_GLIBCXX_USE_CHDIR 1"
.LASF2115:
	.string	"_AMXCOMPLEXINTRIN_H_INCLUDED "
.LASF1665:
	.string	"__PTWRITE__ 1"
.LASF2074:
	.string	"_mm256_cvtneps_pbh(A) (__m128bh) __builtin_ia32_cvtneps2bf16_v8sf (A)"
.LASF1955:
	.string	"__AVX5124VNNIW__"
.LASF2006:
	.string	"_mm512_cmp_ph_mask(A,B,C) (__builtin_ia32_cmpph512_mask ((A), (B), (C), (-1)))"
.LASF1654:
	.string	"_XTESTINTRIN_H_INCLUDED "
.LASF428:
	.string	"__GCC_ATOMIC_CHAR8_T_LOCK_FREE 2"
.LASF1586:
	.string	"__PREFETCHI__"
.LASF2278:
	.string	"__glibcxx_want_null_iterators"
.LASF1380:
	.string	"__NFDBITS"
.LASF1252:
	.string	"MB_CUR_MAX (__ctype_get_mb_cur_max ())"
.LASF1742:
	.string	"_SIDD_CMP_EQUAL_EACH 0x08"
.LASF2148:
	.string	"__intptr_t_defined "
.LASF2226:
	.string	"INT_FAST8_WIDTH 8"
.LASF182:
	.string	"__INT16_MAX__ 0x7fff"
.LASF2614:
	.string	"__uint8_t"
.LASF778:
	.string	"__LDBL_REDIR1(name,proto,alias) name proto"
.LASF230:
	.string	"__FLT_MANT_DIG__ 24"
.LASF1208:
	.string	"__W_STOPCODE(sig) ((sig) << 8 | 0x7f)"
.LASF2062:
	.string	"_SM4INTRIN_H_INCLUDED "
.LASF733:
	.string	"__glibc_objsize0(__o) __bos0 (__o)"
.LASF488:
	.string	"__ABM__ 1"
.LASF1264:
	.string	"__UQUAD_TYPE unsigned long int"
.LASF2684:
	.string	"matmul"
.LASF1061:
	.string	"_GLIBCXX_HAS_GTHREADS 1"
.LASF328:
	.string	"__FLT64_HAS_QUIET_NAN__ 1"
.LASF2472:
	.string	"__glibcxx_constexpr_tuple 201811L"
.LASF1096:
	.string	"_GLIBCXX_USE_GETCWD 1"
.LASF1187:
	.string	"NULL __null"
.LASF1612:
	.string	"__SGX__ 1"
.LASF565:
	.string	"_GLIBCXX23_CONSTEXPR "
.LASF1034:
	.string	"_GLIBCXX_HAVE_WCSTOF 1"
.LASF2588:
	.string	"strncat"
.LASF627:
	.string	"__USE_XOPEN2K8XSI"
.LASF1656:
	.string	"__HRESET__ 1"
.LASF1460:
	.string	"strtold"
.LASF107:
	.string	"__cpp_digit_separators 201309L"
.LASF98:
	.string	"__cpp_delegating_constructors 200604L"
.LASF1913:
	.string	"_mm256_mask_cvt_roundps_ph(A,B,C,D) _mm256_mask_cvtps_ph ((A), (B), (C), (D))"
.LASF1457:
	.string	"strtoll"
.LASF2184:
	.string	"UINT_FAST64_MAX (__UINT64_C(18446744073709551615))"
.LASF2352:
	.string	"__glibcxx_want_nonmember_container_access"
.LASF2086:
	.string	"__AMX_TILE__ 1"
.LASF898:
	.string	"_GLIBCXX_HAVE_COSL 1"
.LASF1774:
	.string	"_CMP_EQ_OS 0x10"
.LASF2266:
	.string	"__glibcxx_want_coroutine"
.LASF547:
	.string	"_GLIBCXX_DEPRECATED_SUGGEST(ALT) __attribute__ ((__deprecated__ (\"use '\" ALT \"' instead\")))"
.LASF2303:
	.string	"__glibcxx_string_udls 201304L"
.LASF2325:
	.string	"__glibcxx_is_aggregate 201703L"
.LASF1231:
	.string	"__HAVE_DISTINCT_FLOAT16 __HAVE_FLOAT16"
.LASF2126:
	.string	"__KL__ 1"
.LASF136:
	.string	"__cpp_impl_destroying_delete 201806L"
.LASF696:
	.string	"__TIMESIZE __WORDSIZE"
.LASF399:
	.string	"__DEC32_MIN__ 1E-95DF"
.LASF232:
	.string	"__FLT_MIN_EXP__ (-125)"
.LASF862:
	.string	"_PSTL_CPP14_MAKE_REVERSE_ITERATOR_PRESENT "
.LASF374:
	.string	"__FLT64X_EPSILON__ 1.08420217248550443400745280086994171e-19F64x"
.LASF2647:
	.string	"__isoc23_strtoul"
.LASF665:
	.string	"_LARGEFILE64_SOURCE 1"
.LASF1037:
	.string	"_GLIBCXX_HAVE___CXA_THREAD_ATEXIT_IMPL 1"
.LASF2391:
	.string	"__glibcxx_atomic_float 201711L"
.LASF38:
	.string	"__BYTE_ORDER__ __ORDER_LITTLE_ENDIAN__"
.LASF2477:
	.string	"__glibcxx_want_atomic_shared_ptr"
.LASF1334:
	.string	"__time_t_defined 1"
.LASF2392:
	.string	"__glibcxx_want_atomic_float"
.LASF1340:
	.string	"_ENDIAN_H 1"
.LASF229:
	.string	"__FLT_RADIX__ 2"
.LASF196:
	.string	"__INT32_C(c) c"
.LASF786:
	.string	"__glibc_macro_warning1(message) _Pragma (#message)"
.LASF280:
	.string	"__LDBL_IS_IEC_60559__ 1"
.LASF2622:
	.string	"__int_least8_t"
.LASF348:
	.string	"__FLT32X_DIG__ 15"
.LASF1893:
	.string	"_mm512_mask_rsqrt28_pd(W,U,A) _mm512_mask_rsqrt28_round_pd(W, U, A, _MM_FROUND_CUR_DIRECTION)"
.LASF1995:
	.string	"_mm_mask_mul_round_sch(W,U,A,B,R) _mm_mask_fmul_round_sch ((W), (U), (A), (B), (R))"
.LASF1724:
	.string	"_mm_test_mix_ones_zeros(M,V) _mm_testnzc_si128 ((M), (V))"
.LASF863:
	.string	"_PSTL_CPP14_INTEGER_SEQUENCE_PRESENT "
.LASF1613:
	.string	"__DISABLE_SGX__ "
.LASF1898:
	.string	"_mm_rcp28_sd(A,B) __builtin_ia32_rcp28sd_round(B, A, _MM_FROUND_CUR_DIRECTION)"
.LASF560:
	.string	"_GLIBCXX_CONSTEXPR constexpr"
.LASF1039:
	.string	"_GLIBCXX_LT_OBJDIR \".libs/\""
.LASF2160:
	.string	"UINT64_MAX (__UINT64_C(18446744073709551615))"
.LASF227:
	.string	"__FLT_EVAL_METHOD_TS_18661_3__ 0"
.LASF2564:
	.string	"__glibcxx_want_saturation_arithmetic"
.LASF1271:
	.string	"__STD_TYPE typedef"
.LASF84:
	.string	"__GXX_EXPERIMENTAL_CXX0X__ 1"
.LASF2297:
	.string	"__glibcxx_make_unique 201304L"
.LASF545:
	.string	"_GLIBCXX_USE_DEPRECATED 1"
.LASF1941:
	.string	"__DISABLE_AVX512IFMAVL__"
.LASF1621:
	.string	"__enclu_eenter(leaf,b,c,retval) __asm__ __volatile__(\"enclu\\n\\t\" : \"=a\" (retval), \"=c\" (c) : \"a\" (leaf), \"b\" (b), \"c\" (c) : \"cc\")"
.LASF2449:
	.string	"__glibcxx_want_to_address"
.LASF1846:
	.string	"_mm512_undefined_si512 _mm512_undefined_epi32"
.LASF2145:
	.string	"__WCHAR_MIN __WCHAR_MIN__"
.LASF1559:
	.string	"__LWP__"
.LASF115:
	.string	"__cpp_if_constexpr 201606L"
.LASF412:
	.string	"__DEC128_MAX_EXP__ 6145"
.LASF2152:
	.string	"INT64_MIN (-__INT64_C(9223372036854775807)-1)"
.LASF490:
	.string	"__BMI2__ 1"
.LASF1433:
	.string	"exit"
.LASF69:
	.string	"__UINT_LEAST64_TYPE__ long unsigned int"
.LASF1233:
	.string	"__HAVE_DISTINCT_FLOAT64 0"
.LASF338:
	.string	"__FLT128_MAX__ 1.18973149535723176508575932662800702e+4932F128"
.LASF578:
	.string	"_GLIBCXX_NAMESPACE_CXX11 __cxx11::"
.LASF1486:
	.string	"__SSE4A__"
.LASF1964:
	.string	"_mm256_dpbusd_epi32(A,B,C) ((__m256i) __builtin_ia32_vpdpbusd_v8si ((__v8si) (A), (__v8si) (B), (__v8si) (C)))"
.LASF2434:
	.string	"__glibcxx_math_constants 201907L"
.LASF402:
	.string	"__DEC32_SUBNORMAL_MIN__ 0.000001E-95DF"
.LASF636:
	.string	"__KERNEL_STRICT_NAMES"
.LASF1421:
	.string	"__COMPAR_FN_T "
.LASF49:
	.string	"__UINTMAX_TYPE__ long unsigned int"
.LASF606:
	.string	"_GLIBCXX_SYNCHRONIZATION_HAPPENS_AFTER(A) "
.LASF1270:
	.string	"__U64_TYPE unsigned long int"
.LASF347:
	.string	"__FLT32X_MANT_DIG__ 53"
.LASF1314:
	.string	"_BITS_TIME64_H 1"
.LASF1408:
	.string	"__ONCE_ALIGNMENT "
.LASF2580:
	.string	"strcat"
.LASF2179:
	.string	"INT_FAST32_MAX (9223372036854775807L)"
.LASF74:
	.string	"__UINT_FAST8_TYPE__ unsigned char"
.LASF489:
	.string	"__BMI__ 1"
.LASF968:
	.string	"_GLIBCXX_HAVE_POLL_H 1"
.LASF1294:
	.string	"__ID_T_TYPE __U32_TYPE"
.LASF166:
	.string	"__INT_WIDTH__ 32"
.LASF748:
	.string	"__attribute_alloc_align__(param) __attribute__ ((__alloc_align__ param))"
.LASF1014:
	.string	"_GLIBCXX_HAVE_SYS_TYPES_H 1"
.LASF2653:
	.string	"_Float16"
.LASF2092:
	.string	"_tile_stored(dst,base,stride) _tile_stored_internal (dst, base, stride)"
.LASF2429:
	.string	"__glibcxx_want_is_layout_compatible"
.LASF502:
	.string	"__XSAVEOPT__ 1"
.LASF572:
	.string	"_GLIBCXX_THROW_OR_ABORT(_EXC) (throw (_EXC))"
.LASF1969:
	.string	"_mm_dpwssd_epi32(A,B,C) ((__m128i) __builtin_ia32_vpdpwssd_v4si ((__v4si) (A), (__v4si) (B), (__v4si) (C)))"
.LASF1199:
	.string	"__WEXITSTATUS(status) (((status) & 0xff00) >> 8)"
.LASF2028:
	.string	"_mm_cmp_ph_mask(A,B,C) (__builtin_ia32_cmpph128_mask ((A), (B), (C), (-1)))"
.LASF2127:
	.string	"__DISABLE_KL__ "
.LASF2156:
	.string	"INT64_MAX (__INT64_C(9223372036854775807))"
.LASF381:
	.string	"__BFLT16_DIG__ 2"
.LASF629:
	.string	"__USE_LARGEFILE64"
.LASF2312:
	.string	"__glibcxx_want_as_const"
.LASF313:
	.string	"__FLT32_IS_IEC_60559__ 1"
.LASF1339:
	.string	"__BIT_TYPES_DEFINED__ 1"
.LASF543:
	.string	"_GLIBCXX_HAVE_ATTRIBUTE_VISIBILITY 1"
.LASF1979:
	.string	"__DISABLE_AVX512BITALGVL__"
.LASF764:
	.string	"__always_inline __inline __attribute__ ((__always_inline__))"
.LASF1683:
	.string	"_MM_MASK_MASK 0x1f80"
.LASF24:
	.string	"__LP64__ 1"
.LASF700:
	.string	"__USE_DYNAMIC_STACK_SIZE 1"
.LASF579:
	.string	"_GLIBCXX_BEGIN_NAMESPACE_CXX11 namespace __cxx11 {"
.LASF1258:
	.string	"__U16_TYPE unsigned short int"
.LASF1362:
	.string	"htobe32(x) __bswap_32 (x)"
.LASF847:
	.string	"_PSTL_STRING_AUX(x) #x"
.LASF759:
	.string	"__nonnull(params) __attribute_nonnull__ (params)"
.LASF1649:
	.string	"_WBNOINVDINTRIN_H_INCLUDED "
.LASF1529:
	.string	"_BMI2INTRIN_H_INCLUDED "
.LASF1038:
	.string	"_GLIBCXX_ICONV_CONST "
.LASF886:
	.string	"_GLIBCXX_HAVE_ATAN2L 1"
.LASF2076:
	.string	"__DISABLE_AVX512BF16VL__"
.LASF276:
	.string	"__LDBL_DENORM_MIN__ 3.64519953188247460252840593361941982e-4951L"
.LASF521:
	.string	"__SEG_FS 1"
.LASF749:
	.string	"__attribute_pure__ __attribute__ ((__pure__))"
.LASF1910:
	.string	"_AVX512VLINTRIN_H_INCLUDED "
.LASF353:
	.string	"__FLT32X_DECIMAL_DIG__ 17"
.LASF858:
	.string	"_PSTL_PRAGMA_SIMD_INCLUSIVE_SCAN(PRM) _PSTL_PRAGMA(omp scan inclusive(PRM))"
.LASF430:
	.string	"__GCC_ATOMIC_CHAR32_T_LOCK_FREE 2"
.LASF2504:
	.string	"__glibcxx_polymorphic_allocator 201902L"
.LASF96:
	.string	"__cpp_variadic_templates 200704L"
.LASF1113:
	.string	"_GLIBCXX_USE_SCHED_YIELD 1"
.LASF55:
	.string	"__INT16_TYPE__ short int"
.LASF332:
	.string	"__FLT128_DIG__ 33"
.LASF1709:
	.string	"_MM_FROUND_TO_NEAREST_INT 0x00"
.LASF642:
	.string	"__KERNEL_STRICT_NAMES "
.LASF2114:
	.string	"__AMX_BF16__"
.LASF256:
	.string	"__DBL_MIN__ double(2.22507385850720138309023271733240406e-308L)"
.LASF1085:
	.string	"_GLIBCXX_USE_C99_STDINT 1"
.LASF1384:
	.string	"__FDS_BITS(set) ((set)->fds_bits)"
.LASF576:
	.string	"_GLIBCXX_USE_DUAL_ABI 1"
.LASF909:
	.string	"_GLIBCXX_HAVE_FABSL 1"
.LASF500:
	.string	"__FXSR__ 1"
.LASF68:
	.string	"__UINT_LEAST32_TYPE__ unsigned int"
.LASF1945:
	.string	"__DISABLE_AVX512VBMIVL__"
.LASF2626:
	.string	"__int_least32_t"
.LASF1847:
	.string	"_mm512_setr4_epi64(e0,e1,e2,e3) _mm512_set4_epi64(e3,e2,e1,e0)"
.LASF1158:
	.string	"_SIZE_T_DEFINED_ "
.LASF2458:
	.string	"__glibcxx_interpolate 201902L"
.LASF388:
	.string	"__BFLT16_NORM_MAX__ 3.38953138925153547590470800371487867e+38BF16"
.LASF2599:
	.string	"size_t"
.LASF941:
	.string	"_GLIBCXX_HAVE_LIMIT_DATA 1"
.LASF434:
	.string	"__GCC_ATOMIC_LONG_LOCK_FREE 2"
.LASF2431:
	.string	"__glibcxx_want_is_nothrow_convertible"
.LASF1351:
	.string	"PDP_ENDIAN __PDP_ENDIAN"
.LASF2252:
	.string	"__glibcxx_want_is_null_pointer"
.LASF465:
	.string	"__SSE3__ 1"
.LASF1900:
	.string	"_mm_rsqrt28_sd(A,B) __builtin_ia32_rsqrt28sd_round(B, A, _MM_FROUND_CUR_DIRECTION)"
.LASF2130:
	.string	"__WIDEKL__ 1"
.LASF1296:
	.string	"__TIME_T_TYPE __SYSCALL_SLONG_TYPE"
.LASF915:
	.string	"_GLIBCXX_HAVE_FINITEL 1"
.LASF2655:
	.string	"uint8_t"
.LASF2597:
	.string	"quot"
.LASF1838:
	.string	"_mm_mask_cvtsd_ss(W,U,A,B) _mm_mask_cvt_roundsd_ss ((W), (U), (A), (B), _MM_FROUND_CUR_DIRECTION)"
.LASF2561:
	.string	"__glibcxx_want_fstream_native_handle"
.LASF425:
	.string	"__GCC_HAVE_SYNC_COMPARE_AND_SWAP_16 1"
.LASF799:
	.string	"__stub_fchflags "
.LASF2524:
	.string	"__glibcxx_want_freestanding_variant"
.LASF1824:
	.ascii	"_MM256_REDUCE_OPERATOR_MAX_MIN_EP8(op) __m128i __T1 = _mm256"
	.ascii	"_extracti128_si256 (__V, 0); __m128i __T2 = _mm256_extracti1"
	.ascii	"28_si256 (__V, 1); __m128i __T3 = _mm_ ##op (__T1, __T2); __"
	.ascii	"m128i __T4 = (__m128i)__builtin_shufflevector ((__v16qi)__T3"
	.ascii	", (__v16qi)__T3, 8, 9, 10, 11, 12, 13, 14, 15, 8, 9, 10, 11,"
	.ascii	" 12, 13, 14, 15); __m128i __T5 = _mm_ ##op (__T3, __T4); __m"
	.ascii	"128i __T6 = (__m128i)__builtin_shufflevector ((__v16qi)__T5,"
	.ascii	" (__v16qi)__T5, 4, 5, 6, 7, 4, 5, 6, 7, 8, 9, 10, 11, 12, 13"
	.ascii	", 14, 15); __m128i __T7 = _mm_ ##op (__T5, __T6); __m128i __"
	.ascii	"T8 = (__m128i)__builtin_shufflevector ((__v16qi)__T7, (__v16"
	.ascii	"qi)__T5, 2, 3, 2, 3, 4, 5, 6, 7, 8, 9, 10, 11, "
	.string	"12, 13, 14, 15); __m128i __T9 = _mm_ ##op (__T7, __T8); __m128i __T10 = (__m128i)__builtin_shufflevector ((__v16qi)__T9, (__v16qi)__T9, 1, 1, 2, 3, 4, 5, 6, 7, 8, 9, 10, 11, 12, 13, 14, 15); __v16qi __T11 = (__v16qi)_mm_ ##op (__T9, __T10); return __T11[0]"
.LASF1756:
	.string	"_mm_aesenclast_si128(X,Y) (__m128i) __builtin_ia32_aesenclast128 ((__v2di) (X), (__v2di) (Y))"
.LASF1262:
	.string	"__ULONGWORD_TYPE unsigned long int"
.LASF1639:
	.string	"_UINTRNTRIN_H_INCLUDED "
.LASF1186:
	.string	"NULL"
.LASF1003:
	.string	"_GLIBCXX_HAVE_SYS_IPC_H 1"
.LASF607:
	.string	"_GLIBCXX_BEGIN_EXTERN_C extern \"C\" {"
.LASF142:
	.string	"__cpp_impl_coroutine 201902L"
.LASF1629:
	.string	"_TBMINTRIN_H_INCLUDED "
.LASF1865:
	.ascii	"__MM512_REDUCE_OP(op) __v4di __T1 = (__v4di) _mm512_extracti"
	.ascii	"64x4_epi64 (__A, 1); __v4di __T2 = ("
	.string	"__v4di) _mm512_extracti64x4_epi64 (__A, 0); __m256i __T3 = (__m256i) (__T1 op __T2); __v2di __T4 = (__v2di) _mm256_extracti128_si256 (__T3, 1); __v2di __T5 = (__v2di) _mm256_extracti128_si256 (__T3, 0); __v2di __T6 = __T4 op __T5; return __T6[0] op __T6[1]"
.LASF91:
	.string	"__cpp_lambdas 200907L"
.LASF621:
	.string	"__USE_XOPEN"
.LASF245:
	.string	"__FP_FAST_FMAF 1"
.LASF449:
	.string	"__amd64__ 1"
.LASF2498:
	.string	"__glibcxx_jthread 201911L"
.LASF1924:
	.string	"_AVX512VLBWINTRIN_H_INCLUDED "
.LASF2186:
	.string	"INTPTR_MAX (9223372036854775807L)"
.LASF1783:
	.string	"_CMP_NGE_UQ 0x19"
.LASF645:
	.string	"__GLIBC_USE(F) __GLIBC_USE_ ## F"
.LASF1125:
	.string	"_GLIBCXX_X86_RDSEED 1"
.LASF881:
	.string	"_GLIBCXX_HAVE_ARPA_INET_H 1"
.LASF1767:
	.string	"_CMP_NGE_US 0x09"
.LASF2462:
	.string	"__glibcxx_shift 201806L"
.LASF392:
	.string	"__BFLT16_HAS_DENORM__ 1"
.LASF2475:
	.string	"__glibcxx_want_constexpr_memory"
.LASF112:
	.string	"__cpp_nested_namespace_definitions 201411L"
.LASF891:
	.string	"_GLIBCXX_HAVE_C99_FLT_EVAL_TYPES 1"
.LASF694:
	.string	"__WORDSIZE_TIME64_COMPAT32 1"
.LASF1693:
	.string	"_MM_ROUND_UP 0x4000"
.LASF2452:
	.string	"__glibcxx_type_identity 201806L"
.LASF791:
	.string	"__attr_access_none(argno) __attribute__ ((__access__ (__none__, argno)))"
.LASF1181:
	.string	"_GCC_WCHAR_T "
.LASF776:
	.string	"__attribute_copy__(arg) __attribute__ ((__copy__ (arg)))"
.LASF2334:
	.string	"__glibcxx_want_make_from_tuple"
.LASF1681:
	.string	"_MM_EXCEPT_UNDERFLOW 0x0010"
.LASF2290:
	.string	"__glibcxx_want_to_chars"
.LASF2221:
	.string	"UINT_LEAST16_WIDTH 16"
.LASF150:
	.string	"__EXCEPTIONS 1"
.LASF1163:
	.string	"___int_size_t_h "
.LASF1120:
	.string	"_GLIBCXX_USE_UTIME 1"
.LASF1210:
	.string	"__WCOREFLAG 0x80"
.LASF1266:
	.string	"__UWORD_TYPE unsigned long int"
.LASF2159:
	.string	"UINT32_MAX (4294967295U)"
.LASF1799:
	.string	"_AVXIFMAINTRIN_H_INCLUDED "
.LASF1977:
	.string	"_AVX512BITALGVLINTRIN_H_INCLUDED "
.LASF216:
	.string	"__INT_FAST64_WIDTH__ 64"
.LASF783:
	.string	"__LDBL_REDIR_DECL(name) "
.LASF1507:
	.string	"_rotl(a,b) __rold((a), (b))"
.LASF2554:
	.string	"__glibcxx_want_spanstream"
.LASF1690:
	.string	"_MM_ROUND_MASK 0x6000"
.LASF15:
	.string	"__ATOMIC_ACQ_REL 4"
.LASF1719:
	.string	"_MM_FROUND_TRUNC (_MM_FROUND_TO_ZERO | _MM_FROUND_RAISE_EXC)"
.LASF122:
	.string	"__cpp_variadic_using 201611L"
.LASF2339:
	.string	"__glibcxx_variant 202106L"
.LASF1410:
	.string	"_THREAD_MUTEX_INTERNAL_H 1"
.LASF1685:
	.string	"_MM_MASK_DENORM 0x0100"
.LASF552:
	.string	"_GLIBCXX17_DEPRECATED [[__deprecated__]]"
.LASF2526:
	.string	"__glibcxx_want_is_scoped_enum"
.LASF135:
	.string	"__cpp_nontype_template_parameter_class 201806L"
.LASF1499:
	.string	"_bit_scan_reverse(a) __bsrd(a)"
.LASF1333:
	.string	"__clockid_t_defined 1"
.LASF1184:
	.string	"_BSD_WCHAR_T_"
.LASF2371:
	.string	"__glibcxx_memory_resource 201603L"
.LASF1860:
	.string	"__MM512_REDUCE_OP"
.LASF835:
	.string	"_GLIBCXX_DOXYGEN_ONLY(X) "
.LASF1543:
	.string	"_CMPCCXADDINTRIN_H_INCLUDED "
.LASF441:
	.string	"__GCC_HAVE_DWARF2_CFI_ASM 1"
.LASF1012:
	.string	"_GLIBCXX_HAVE_SYS_SYSINFO_H 1"
.LASF1224:
	.string	"__CFLOAT128 _Complex _Float128"
.LASF464:
	.string	"__SSE2__ 1"
.LASF2167:
	.string	"INT_LEAST32_MAX (2147483647)"
.LASF1156:
	.string	"_SIZE_T_ "
.LASF2161:
	.string	"INT_LEAST8_MIN (-128)"
.LASF1301:
	.string	"__KEY_T_TYPE __S32_TYPE"
.LASF1712:
	.string	"_MM_FROUND_TO_ZERO 0x03"
.LASF497:
	.string	"__RDSEED__ 1"
.LASF90:
	.string	"__cpp_user_defined_literals 200809L"
.LASF286:
	.string	"__FLT16_MAX_10_EXP__ 4"
.LASF2259:
	.string	"__glibcxx_void_t 201411L"
.LASF104:
	.string	"__cpp_decltype_auto 201304L"
.LASF1057:
	.string	"_GLIBCXX98_USE_C99_WCHAR 1"
.LASF1915:
	.string	"_mm_mask_cvt_roundps_ph(A,B,C,D) _mm_mask_cvtps_ph ((A), (B), (C), (D))"
.LASF1167:
	.string	"__need_size_t"
.LASF980:
	.string	"_GLIBCXX_HAVE_SINF 1"
.LASF2113:
	.string	"__DISABLE_AMX_BF16__"
.LASF2321:
	.string	"__glibcxx_hardware_interference_size 201703L"
.LASF2135:
	.string	"_tile_dpfp16ps_internal(dst,src1,src2) __asm__ volatile (\"{tdpfp16ps\\t%%tmm%c[_src2], %%tmm%c[_src1], %%tmm%c[_dst]\t\t    |tdpfp16ps\\ttmm%c[_dst], tmm%c[_src1], tmm%c[_src2]}\" :: [_dst]\"i\"(dst), [_src1]\"i\"(src1), [_src2]\"i\"(src2))"
.LASF2374:
	.string	"__glibcxx_want_node_extract"
.LASF1354:
	.string	"__bswap_constant_16(x) ((__uint16_t) ((((x) >> 8) & 0xff) | (((x) & 0xff) << 8)))"
.LASF689:
	.string	"__USE_XOPEN2K8XSI 1"
.LASF1797:
	.string	"__DISABLE_AVXVNNIVL__"
.LASF548:
	.string	"_GLIBCXX11_DEPRECATED _GLIBCXX_DEPRECATED"
.LASF1143:
	.string	"__GLIBC_USE_IEC_60559_FUNCS_EXT_C23 1"
.LASF2490:
	.string	"__glibcxx_constexpr_string 201907L"
.LASF564:
	.string	"_GLIBCXX20_CONSTEXPR constexpr"
.LASF1757:
	.string	"_AVXINTRIN_H_INCLUDED "
.LASF2607:
	.string	"lldiv_t"
.LASF1608:
	.string	"__DISABLE_SERIALIZE__ "
.LASF2386:
	.string	"__glibcxx_want_unordered_map_try_emplace"
.LASF1509:
	.string	"_STDDEF_H "
.LASF949:
	.string	"_GLIBCXX_HAVE_LINUX_TYPES_H 1"
.LASF2404:
	.string	"__glibcxx_bit_cast 201806L"
.LASF1439:
	.string	"mblen"
.LASF413:
	.string	"__DEC128_MIN__ 1E-6143DL"
.LASF2194:
	.string	"SIG_ATOMIC_MAX (2147483647)"
.LASF649:
	.string	"_ISOC99_SOURCE 1"
.LASF57:
	.string	"__INT64_TYPE__ long int"
.LASF1607:
	.string	"__SERIALIZE__ 1"
.LASF403:
	.string	"__DEC64_MANT_DIG__ 16"
.LASF1024:
	.string	"_GLIBCXX_HAVE_TRUNCATE 1"
.LASF1956:
	.string	"_AVX512VPOPCNTDQINTRIN_H_INCLUDED "
.LASF942:
	.string	"_GLIBCXX_HAVE_LIMIT_FSIZE 1"
.LASF224:
	.string	"__GCC_IEC_559 2"
.LASF519:
	.string	"__MOVBE__ 1"
.LASF884:
	.string	"_GLIBCXX_HAVE_AS_SYMVER_DIRECTIVE 1"
.LASF944:
	.string	"_GLIBCXX_HAVE_LIMIT_VMEM 0"
.LASF2034:
	.ascii	"_MM256_REDUCE_OP(op) __m128h __T1 = (__m128h) _mm256_avx512_"
	.ascii	"extractf128_pd ((__m256d) __A, 0); __m128h __T2 = (__m128h) "
	.ascii	"_mm256_avx512_extractf128_pd ((__m256d) __A, 1); __m128h __T"
	.ascii	"3 = _mm_ ##op (__T1, __T2); __m128h __T4 = (__m128h) __built"
	.ascii	"in_shuffle (__T3, (__v8hi) { 2, 3, 0, 1, 6, 7, 4, 5 }); __m1"
	.ascii	"28h __T5 = "
	.string	"_mm_ ##op (__T3, __T4); __m128h __T6 = (__m128h) __builtin_shuffle (__T5, (__v8hi) { 4, 5 }); __m128h __T7 = _mm_ ##op (__T5, __T6); __m128h __T8 = (__m128h) __builtin_shuffle (__T7, (__v8hi) { 1, 0 }); __m128h __T9 = _mm_ ##op (__T7, __T8); return __T9[0]"
.LASF2347:
	.string	"__glibcxx_raw_memory_algorithms 201606L"
.LASF2209:
	.string	"UINTMAX_C(c) c ## UL"
.LASF745:
	.string	"__REDIRECT_FORTIFY_NTH __REDIRECT_NTH"
.LASF461:
	.string	"__WBNOINVD__ 1"
.LASF1273:
	.string	"__SYSCALL_SLONG_TYPE __SLONGWORD_TYPE"
.LASF2530:
	.string	"__glibcxx_want_ranges_chunk"
.LASF690:
	.string	"__USE_XOPEN2KXSI 1"
.LASF2394:
	.string	"__glibcxx_want_atomic_lock_free_type_aliases"
.LASF2311:
	.string	"__glibcxx_as_const 201510L"
.LASF725:
	.string	"__CONCAT(x,y) x ## y"
.LASF2103:
	.string	"_tile_dpbsud(dst,src1,src2) _tile_int8_dp_internal (tdpbsud, dst, src1, src2)"
.LASF1809:
	.string	"_AVXVNNIINT16INTRIN_H_INCLUDED "
.LASF255:
	.string	"__DBL_NORM_MAX__ double(1.79769313486231570814527423731704357e+308L)"
.LASF1555:
	.string	"_LWPINTRIN_H_INCLUDED "
.LASF1213:
	.string	"WSTOPSIG(status) __WSTOPSIG (status)"
.LASF883:
	.string	"_GLIBCXX_HAVE_ASINL 1"
.LASF1566:
	.string	"__DISABLE_MOVDIR64B__ "
.LASF1569:
	.string	"_MWAITINTRIN_H_INCLUDED "
.LASF164:
	.string	"__SCHAR_WIDTH__ 8"
.LASF800:
	.string	"__stub_gtty "
.LASF2241:
	.string	"WCHAR_WIDTH 32"
.LASF1768:
	.string	"_CMP_NGT_US 0x0a"
.LASF37:
	.string	"__ORDER_PDP_ENDIAN__ 3412"
.LASF1308:
	.string	"__OFF_T_MATCHES_OFF64_T 1"
.LASF1373:
	.string	"__FD_CLR(d,s) ((void) (__FDS_BITS (s)[__FD_ELT(d)] &= ~__FD_MASK(d)))"
.LASF2547:
	.string	"__glibcxx_want_formatters"
.LASF1082:
	.string	"_GLIBCXX_USE_C99_INTTYPES_WCHAR_T_TR1 1"
.LASF1591:
	.string	"__RAOINT__"
.LASF2540:
	.string	"__glibcxx_want_ranges_fold"
.LASF1939:
	.string	"_mm256_madd52lo_epu64(A,B,C) ((__m256i) __builtin_ia32_vpmadd52luq256 ((__v4di) (A), (__v4di) (B), (__v4di) (C)))"
.LASF1814:
	.string	"_AVX2INTRIN_H_INCLUDED "
.LASF1225:
	.string	"_BITS_FLOATN_COMMON_H "
.LASF1901:
	.string	"_mm_rsqrt28_ss(A,B) __builtin_ia32_rsqrt28ss_round(B, A, _MM_FROUND_CUR_DIRECTION)"
.LASF498:
	.string	"__PRFCHW__ 1"
.LASF1111:
	.string	"_GLIBCXX_USE_RANDOM_TR1 1"
.LASF1343:
	.string	"__BIG_ENDIAN 4321"
.LASF2683:
	.string	"MAX_N"
.LASF2242:
	.string	"WINT_WIDTH 32"
.LASF546:
	.string	"_GLIBCXX_DEPRECATED __attribute__ ((__deprecated__))"
.LASF1921:
	.string	"_AVX512DQINTRIN_H_INCLUDED "
.LASF805:
	.string	"_GLIBCXX_HAVE_GETS"
.LASF93:
	.string	"__cpp_attributes 200809L"
.LASF1310:
	.string	"__RLIM_T_MATCHES_RLIM64_T 1"
.LASF2174:
	.string	"INT_FAST16_MIN (-9223372036854775807L-1)"
.LASF2550:
	.string	"__glibcxx_want_ios_noreplace"
.LASF2643:
	.string	"_ZSt3divll"
.LASF2048:
	.string	"_mm256_mask_cmul_pch(W,U,A,B) _mm256_mask_fcmul_pch ((W), (U), (A), (B))"
.LASF838:
	.string	"_PSTL_ASSERT(_Condition) __glibcxx_assert(_Condition)"
.LASF828:
	.string	"_GLIBCXX_FLOAT_IS_IEEE_BINARY32 1"
.LASF986:
	.string	"_GLIBCXX_HAVE_SQRTL 1"
.LASF2207:
	.string	"UINT64_C(c) c ## UL"
.LASF2508:
	.string	"__glibcxx_semaphore 201907L"
.LASF557:
	.string	"_GLIBCXX23_DEPRECATED_SUGGEST(ALT) "
.LASF1393:
	.string	"__fsblkcnt_t_defined "
.LASF2435:
	.string	"__glibcxx_want_math_constants"
.LASF281:
	.string	"__FLT16_MANT_DIG__ 11"
.LASF2162:
	.string	"INT_LEAST16_MIN (-32767-1)"
.LASF2229:
	.string	"UINT_FAST16_WIDTH __WORDSIZE"
.LASF1882:
	.string	"_mm512_maskz_exp2a23_pd(U,A) _mm512_maskz_exp2a23_round_pd(U, A, _MM_FROUND_CUR_DIRECTION)"
.LASF1008:
	.string	"_GLIBCXX_HAVE_SYS_SEM_H 1"
.LASF2232:
	.string	"INT_FAST64_WIDTH 64"
.LASF177:
	.string	"__INTMAX_WIDTH__ 64"
.LASF1349:
	.string	"LITTLE_ENDIAN __LITTLE_ENDIAN"
.LASF2519:
	.string	"__glibcxx_want_freestanding_array"
.LASF198:
	.string	"__INT_LEAST64_MAX__ 0x7fffffffffffffffL"
.LASF846:
	.string	"_PSTL_PRAGMA(x) _Pragma(#x)"
.LASF2620:
	.string	"__int64_t"
.LASF2072:
	.string	"_AVX512BF16VLINTRIN_H_INCLUDED "
.LASF1736:
	.string	"_SIDD_UBYTE_OPS 0x00"
.LASF701:
	.string	"__USE_GNU 1"
.LASF1827:
	.string	"__DISABLE_AVX512F__ "
.LASF200:
	.string	"__INT_LEAST64_WIDTH__ 64"
.LASF2350:
	.string	"__glibcxx_want_array_constexpr"
.LASF2621:
	.string	"__uint64_t"
.LASF1394:
	.string	"__fsfilcnt_t_defined "
.LASF2364:
	.string	"__glibcxx_want_filesystem"
.LASF1046:
	.string	"_GLIBCXX_STDC_HEADERS 1"
.LASF1190:
	.string	"WNOHANG 1"
.LASF2070:
	.string	"__VAESINTRIN_H_INCLUDED "
.LASF1461:
	.string	"_IMMINTRIN_H_INCLUDED "
.LASF1403:
	.string	"__SIZEOF_PTHREAD_COND_T 48"
.LASF11:
	.string	"__ATOMIC_RELAXED 0"
.LASF1073:
	.string	"_GLIBCXX_USE_C99_COMPLEX_ARC 1"
.LASF1819:
	.ascii	"_MM256_REDUCE_OPERATOR_BASIC_EPI16(op) __v8hi __T1 = (__v8hi"
	.ascii	")_mm256_extracti128_si256 (__W, 0); __v8hi __T2 = (__v8hi)_m"
	.ascii	"m256_extracti128_si256 (__W, 1); __v8hi __T3 = __T1 op __T2;"
	.ascii	" __v8hi __T4 = __builtin_shufflevector (__T3, __T3, 4, 5, 6,"
	.ascii	" 7, 4, 5, 6"
	.string	", 7); __v8hi __T5 = __T3 op __T4; __v8hi __T6 = __builtin_shufflevector (__T5, __T5, 2, 3, 2, 3, 4, 5, 6, 7); __v8hi __T7 = __T5 op __T6; __v8hi __T8 = __builtin_shufflevector (__T7, __T7, 1, 1, 2, 3, 4, 5, 6, 7); __v8hi __T9 = __T7 op __T8; return __T9[0]"
.LASF2061:
	.string	"__SHA512__"
.LASF175:
	.string	"__UINTMAX_MAX__ 0xffffffffffffffffUL"
.LASF993:
	.string	"_GLIBCXX_HAVE_STRERROR_R 1"
.LASF535:
	.string	"__STDC_IEC_60559_COMPLEX__ 201404L"
.LASF108:
	.string	"__cpp_unicode_characters 201411L"
.LASF1027:
	.string	"_GLIBCXX_HAVE_UNLINKAT 1"
.LASF706:
	.string	"__GNU_LIBRARY__"
.LASF1938:
	.string	"_mm_madd52hi_epu64(A,B,C) ((__m128i) __builtin_ia32_vpmadd52huq128 ((__v2di) (A), (__v2di) (B), (__v2di) (C)))"
.LASF2408:
	.string	"__glibcxx_bounded_array_traits 201902L"
.LASF699:
	.string	"__USE_ATFILE 1"
.LASF1717:
	.string	"_MM_FROUND_FLOOR (_MM_FROUND_TO_NEG_INF | _MM_FROUND_RAISE_EXC)"
.LASF1573:
	.string	"_PCONFIGINTRIN_H_INCLUDED "
.LASF929:
	.string	"_GLIBCXX_HAVE_ICONV 1"
.LASF2122:
	.string	"__DISABLE_AMX_COMPLEX__"
.LASF1572:
	.string	"_MWAITXINTRIN_H_INCLUDED "
.LASF580:
	.string	"_GLIBCXX_END_NAMESPACE_CXX11 }"
.LASF2330:
	.string	"__glibcxx_want_launder"
.LASF867:
	.string	"_PSTL_PRAGMA_SIMD_EARLYEXIT "
.LASF1808:
	.string	"__AVXVNNIINT8__"
.LASF2288:
	.string	"__glibcxx_want_robust_nonmodifying_seq_ops"
.LASF139:
	.string	"__cpp_aggregate_paren_init 201902L"
.LASF815:
	.string	"_GLIBCXX_TXN_SAFE "
.LASF1778:
	.string	"_CMP_NEQ_US 0x14"
.LASF2021:
	.string	"_mm512_maskz_cmul_pch(U,A,B) _mm512_maskz_fcmul_pch ((U), (A), (B))"
.LASF922:
	.string	"_GLIBCXX_HAVE_FREXPL 1"
.LASF1560:
	.string	"_MOVDIRINTRIN_H_INCLUDED "
.LASF646:
	.string	"_ISOC95_SOURCE"
.LASF1131:
	.string	"__GLIBC_INTERNAL_STARTING_HEADER_IMPLEMENTATION"
.LASF1792:
	.string	"_mm256_ceil_ps(V) _mm256_round_ps ((V), _MM_FROUND_CEIL)"
.LASF1192:
	.string	"WSTOPPED 2"
.LASF1908:
	.string	"__AVX512PF__"
.LASF744:
	.string	"__REDIRECT_FORTIFY __REDIRECT"
.LASF1490:
	.string	"__VAES__"
.LASF2054:
	.string	"__DISABLE_SM3__ "
.LASF1091:
	.string	"_GLIBCXX_USE_DECIMAL_FLOAT 1"
.LASF242:
	.string	"__FLT_HAS_DENORM__ 1"
.LASF1558:
	.string	"__DISABLE_LWP__"
.LASF1417:
	.string	"__have_pthread_attr_t 1"
.LASF1482:
	.string	"__AVX512VNNI__"
.LASF2454:
	.string	"__glibcxx_unwrap_ref 201811L"
.LASF1449:
	.string	"strtoul"
.LASF1193:
	.string	"WEXITED 4"
.LASF211:
	.string	"__INT_FAST16_MAX__ 0x7fffffffffffffffL"
.LASF2456:
	.string	"__glibcxx_constexpr_iterator 201811L"
.LASF1287:
	.string	"__RLIM64_T_TYPE __UQUAD_TYPE"
.LASF836:
	.string	"_GLIBCXX_USE_TBB_PAR_BACKEND __has_include(<tbb/tbb.h>)"
.LASF2455:
	.string	"__glibcxx_want_unwrap_ref"
.LASF1658:
	.string	"__DISABLE_HRESET__"
.LASF1040:
	.string	"_GLIBCXX_PACKAGE_BUGREPORT \"\""
.LASF712:
	.string	"__PMT"
.LASF2105:
	.string	"_tile_dpbuud(dst,src1,src2) _tile_int8_dp_internal (tdpbuud, dst, src1, src2)"
.LASF1182:
	.string	"_WCHAR_T_DECLARED "
.LASF2155:
	.string	"INT32_MAX (2147483647)"
.LASF2215:
	.string	"UINT32_WIDTH 32"
.LASF1950:
	.string	"__AVX5124FMAPS__"
.LASF14:
	.string	"__ATOMIC_RELEASE 3"
.LASF184:
	.string	"__INT64_MAX__ 0x7fffffffffffffffL"
.LASF2586:
	.string	"strerror"
.LASF1407:
	.string	"__LOCK_ALIGNMENT "
.LASF1056:
	.string	"_GLIBCXX98_USE_C99_STDLIB 1"
.LASF2119:
	.ascii	"_tile_cm"
	.string	"mrlfp16ps_internal(src1_dst,src2,src3) __asm__ volatile (\"{tcmmrlfp16ps\\t%%tmm%c[_src3], %%tmm%c[_src2], %%tmm%c[_src1_dst]\t      |tcmmrlfp16ps\\ttmm%c[_src1_dst], tmm%c[_src2], tmm%c[_src3]}\" :: [_src1_dst]\"i\"(src1_dst), [_src2]\"i\"(src2), [_src3]\"i\"(src3))"
.LASF503:
	.string	"__SSE_MATH__ 1"
.LASF1581:
	.string	"_PKUINTRIN_H_INCLUDED "
.LASF2489:
	.string	"__glibcxx_want_constexpr_dynamic_alloc"
.LASF2596:
	.string	"strxfrm"
.LASF7:
	.string	"__GNUC__ 14"
.LASF2613:
	.string	"signed char"
.LASF371:
	.string	"__FLT64X_MAX__ 1.18973149535723176502126385303097021e+4932F64x"
.LASF1202:
	.string	"__WIFEXITED(status) (__WTERMSIG(status) == 0)"
.LASF531:
	.string	"_STDC_PREDEF_H 1"
.LASF538:
	.string	"_GLIBCXX_RELEASE 14"
.LASF1849:
	.string	"_mm512_setr4_pd(e0,e1,e2,e3) _mm512_set4_pd(e3,e2,e1,e0)"
.LASF197:
	.string	"__INT_LEAST32_WIDTH__ 32"
.LASF389:
	.string	"__BFLT16_MIN__ 1.17549435082228750796873653722224568e-38BF16"
.LASF1894:
	.string	"_mm512_maskz_rsqrt28_pd(U,A) _mm512_maskz_rsqrt28_round_pd(U, A, _MM_FROUND_CUR_DIRECTION)"
.LASF2363:
	.string	"__glibcxx_filesystem 201703L"
.LASF355:
	.string	"__FLT32X_NORM_MAX__ 1.79769313486231570814527423731704357e+308F32x"
.LASF2208:
	.string	"INTMAX_C(c) c ## L"
.LASF1451:
	.string	"wcstombs"
.LASF263:
	.string	"__DBL_IS_IEC_60559__ 1"
.LASF343:
	.string	"__FLT128_HAS_DENORM__ 1"
.LASF899:
	.string	"_GLIBCXX_HAVE_DECL_STRNLEN 1"
.LASF1474:
	.string	"__AVX512CD__"
.LASF1848:
	.string	"_mm512_setr4_epi32(e0,e1,e2,e3) _mm512_set4_epi32(e3,e2,e1,e0)"
.LASF446:
	.string	"__SIZEOF_WINT_T__ 4"
.LASF2032:
	.ascii	"_MM256_REDUCE_OP(op) __m128h __T1 = (__m128h) _mm256_avx512_"
	.ascii	"extractf128_pd ((__m256d) __A, 0); __m128h __T2 = (__m128h) "
	.ascii	"_mm256_avx512_extractf128_pd ((__m256d) __A, 1); __m128h __T"
	.ascii	"3 = (__T1 op __T2); __m128h"
	.string	" __T4 = (__m128h) __builtin_shuffle (__T3, (__v8hi) { 4, 5, 6, 7, 0, 1, 2, 3 }); __m128h __T5 = (__T3) op (__T4); __m128h __T6 = (__m128h) __builtin_shuffle (__T5, (__v8hi) { 2, 3, 0, 1, 4, 5, 6, 7 }); __m128h __T7 = __T5 op __T6; return __T7[0] op __T7[1]"
.LASF1571:
	.string	"__DISABLE_MWAIT__"
.LASF2553:
	.string	"__glibcxx_want_print"
.LASF2480:
	.string	"__glibcxx_barrier 201907L"
.LASF1041:
	.string	"_GLIBCXX_PACKAGE_NAME \"package-unused\""
.LASF1221:
	.string	"__HAVE_FLOAT64X 1"
.LASF756:
	.string	"__attribute_format_arg__(x) __attribute__ ((__format_arg__ (x)))"
.LASF1624:
	.string	"__enclv_bc(leaf,b,c,retval) __asm__ __volatile__(\"enclv\\n\\t\" : \"=a\" (retval) : \"a\" (leaf), \"b\" (b), \"c\" (c) : \"cc\")"
.LASF2005:
	.string	"__DISABLE_AVX512FP16_512__ "
.LASF485:
	.string	"__AVX512VPOPCNTDQ__ 1"
.LASF111:
	.string	"__cpp_enumerator_attributes 201411L"
.LASF512:
	.string	"__RDPID__ 1"
.LASF1949:
	.string	"__DISABLE_AVX5124FMAPS__"
.LASF1325:
	.string	"__off_t_defined "
.LASF1855:
	.string	"_MM_CMPINT_NE 0x4"
.LASF155:
	.string	"__INT_MAX__ 0x7fffffff"
.LASF769:
	.string	"__va_arg_pack() __builtin_va_arg_pack ()"
.LASF2358:
	.string	"__glibcxx_want_boyer_moore_searcher"
.LASF571:
	.string	"_GLIBCXX_NOTHROW _GLIBCXX_USE_NOEXCEPT"
.LASF1784:
	.string	"_CMP_NGT_UQ 0x1a"
.LASF132:
	.string	"__cpp_constinit 201907L"
.LASF2293:
	.string	"__glibcxx_complex_udls 201309L"
.LASF1361:
	.string	"le16toh(x) __uint16_identity (x)"
.LASF574:
	.string	"_GLIBCXX_NOEXCEPT_QUAL noexcept (_NE)"
.LASF2100:
	.string	"__DISABLE_AMX_INT8__ "
.LASF152:
	.string	"__GXX_ABI_VERSION 1019"
.LASF663:
	.string	"_XOPEN_SOURCE_EXTENDED 1"
.LASF1194:
	.string	"WCONTINUED 8"
.LASF2573:
	.string	"__CORRECT_ISO_CPP_STRINGS_H_PROTO "
.LASF1817:
	.ascii	"_MM_REDUCE_OPERATOR_BASIC_EPI16(op) __v8hi __T1 = (__v8hi)__"
	.ascii	"W; __v8hi __T2 = __builtin_shufflevector (__T1, __T1, 4, 5, "
	.ascii	"6, 7, 4, 5, 6"
	.string	", 7); __v8hi __T3 = __T1 op __T2; __v8hi __T4 = __builtin_shufflevector (__T3, __T3, 2, 3, 2, 3, 4, 5, 6, 7); __v8hi __T5 = __T3 op __T4; __v8hi __T6 = __builtin_shufflevector (__T5, __T5, 1, 1, 2, 3, 4, 5, 6, 7); __v8hi __T7 = __T5 op __T6; return __T7[0]"
.LASF1261:
	.string	"__SLONGWORD_TYPE long int"
.LASF1661:
	.string	"__USER_MSR__ 1"
.LASF918:
	.string	"_GLIBCXX_HAVE_FLOORL 1"
.LASF2133:
	.string	"__WIDEKL__"
.LASF330:
	.string	"__FLT64_IS_IEC_60559__ 1"
.LASF1643:
	.string	"__UINTR__"
.LASF2668:
	.string	"int_fast16_t"
.LASF445:
	.string	"__SIZEOF_WCHAR_T__ 4"
.LASF1922:
	.string	"__DISABLE_AVX512DQ__ "
.LASF853:
	.string	"_PSTL_PRAGMA_SIMD _PSTL_PRAGMA(omp simd)"
.LASF226:
	.string	"__FLT_EVAL_METHOD__ 0"
.LASF2188:
	.string	"INTMAX_MIN (-__INT64_C(9223372036854775807)-1)"
.LASF708:
	.string	"__GLIBC__ 2"
.LASF1473:
	.string	"__AVX512F__"
.LASF385:
	.string	"__BFLT16_MAX_10_EXP__ 38"
.LASF2368:
	.string	"__glibcxx_want_map_try_emplace"
.LASF2175:
	.string	"INT_FAST32_MIN (-9223372036854775807L-1)"
.LASF181:
	.string	"__INT8_MAX__ 0x7f"
.LASF510:
	.string	"__MWAITX__ 1"
.LASF1704:
	.string	"_MM_DENORMALS_ZERO_OFF 0x0000"
.LASF1174:
	.string	"_WCHAR_T_ "
.LASF582:
	.string	"_GLIBCXX_INLINE_VERSION 0"
.LASF974:
	.string	"_GLIBCXX_HAVE_READLINK 1"
.LASF597:
	.string	"_GLIBCXX_END_NAMESPACE_LDBL "
.LASF1402:
	.string	"__SIZEOF_PTHREAD_MUTEXATTR_T 4"
.LASF1097:
	.string	"_GLIBCXX_USE_GETTIMEOFDAY 1"
.LASF2430:
	.string	"__glibcxx_is_nothrow_convertible 201806L"
.LASF1880:
	.string	"_mm512_exp2a23_pd(A) _mm512_exp2a23_round_pd(A, _MM_FROUND_CUR_DIRECTION)"
.LASF1544:
	.string	"__CMPCCXADD__ 1"
.LASF2263:
	.string	"__glibcxx_math_spec_funcs 201003L"
.LASF1686:
	.string	"_MM_MASK_DIV_ZERO 0x0200"
.LASF1713:
	.string	"_MM_FROUND_CUR_DIRECTION 0x04"
.LASF723:
	.string	"__P(args) args"
.LASF2501:
	.string	"__glibcxx_want_latch"
.LASF967:
	.string	"_GLIBCXX_HAVE_POLL 1"
.LASF1237:
	.string	"__HAVE_FLOAT128_UNLIKE_LDBL (__HAVE_DISTINCT_FLOAT128 && __LDBL_MANT_DIG__ != 113)"
.LASF1726:
	.string	"_mm_ceil_sd(D,V) _mm_round_sd ((D), (V), _MM_FROUND_CEIL)"
.LASF18:
	.string	"__PIC__ 2"
.LASF1472:
	.string	"__AVX2__"
.LASF116:
	.string	"__cpp_capture_star_this 201603L"
.LASF1066:
	.string	"_GLIBCXX_STDIO_EOF -1"
.LASF2165:
	.string	"INT_LEAST8_MAX (127)"
.LASF2555:
	.string	"__glibcxx_want_stacktrace"
.LASF1152:
	.string	"_SYS_SIZE_T_H "
.LASF1286:
	.string	"__RLIM_T_TYPE __SYSCALL_ULONG_TYPE"
.LASF291:
	.string	"__FLT16_EPSILON__ 9.76562500000000000000000000000000000e-4F16"
.LASF1104:
	.string	"_GLIBCXX_USE_NANOSLEEP 1"
.LASF1336:
	.string	"__useconds_t_defined "
.LASF950:
	.string	"_GLIBCXX_HAVE_LOCALE_H 1"
.LASF1118:
	.string	"_GLIBCXX_USE_UCHAR_C8RTOMB_MBRTOC8_CXX20 1"
.LASF807:
	.string	"_GLIBCXX_HAVE_FLOAT128_MATH 1"
.LASF2269:
	.string	"__glibcxx_integer_sequence 201304L"
.LASF1117:
	.string	"_GLIBCXX_USE_TMPNAM 1"
.LASF321:
	.string	"__FLT64_MAX__ 1.79769313486231570814527423731704357e+308F64"
.LASF2569:
	.string	"__CORRECT_ISO_CPP_STRING_H_PROTO "
.LASF1718:
	.string	"_MM_FROUND_CEIL (_MM_FROUND_TO_POS_INF | _MM_FROUND_RAISE_EXC)"
.LASF998:
	.string	"_GLIBCXX_HAVE_STRUCT_DIRENT_D_TYPE 1"
.LASF450:
	.string	"__x86_64 1"
.LASF955:
	.string	"_GLIBCXX_HAVE_LSEEK 1"
.LASF2053:
	.string	"__SM3__ 1"
.LASF1406:
	.string	"__SIZEOF_PTHREAD_BARRIERATTR_T 4"
.LASF1068:
	.string	"_GLIBCXX_STDIO_SEEK_END 2"
.LASF1466:
	.string	"__SSE2__"
.LASF2354:
	.string	"__glibcxx_want_clamp"
.LASF635:
	.string	"__USE_FORTIFY_LEVEL"
.LASF1794:
	.string	"_AVXVNNIINTRIN_H_INCLUDED "
.LASF1990:
	.string	"__DISABLE_AVX512FP16__ "
.LASF1688:
	.string	"_MM_MASK_UNDERFLOW 0x0800"
.LASF2632:
	.string	"int8_t"
.LASF871:
	.string	"_PSTL_PRAGMA_VECTOR_UNALIGNED "
.LASF1337:
	.string	"__suseconds_t_defined "
.LASF1834:
	.string	"_mm_mask_scalef_ss(W,U,A,B) _mm_mask_scalef_round_ss ((W), (U), (A), (B), _MM_FROUND_CUR_DIRECTION)"
.LASF1590:
	.string	"__DISABLE_RAOINT__"
.LASF1297:
	.string	"__USECONDS_T_TYPE __U32_TYPE"
.LASF2153:
	.string	"INT8_MAX (127)"
.LASF1396:
	.string	"_THREAD_SHARED_TYPES_H 1"
.LASF1929:
	.ascii	"_MM256_AVX512_REDUCE_OPERATOR_MAX_MIN_EP8(op) __m128i __T1 ="
	.ascii	" _mm256_avx512_extracti128_si256 (__V, 0); __m128i __T2 = _m"
	.ascii	"m256_avx512_extracti128_si256 (__V, 1); __m128i __T3 = _mm_a"
	.ascii	"vx512_ ##op (__T1, __T2); __m128i __T4 = (__m128i)__builtin_"
	.ascii	"shufflevector ((__v16qi)__T3, (__v16qi)__T3, 8, 9, 10, 11, 1"
	.ascii	"2, 13, 14, 15, 8, 9, 10, 11, 12, 13, 14, 15); __m128i __T5 ="
	.ascii	" _mm_avx512_ ##op (__T3, __T4); __m128i __T6 = (__m128i)__bu"
	.ascii	"iltin_shufflevector ((__v16qi)__T5, (__v16qi)__T5, 4, 5, 6, "
	.ascii	"7, 4, 5, 6, 7, 8, 9, 10, 11, 12, 13, 14, 15); __m128i __T7 ="
	.ascii	" _mm_avx512_ ##op (__T5, __T6); __m128i __T8 = (__m128i)__bu"
	.ascii	"iltin_shufflevector ((__v16qi)__T7, (__v16qi)__T5, 2, 3, 2, "
	.ascii	"3, 4, 5, 6, 7, 8, 9, 10, 11, 12, 13, 14, 15"
	.string	"); __m128i __T9 = _mm_avx512_ ##op (__T7, __T8); __m128i __T10 = (__m128i)__builtin_shufflevector ((__v16qi)__T9, (__v16qi)__T9, 1, 1, 2, 3, 4, 5, 6, 7, 8, 9, 10, 11, 12, 13, 14, 15); __v16qi __T11 = (__v16qi)_mm_avx512_ ##op (__T9, __T10); return __T11[0]"
.LASF1011:
	.string	"_GLIBCXX_HAVE_SYS_STAT_H 1"
.LASF1739:
	.string	"_SIDD_SWORD_OPS 0x03"
.LASF1388:
	.string	"FD_CLR(fd,fdsetp) __FD_CLR (fd, fdsetp)"
.LASF1963:
	.string	"__DISABLE_AVX512VNNIVL__ "
.LASF1816:
	.string	"_mm_broadcastsd_pd(X) _mm_movedup_pd(X)"
.LASF1292:
	.string	"__FSFILCNT_T_TYPE __SYSCALL_ULONG_TYPE"
.LASF2370:
	.string	"__glibcxx_want_math_special_functions"
.LASF2685:
	.string	"_Z6matmulPKfS0_Pfi"
.LASF1446:
	.string	"srand"
.LASF2270:
	.string	"__glibcxx_want_integer_sequence"
.LASF626:
	.string	"__USE_XOPEN2K8"
.LASF954:
	.string	"_GLIBCXX_HAVE_LOGL 1"
.LASF2195:
	.string	"SIZE_MAX (18446744073709551615UL)"
.LASF1883:
	.string	"_mm512_exp2a23_ps(A) _mm512_exp2a23_round_ps(A, _MM_FROUND_CUR_DIRECTION)"
.LASF1595:
	.string	"__DISABLE_RTM__ "
.LASF2033:
	.string	"_MM256_REDUCE_OP"
.LASF1372:
	.string	"__FD_SET(d,s) ((void) (__FDS_BITS (s)[__FD_ELT(d)] |= __FD_MASK(d)))"
.LASF1298:
	.string	"__SUSECONDS_T_TYPE __SYSCALL_SLONG_TYPE"
.LASF1188:
	.string	"__need_NULL"
.LASF1524:
	.string	"offsetof(TYPE,MEMBER) __builtin_offsetof (TYPE, MEMBER)"
.LASF2163:
	.string	"INT_LEAST32_MIN (-2147483647-1)"
.LASF640:
	.string	"__GLIBC_USE_DEPRECATED_SCANF"
.LASF2068:
	.string	"_F16CINTRIN_H_INCLUDED "
.LASF695:
	.string	"__SYSCALL_WORDSIZE 64"
.LASF628:
	.string	"__USE_LARGEFILE"
.LASF1871:
	.string	"__DISABLE_AVX512ER__ "
.LASF397:
	.string	"__DEC32_MIN_EXP__ (-94)"
.LASF2433:
	.string	"__glibcxx_want_is_pointer_interconvertible"
.LASF2340:
	.string	"__glibcxx_want_variant"
.LASF1747:
	.string	"_SIDD_MASKED_NEGATIVE_POLARITY 0x30"
.LASF2400:
	.string	"__glibcxx_want_bind_front"
.LASF421:
	.string	"__GCC_HAVE_SYNC_COMPARE_AND_SWAP_1 1"
.LASF483:
	.string	"__AVX512VNNI__ 1"
.LASF924:
	.string	"_GLIBCXX_HAVE_GETIPINFO 1"
.LASF731:
	.string	"__bos(ptr) __builtin_object_size (ptr, __USE_FORTIFY_LEVEL > 1)"
.LASF987:
	.string	"_GLIBCXX_HAVE_STACKTRACE 1"
.LASF680:
	.string	"__USE_POSIX199309 1"
.LASF60:
	.string	"__UINT32_TYPE__ unsigned int"
.LASF816:
	.string	"_GLIBCXX_TXN_SAFE_DYN "
.LASF989:
	.string	"_GLIBCXX_HAVE_STDBOOL_H 1"
.LASF751:
	.string	"__attribute_maybe_unused__ __attribute__ ((__unused__))"
.LASF365:
	.string	"__FLT64X_DIG__ 18"
.LASF156:
	.string	"__LONG_MAX__ 0x7fffffffffffffffL"
.LASF1696:
	.string	"_MM_FLUSH_ZERO_ON 0x8000"
.LASF2131:
	.string	"__DISABLE_WIDEKL__ "
.LASF1538:
	.string	"__DISABLE_CLDEMOTE__"
.LASF2171:
	.string	"UINT_LEAST32_MAX (4294967295U)"
.LASF362:
	.string	"__FP_FAST_FMAF32x 1"
.LASF1546:
	.string	"__DISABLE_CMPCCXADD__"
.LASF650:
	.string	"_ISOC11_SOURCE"
.LASF269:
	.string	"__LDBL_MAX_10_EXP__ 4932"
.LASF2332:
	.string	"__glibcxx_want_logical_traits"
.LASF1937:
	.string	"_mm_madd52lo_epu64(A,B,C) ((__m128i) __builtin_ia32_vpmadd52luq128 ((__v2di) (A), (__v2di) (B), (__v2di) (C)))"
.LASF2022:
	.string	"_mm512_cmul_round_pch(A,B,R) _mm512_fcmul_round_pch ((A), (B), (R))"
.LASF143:
	.string	"__cpp_sized_deallocation 201309L"
.LASF408:
	.string	"__DEC64_EPSILON__ 1E-15DD"
.LASF1741:
	.string	"_SIDD_CMP_RANGES 0x04"
.LASF889:
	.string	"_GLIBCXX_HAVE_ATOMIC_LOCK_POLICY 1"
.LASF2353:
	.string	"__glibcxx_clamp 201603L"
.LASF120:
	.string	"__cpp_template_auto 201606L"
.LASF1436:
	.string	"labs"
.LASF1488:
	.string	"__SSE_MATH__"
.LASF2568:
	.string	"_STRING_H 1"
.LASF398:
	.string	"__DEC32_MAX_EXP__ 97"
.LASF2258:
	.string	"__glibcxx_want_is_swappable"
.LASF1283:
	.string	"__OFF_T_TYPE __SYSCALL_SLONG_TYPE"
.LASF363:
	.string	"__FLT32X_IS_IEC_60559__ 1"
.LASF556:
	.string	"_GLIBCXX23_DEPRECATED "
.LASF894:
	.string	"_GLIBCXX_HAVE_COMPLEX_H 1"
.LASF1503:
	.string	"_rdtscp(a) __rdtscp(a)"
.LASF1450:
	.string	"system"
.LASF2255:
	.string	"__glibcxx_shared_ptr_arrays 201707L"
.LASF2532:
	.string	"__glibcxx_want_ranges_chunk_by"
.LASF2460:
	.string	"__glibcxx_constexpr_utility 201811L"
.LASF2453:
	.string	"__glibcxx_want_type_identity"
.LASF2633:
	.string	"int16_t"
.LASF1620:
	.string	"__enclu_bcd(leaf,b,c,d,retval) __asm__ __volatile__(\"enclu\\n\\t\" : \"=a\" (retval) : \"a\" (leaf), \"b\" (b), \"c\" (c), \"d\" (d) : \"cc\")"
.LASF507:
	.string	"__XSAVEC__ 1"
.LASF530:
	.string	"_GNU_SOURCE 1"
.LASF1991:
	.string	"_mm_mul_sch(A,B) _mm_fmul_sch ((A), (B))"
.LASF341:
	.string	"__FLT128_EPSILON__ 1.92592994438723585305597794258492732e-34F128"
.LASF444:
	.string	"__SIZEOF_INT128__ 16"
.LASF2316:
	.string	"__glibcxx_want_bool_constant"
.LASF346:
	.string	"__FLT128_IS_IEC_60559__ 1"
.LASF1114:
	.string	"_GLIBCXX_USE_SC_NPROCESSORS_ONLN 1"
.LASF480:
	.string	"__AVX512VBMI__ 1"
.LASF1634:
	.string	"_TSXLDTRKINTRIN_H_INCLUDED "
.LASF1238:
	.string	"__HAVE_FLOATN_NOT_TYPEDEF 0"
.LASF1895:
	.string	"_mm512_rsqrt28_ps(A) _mm512_rsqrt28_round_ps(A, _MM_FROUND_CUR_DIRECTION)"
.LASF266:
	.string	"__LDBL_MIN_EXP__ (-16381)"
.LASF821:
	.string	"_GLIBCXX_USE_C99_COMPLEX _GLIBCXX11_USE_C99_COMPLEX"
.LASF2344:
	.string	"__glibcxx_want_gcd"
.LASF140:
	.string	"__cpp_using_enum 201907L"
.LASF1889:
	.string	"_mm512_rcp28_ps(A) _mm512_rcp28_round_ps(A, _MM_FROUND_CUR_DIRECTION)"
.LASF453:
	.string	"__SIZEOF_FLOAT128__ 16"
.LASF1149:
	.string	"__size_t__ "
.LASF2243:
	.string	"_GCC_WRAP_STDINT_H "
.LASF682:
	.string	"__USE_XOPEN2K 1"
.LASF1092:
	.string	"_GLIBCXX_USE_DEV_RANDOM 1"
.LASF2546:
	.string	"__glibcxx_want_adaptor_iterator_pair_constructor"
.LASF1048:
	.string	"_GLIBCXX11_USE_C99_COMPLEX 1"
.LASF1707:
	.string	"_TMMINTRIN_H_INCLUDED "
.LASF1178:
	.string	"_WCHAR_T_H "
.LASF377:
	.string	"__FLT64X_HAS_INFINITY__ 1"
.LASF752:
	.string	"__attribute_used__ __attribute__ ((__used__))"
.LASF2260:
	.string	"__glibcxx_want_void_t"
.LASF508:
	.string	"__XSAVES__ 1"
.LASF33:
	.string	"__CHAR_BIT__ 8"
.LASF662:
	.string	"_XOPEN_SOURCE_EXTENDED"
.LASF1364:
	.string	"be32toh(x) __bswap_32 (x)"
.LASF1356:
	.ascii	"__bswap_constant_64(x) ((((x) & 0xff00000000000000ull) >> 56"
	.ascii	") | (((x) & 0x00ff000000"
	.string	"000000ull) >> 40) | (((x) & 0x0000ff0000000000ull) >> 24) | (((x) & 0x000000ff00000000ull) >> 8) | (((x) & 0x00000000ff000000ull) << 8) | (((x) & 0x0000000000ff0000ull) << 24) | (((x) & 0x000000000000ff00ull) << 40) | (((x) & 0x00000000000000ffull) << 56))"
.LASF2492:
	.string	"__glibcxx_constexpr_vector 201907L"
.LASF2141:
	.string	"__STDC_CONSTANT_MACROS "
.LASF2211:
	.string	"UINT8_WIDTH 8"
.LASF1145:
	.string	"__GLIBC_USE_IEC_60559_TYPES_EXT 1"
.LASF1887:
	.string	"_mm512_mask_rcp28_pd(W,U,A) _mm512_mask_rcp28_round_pd(W, U, A, _MM_FROUND_CUR_DIRECTION)"
.LASF1859:
	.string	"_MM_CMPINT_GT 0x6"
.LASF2093:
	.string	"_tile_stored_internal(src,base,stride) __asm__ volatile (\"{tilestored\\t%%tmm%c[_src], (%0,%1,1)|tilestored\\t[%0+%1*1], tmm%c[_src]}\" :: \"r\" ((void*) (base)), \"r\" ((__PTRDIFF_TYPE__) (stride)), [_src]\"i\"(src) : \"memory\")"
.LASF1526:
	.string	"_GXX_NULLPTR_T "
.LASF595:
	.string	"_GLIBCXX_NAMESPACE_LDBL "
.LASF997:
	.string	"_GLIBCXX_HAVE_STRTOLD 1"
.LASF1801:
	.string	"__DISABLE_AVXIFMA__ "
.LASF2302:
	.string	"__glibcxx_want_shared_timed_mutex"
.LASF1944:
	.string	"__DISABLE_AVX512VBMIVL__ "
.LASF262:
	.string	"__FP_FAST_FMA 1"
.LASF1468:
	.string	"__SSSE3__"
.LASF1416:
	.string	"__ONCE_FLAG_INIT { 0 }"
.LASF612:
	.string	"_FEATURES_H 1"
.LASF1240:
	.string	"__f64(x) x ##f64"
.LASF375:
	.string	"__FLT64X_DENORM_MIN__ 3.64519953188247460252840593361941982e-4951F64x"
.LASF1157:
	.string	"_BSD_SIZE_T_ "
.LASF770:
	.string	"__va_arg_pack_len() __builtin_va_arg_pack_len ()"
.LASF1773:
	.string	"_CMP_TRUE_UQ 0x0f"
.LASF1750:
	.string	"_SIDD_BIT_MASK 0x00"
.LASF754:
	.string	"__attribute_deprecated__ __attribute__ ((__deprecated__))"
.LASF1828:
	.string	"_mm_mask_sqrt_sd(W,U,A,B) _mm_mask_sqrt_round_sd ((W), (U), (A), (B), _MM_FROUND_CUR_DIRECTION)"
.LASF51:
	.string	"__CHAR16_TYPE__ short unsigned int"
.LASF56:
	.string	"__INT32_TYPE__ int"
.LASF1395:
	.string	"_BITS_PTHREADTYPES_COMMON_H 1"
.LASF82:
	.string	"__GXX_RTTI 1"
.LASF2625:
	.string	"__uint_least16_t"
.LASF728:
	.string	"__BEGIN_DECLS extern \"C\" {"
.LASF641:
	.string	"__GLIBC_USE_C23_STRTOL"
.LASF2537:
	.string	"__glibcxx_want_ranges_as_rvalue"
.LASF2645:
	.string	"wchar_t"
.LASF718:
	.string	"__THROW noexcept (true)"
.LASF2562:
	.string	"__glibcxx_want_ratio"
.LASF2170:
	.string	"UINT_LEAST16_MAX (65535)"
.LASF1646:
	.string	"__DISABLE_WAITPKG__ "
.LASF1881:
	.string	"_mm512_mask_exp2a23_pd(W,U,A) _mm512_mask_exp2a23_round_pd(W, U, A, _MM_FROUND_CUR_DIRECTION)"
.LASF439:
	.string	"__GCC_ATOMIC_POINTER_LOCK_FREE 2"
.LASF1806:
	.string	"__DISABLE_AVXVNNIINT8__ "
.LASF796:
	.string	"__USE_EXTERN_INLINES 1"
.LASF1390:
	.string	"FD_ZERO(fdsetp) __FD_ZERO (fdsetp)"
.LASF638:
	.string	"__GLIBC_USE_ISOC2Y"
.LASF1214:
	.string	"WIFEXITED(status) __WIFEXITED (status)"
.LASF1284:
	.string	"__OFF64_T_TYPE __SQUAD_TYPE"
.LASF1229:
	.string	"__HAVE_FLOAT32X 1"
.LASF957:
	.string	"_GLIBCXX_HAVE_MEMALIGN 1"
.LASF2676:
	.string	"uintptr_t"
.LASF1597:
	.string	"_XABORT_EXPLICIT (1 << 0)"
.LASF302:
	.string	"__FLT32_MAX_10_EXP__ 38"
.LASF1422:
	.string	"_GLIBCXX_INCLUDE_NEXT_C_HEADERS"
.LASF2409:
	.string	"__glibcxx_want_bounded_array_traits"
.LASF2301:
	.string	"__glibcxx_shared_timed_mutex 201402L"
.LASF324:
	.string	"__FLT64_EPSILON__ 2.22044604925031308084726333618164062e-16F64"
.LASF1946:
	.string	"_AVX5124FMAPSINTRIN_H_INCLUDED "
.LASF2543:
	.string	"__glibcxx_want_ranges_find_last"
.LASF2538:
	.string	"__glibcxx_want_ranges_as_const"
.LASF405:
	.string	"__DEC64_MAX_EXP__ 385"
.LASF926:
	.string	"_GLIBCXX_HAVE_HYPOT 1"
.LASF2203:
	.string	"INT64_C(c) c ## L"
.LASF661:
	.string	"_XOPEN_SOURCE 700"
.LASF2088:
	.string	"_tile_loadd(dst,base,stride) _tile_loadd_internal (dst, base, stride)"
.LASF95:
	.string	"__cpp_rvalue_references 200610L"
.LASF2125:
	.string	"_KEYLOCKERINTRIN_H_INCLUDED "
.LASF540:
	.string	"_GLIBCXX_PURE __attribute__ ((__pure__))"
.LASF1968:
	.string	"_mm256_dpwssd_epi32(A,B,C) ((__m256i) __builtin_ia32_vpdpwssd_v8si ((__v8si) (A), (__v8si) (B), (__v8si) (C)))"
.LASF652:
	.string	"_ISOC23_SOURCE"
.LASF172:
	.string	"__SIZE_WIDTH__ 64"
.LASF2418:
	.string	"__glibcxx_endian 201907L"
.LASF277:
	.string	"__LDBL_HAS_DENORM__ 1"
.LASF1440:
	.string	"mbstowcs"
.LASF1779:
	.string	"_CMP_NLT_UQ 0x15"
.LASF1511:
	.string	"_ANSI_STDDEF_H "
.LASF600:
	.string	"_GLIBCXX_END_NAMESPACE_LDBL_OR_CXX11 _GLIBCXX_END_NAMESPACE_CXX11"
.LASF716:
	.string	"__LEAF , __leaf__"
.LASF133:
	.string	"__cpp_deduction_guides 201907L"
.LASF1074:
	.string	"_GLIBCXX_USE_C99_COMPLEX_TR1 1"
.LASF542:
	.string	"_GLIBCXX_NORETURN __attribute__ ((__noreturn__))"
.LASF833:
	.string	"_GLIBCXX_HAVE_BUILTIN_LAUNDER 1"
.LASF1115:
	.string	"_GLIBCXX_USE_SENDFILE 1"
.LASF433:
	.string	"__GCC_ATOMIC_INT_LOCK_FREE 2"
.LASF206:
	.string	"__UINT32_C(c) c ## U"
.LASF318:
	.string	"__FLT64_MAX_EXP__ 1024"
.LASF2488:
	.string	"__glibcxx_constexpr_dynamic_alloc 201907L"
.LASF213:
	.string	"__INT_FAST32_MAX__ 0x7fffffffffffffffL"
.LASF2106:
	.string	"__DISABLE_AMX_INT8__"
.LASF2234:
	.string	"INTPTR_WIDTH __WORDSIZE"
.LASF417:
	.string	"__REGISTER_PREFIX__ "
.LASF2482:
	.string	"__glibcxx_format 202110L"
.LASF2206:
	.string	"UINT32_C(c) c ## U"
.LASF1782:
	.string	"_CMP_EQ_US 0x18"
.LASF1839:
	.string	"_mm_maskz_cvtsd_ss(U,A,B) _mm_maskz_cvt_roundsd_ss ((U), (A), (B), _MM_FROUND_CUR_DIRECTION)"
.LASF1013:
	.string	"_GLIBCXX_HAVE_SYS_TIME_H 1"
.LASF2285:
	.string	"__glibcxx_tuples_by_type 201304L"
.LASF932:
	.string	"_GLIBCXX_HAVE_ISINFL 1"
.LASF2176:
	.string	"INT_FAST64_MIN (-__INT64_C(9223372036854775807)-1)"
.LASF1912:
	.string	"_mm256_permutexvar_ps(A,B) _mm256_permutevar8x32_ps ((B), (A))"
.LASF1965:
	.string	"_mm_dpbusd_epi32(A,B,C) ((__m128i) __builtin_ia32_vpdpbusd_v4si ((__v4si) (A), (__v4si) (B), (__v4si) (C)))"
.LASF1786:
	.string	"_CMP_NEQ_OS 0x1c"
.LASF558:
	.string	"_GLIBCXX_ABI_TAG_CXX11 __attribute ((__abi_tag__ (\"cxx11\")))"
.LASF2403:
	.string	"__glibcxx_want_starts_ends_with"
.LASF3:
	.string	"__cplusplus 202002L"
.LASF1471:
	.string	"__AVX__"
.LASF1485:
	.string	"__FMA__"
.LASF1239:
	.string	"__f32(x) x ##f32"
.LASF1604:
	.string	"__DISABLE_RTM__"
.LASF1109:
	.string	"_GLIBCXX_USE_PTHREAD_RWLOCK_CLOCKLOCK 1"
.LASF1631:
	.string	"__DISABLE_TBM__ "
.LASF1278:
	.string	"__INO_T_TYPE __SYSCALL_ULONG_TYPE"
.LASF1971:
	.string	"_mm_dpwssds_epi32(A,B,C) ((__m128i) __builtin_ia32_vpdpwssds_v4si ((__v4si) (A), (__v4si) (B), (__v4si) (C)))"
.LASF2484:
	.string	"__glibcxx_format_uchar 202311L"
.LASF1359:
	.string	"htole16(x) __uint16_identity (x)"
.LASF2516:
	.string	"__glibcxx_want_constexpr_typeinfo"
.LASF1277:
	.string	"__GID_T_TYPE __U32_TYPE"
.LASF1023:
	.string	"_GLIBCXX_HAVE_TLS 1"
.LASF1467:
	.string	"__SSE3__"
.LASF961:
	.string	"_GLIBCXX_HAVE_MODFL 1"
.LASF1491:
	.string	"__VPCLMULQDQ__"
.LASF919:
	.string	"_GLIBCXX_HAVE_FMODF 1"
.LASF938:
	.string	"_GLIBCXX_HAVE_LDEXPL 1"
.LASF2047:
	.string	"_mm256_cmul_pch(A,B) _mm256_fcmul_pch ((A), (B))"
.LASF2169:
	.string	"UINT_LEAST8_MAX (255)"
.LASF1982:
	.string	"__DISABLE_AVX512VP2INTERSECT__ "
.LASF789:
	.string	"__attr_access(x) __attribute__ ((__access__ x))"
.LASF653:
	.string	"_ISOC23_SOURCE 1"
.LASF1899:
	.string	"_mm_rcp28_ss(A,B) __builtin_ia32_rcp28ss_round(B, A, _MM_FROUND_CUR_DIRECTION)"
.LASF990:
	.string	"_GLIBCXX_HAVE_STDINT_H 1"
.LASF1858:
	.string	"_MM_CMPINT_NLE 0x6"
.LASF2313:
	.string	"__glibcxx_atomic_is_always_lock_free 201603L"
.LASF727:
	.string	"__ptr_t void *"
.LASF1610:
	.string	"__SERIALIZE__"
.LASF1947:
	.string	"__AVX5124FMAPS__ 1"
.LASF1000:
	.string	"_GLIBCXX_HAVE_SYMLINK 1"
.LASF1067:
	.string	"_GLIBCXX_STDIO_SEEK_CUR 1"
.LASF981:
	.string	"_GLIBCXX_HAVE_SINHF 1"
.LASF1936:
	.string	"__DISABLE_AVX512IFMAVL__ "
.LASF1267:
	.string	"__SLONG32_TYPE int"
.LASF1463:
	.string	"__code_model_small__"
.LASF2470:
	.string	"__glibcxx_constexpr_algorithms 201806L"
.LASF6:
	.string	"__STDC_HOSTED__ 1"
.LASF2017:
	.string	"_mm512_mask_mul_round_pch(W,U,A,B,R) _mm512_mask_fmul_round_pch ((W), (U), (A), (B), (R))"
.LASF948:
	.string	"_GLIBCXX_HAVE_LINUX_RANDOM_H 1"
.LASF409:
	.string	"__DEC64_SUBNORMAL_MIN__ 0.000000000000001E-383DD"
.LASF72:
	.string	"__INT_FAST32_TYPE__ long int"
.LASF1522:
	.string	"__need_ptrdiff_t"
.LASF1228:
	.string	"__HAVE_FLOAT64 1"
.LASF1051:
	.string	"_GLIBCXX11_USE_C99_STDLIB 1"
.LASF2650:
	.string	"__isoc23_strtoull"
.LASF2305:
	.string	"__glibcxx_addressof_constexpr 201603L"
.LASF451:
	.string	"__x86_64__ 1"
.LASF2098:
	.string	"_AMXINT8INTRIN_H_INCLUDED "
.LASF2041:
	.string	"_mm256_mul_pch(A,B) _mm256_fmul_pch ((A), (B))"
.LASF1932:
	.string	"__DISABLE_AVX512VLDQ__ "
.LASF1770:
	.string	"_CMP_NEQ_OQ 0x0c"
.LASF195:
	.string	"__INT_LEAST32_MAX__ 0x7fffffff"
.LASF301:
	.string	"__FLT32_MAX_EXP__ 128"
.LASF616:
	.string	"__USE_ISOCXX11"
.LASF101:
	.string	"__cpp_ref_qualifiers 200710L"
.LASF2503:
	.string	"__glibcxx_want_list_remove_return_type"
.LASF2191:
	.string	"PTRDIFF_MIN (-9223372036854775807L-1)"
.LASF2603:
	.string	"long int"
.LASF161:
	.string	"__WINT_MIN__ 0U"
.LASF2077:
	.string	"_AVX512BF16INTRIN_H_INCLUDED "
.LASF1975:
	.string	"__DISABLE_AVX512VPOPCNTDQVL__"
.LASF703:
	.string	"__GLIBC_USE_DEPRECATED_GETS 0"
.LASF1714:
	.string	"_MM_FROUND_RAISE_EXC 0x00"
.LASF259:
	.string	"__DBL_HAS_DENORM__ 1"
.LASF1678:
	.string	"_MM_EXCEPT_DENORM 0x0002"
.LASF654:
	.string	"_ISOC2Y_SOURCE"
.LASF1959:
	.string	"__DISABLE_AVX512VBMI2VL__ "
.LASF187:
	.string	"__UINT32_MAX__ 0xffffffffU"
.LASF319:
	.string	"__FLT64_MAX_10_EXP__ 308"
.LASF287:
	.string	"__FLT16_DECIMAL_DIG__ 5"
.LASF1177:
	.string	"_WCHAR_T_DEFINED "
.LASF2627:
	.string	"__uint_least32_t"
.LASF2227:
	.string	"UINT_FAST8_WIDTH 8"
.LASF644:
	.string	"__glibc_clang_prereq(maj,min) 0"
.LASF2324:
	.string	"__glibcxx_want_invoke"
.LASF947:
	.string	"_GLIBCXX_HAVE_LINUX_FUTEX 1"
.LASF2515:
	.string	"__glibcxx_want_constexpr_charconv"
.LASF2149:
	.string	"INT8_MIN (-128)"
.LASF429:
	.string	"__GCC_ATOMIC_CHAR16_T_LOCK_FREE 2"
.LASF2157:
	.string	"UINT8_MAX (255)"
.LASF875:
	.string	"_PSTL_PRAGMA_MESSAGE(x) "
.LASF824:
	.string	"_GLIBCXX_USE_C99_WCHAR _GLIBCXX11_USE_C99_WCHAR"
.LASF2351:
	.string	"__glibcxx_nonmember_container_access 201411L"
.LASF1961:
	.string	"__AVX512VNNIINTRIN_H_INCLUDED "
.LASF419:
	.string	"__GNUC_STDC_INLINE__ 1"
.LASF946:
	.string	"_GLIBCXX_HAVE_LINK_H 1"
.LASF1043:
	.string	"_GLIBCXX_PACKAGE_TARNAME \"libstdc++\""
.LASF721:
	.string	"__NTHNL(fct) fct __THROW"
.LASF1541:
	.string	"_CLWBINTRIN_H_INCLUDED "
.LASF357:
	.string	"__FLT32X_EPSILON__ 2.22044604925031308084726333618164062e-16F32x"
.LASF2623:
	.string	"__uint_least8_t"
.LASF466:
	.string	"__SSSE3__ 1"
.LASF808:
	.string	"_GLIBCXX_MAY_HAVE___CXA_THREAD_ATEXIT_IMPL 1"
.LASF1679:
	.string	"_MM_EXCEPT_DIV_ZERO 0x0004"
.LASF866:
	.string	"_PSTL_UDS_PRESENT "
.LASF1400:
	.string	"__SIZEOF_PTHREAD_RWLOCK_T 56"
.LASF2094:
	.string	"_tile_zero(dst) _tile_zero_internal (dst)"
.LASF473:
	.string	"__AVX2__ 1"
.LASF724:
	.string	"__PMT(args) args"
.LASF1997:
	.string	"_mm_cmul_sch(A,B) _mm_fcmul_sch ((A), (B))"
.LASF1925:
	.string	"__DISABLE_AVX512VLBW__ "
.LASF2035:
	.ascii	"_MM_REDUCE_OP(op) __m1"
	.string	"28h __T1 = (__m128h) __builtin_shuffle (__A, (__v8hi) { 4, 5, 6, 7, 0, 1, 2, 3 }); __m128h __T2 = (__A) op (__T1); __m128h __T3 = (__m128h) __builtin_shuffle (__T2, (__v8hi){ 2, 3, 0, 1, 4, 5, 6, 7 }); __m128h __T4 = __T2 op __T3; return __T4[0] op __T4[1]"
.LASF1516:
	.string	"_PTRDIFF_T_ "
.LASF169:
	.string	"__WCHAR_WIDTH__ 32"
.LASF1497:
	.string	"_lrotr(a,b) __rorq((a), (b))"
.LASF2166:
	.string	"INT_LEAST16_MAX (32767)"
.LASF323:
	.string	"__FLT64_MIN__ 2.22507385850720138309023271733240406e-308F64"
.LASF1951:
	.string	"_AVX5124VNNIWINTRIN_H_INCLUDED "
.LASF1035:
	.string	"_GLIBCXX_HAVE_WCTYPE_H 1"
.LASF2045:
	.string	"_mm_mask_cmul_pch(W,U,A,B) _mm_mask_fcmul_pch ((W), (U), (A), (B))"
.LASF1375:
	.string	"__sigset_t_defined 1"
.LASF1957:
	.string	"__AVX512VBMI2INTRIN_H_INCLUDED "
.LASF1379:
	.string	"_STRUCT_TIMESPEC 1"
.LASF533:
	.string	"__STDC_IEC_60559_BFP__ 201404L"
.LASF1251:
	.string	"EXIT_SUCCESS 0"
.LASF1428:
	.string	"atof"
.LASF1953:
	.string	"__DISABLE_AVX5124VNNIW__ "
.LASF158:
	.string	"__WCHAR_MAX__ 0x7fffffff"
.LASF916:
	.string	"_GLIBCXX_HAVE_FLOAT_H 1"
.LASF89:
	.string	"__cpp_unicode_literals 200710L"
.LASF1300:
	.string	"__DADDR_T_TYPE __S32_TYPE"
.LASF499:
	.string	"__ADX__ 1"
.LASF1815:
	.string	"_mm_broadcastsi128_si256(X) _mm256_broadcastsi128_si256(X)"
.LASF2423:
	.string	"__glibcxx_want_integer_comparison_functions"
.LASF2222:
	.string	"INT_LEAST32_WIDTH 32"
.LASF2056:
	.string	"__SM3__"
.LASF309:
	.string	"__FLT32_HAS_DENORM__ 1"
.LASF1992:
	.string	"_mm_mask_mul_sch(W,U,A,B) _mm_mask_fmul_sch ((W), (U), (A), (B))"
.LASF711:
	.string	"_SYS_CDEFS_H 1"
.LASF1812:
	.string	"__DISABLE_AVXVNNIINT16__"
.LASF2594:
	.string	"strstr"
.LASF13:
	.string	"__ATOMIC_ACQUIRE 2"
.LASF1064:
	.string	"_GLIBCXX_RES_LIMITS 1"
.LASF2675:
	.string	"intptr_t"
.LASF1005:
	.string	"_GLIBCXX_HAVE_SYS_PARAM_H 1"
.LASF1019:
	.string	"_GLIBCXX_HAVE_TANHL 1"
.LASF2654:
	.string	"__bf16"
.LASF2314:
	.string	"__glibcxx_want_atomic_is_always_lock_free"
.LASF443:
	.string	"__SSP_STRONG__ 3"
.LASF86:
	.string	"__cpp_hex_float 201603L"
.LASF1498:
	.string	"_bit_scan_forward(a) __bsfd(a)"
.LASF2476:
	.string	"__glibcxx_atomic_shared_ptr 201711L"
.LASF2657:
	.string	"uint32_t"
.LASF912:
	.string	"_GLIBCXX_HAVE_FENV_H 1"
.LASF1976:
	.string	"_AVX512BITALGINTRIN_H_INCLUDED "
.LASF1305:
	.string	"__FSID_T_TYPE struct { int __val[2]; }"
.LASF1223:
	.string	"__f128(x) x ##f128"
.LASF2361:
	.string	"__glibcxx_execution 201902L"
.LASF505:
	.string	"__CLFLUSHOPT__ 1"
.LASF825:
	.string	"_GLIBCXX_USE_CHAR8_T 1"
.LASF900:
	.string	"_GLIBCXX_HAVE_DIRENT_H 1"
.LASF265:
	.string	"__LDBL_DIG__ 18"
.LASF1243:
	.string	"__CFLOAT32 _Complex _Float32"
.LASF1684:
	.string	"_MM_MASK_INVALID 0x0080"
.LASF432:
	.string	"__GCC_ATOMIC_SHORT_LOCK_FREE 2"
.LASF1088:
	.string	"_GLIBCXX_USE_CHMOD 1"
.LASF2399:
	.string	"__glibcxx_bind_front 201907L"
.LASF893:
	.string	"_GLIBCXX_HAVE_CEILL 1"
.LASF960:
	.string	"_GLIBCXX_HAVE_MODFF 1"
.LASF2422:
	.string	"__glibcxx_integer_comparison_functions 202002L"
.LASF487:
	.string	"__SSE4A__ 1"
.LASF831:
	.string	"_GLIBCXX_HAVE_BUILTIN_HAS_UNIQ_OBJ_REP 1"
.LASF2681:
	.string	"GNU C++20 14.3.1 20251226 -march=znver4 -mtune=znver4 -g -g3 -O2 -std=c++20 -fno-omit-frame-pointer"
.LASF1447:
	.string	"strtod"
.LASF907:
	.string	"_GLIBCXX_HAVE_EXPL 1"
.LASF2023:
	.string	"_mm512_mask_cmul_round_pch(W,U,A,B,R) _mm512_mask_fcmul_round_pch ((W), (U), (A), (B), (R))"
.LASF1288:
	.string	"__BLKCNT_T_TYPE __SYSCALL_SLONG_TYPE"
.LASF456:
	.string	"__GCC_ASM_FLAG_OUTPUTS__ 1"
.LASF1304:
	.string	"__BLKSIZE_T_TYPE __SYSCALL_SLONG_TYPE"
.LASF40:
	.string	"__SIZEOF_POINTER__ 8"
.LASF1448:
	.string	"strtol"
.LASF383:
	.string	"__BFLT16_MIN_10_EXP__ (-37)"
.LASF2319:
	.string	"__glibcxx_has_unique_object_representations 201606L"
.LASF339:
	.string	"__FLT128_NORM_MAX__ 1.18973149535723176508575932662800702e+4932F128"
.LASF2652:
	.string	"long double"
.LASF1645:
	.string	"__WAITPKG__ 1"
.LASF1694:
	.string	"_MM_ROUND_TOWARD_ZERO 0x6000"
.LASF2521:
	.string	"__glibcxx_want_freestanding_expected"
.LASF2513:
	.string	"__glibcxx_want_syncbuf"
.LASF1154:
	.string	"_T_SIZE "
.LASF364:
	.string	"__FLT64X_MANT_DIG__ 64"
.LASF1790:
	.string	"_mm256_ceil_pd(V) _mm256_round_pd ((V), _MM_FROUND_CEIL)"
.LASF1244:
	.string	"__CFLOAT64 _Complex _Float64"
.LASF1382:
	.string	"__FD_ELT(d) ((d) / __NFDBITS)"
.LASF2013:
	.string	"_mm512_mul_pch(A,B) _mm512_fmul_pch ((A), (B))"
.LASF1582:
	.string	"_PRFCHIINTRIN_H_INCLUDED "
.LASF826:
	.string	"__cpp_lib_char8_t 201907L"
.LASF1637:
	.string	"__DISABLE_TSXLDTRK__"
.LASF679:
	.string	"__USE_POSIX2 1"
.LASF1515:
	.string	"__PTRDIFF_T "
.LASF1183:
	.string	"__DEFINED_wchar_t "
.LASF1501:
	.string	"_popcnt32(a) __popcntd(a)"
.LASF959:
	.string	"_GLIBCXX_HAVE_MODF 1"
.LASF2310:
	.string	"__glibcxx_want_apply"
.LASF549:
	.string	"_GLIBCXX11_DEPRECATED_SUGGEST(ALT) _GLIBCXX_DEPRECATED_SUGGEST(ALT)"
.LASF1761:
	.string	"_CMP_UNORD_Q 0x03"
.LASF1077:
	.string	"_GLIBCXX_USE_C99_FENV 1"
.LASF248:
	.string	"__DBL_DIG__ 15"
.LASF117:
	.string	"__cpp_inline_variables 201606L"
.LASF1246:
	.string	"__CFLOAT64X _Complex _Float64x"
.LASF643:
	.string	"__GNUC_PREREQ(maj,min) ((__GNUC__ << 16) + __GNUC_MINOR__ >= ((maj) << 16) + (min))"
.LASF743:
	.string	"__ASMNAME2(prefix,cname) __STRING (prefix) cname"
.LASF1256:
	.string	"_BITS_TYPES_H 1"
.LASF2037:
	.ascii	"_MM_REDUCE_OP(op) __m128h __T1 = (__m128h) __builtin_shuffle"
	.ascii	" (__A, (__v8hi) { 2, 3, 0, 1, 6, 7, 4, 5 }); __m128h __T2"
	.string	" = _mm_ ##op (__A, __T1); __m128h __T3 = (__m128h) __builtin_shuffle (__T2, (__v8hi){ 4, 5 }); __m128h __T4 = _mm_ ##op (__T2, __T3); __m128h __T5 = (__m128h) __builtin_shuffle (__T4, (__v8hi){ 1, 0 }); __m128h __T6 = _mm_ ##op (__T4, __T5); return __T6[0]"
.LASF327:
	.string	"__FLT64_HAS_INFINITY__ 1"
.LASF437:
	.string	"__GCC_DESTRUCTIVE_SIZE 64"
.LASF2107:
	.string	"__AMX_INT8__"
.LASF1662:
	.string	"__DISABLE_USER_MSR__ "
.LASF945:
	.string	"_GLIBCXX_HAVE_LINK 1"
.LASF1423:
	.string	"_GLIBCXX_BITS_STD_ABS_H "
.LASF739:
	.string	"__REDIRECT(name,proto,alias) name proto __asm__ (__ASMNAME (#alias))"
.LASF157:
	.string	"__LONG_LONG_MAX__ 0x7fffffffffffffffLL"
.LASF2416:
	.string	"__glibcxx_constexpr_string_view 201811L"
.LASF1377:
	.string	"_SIGSET_NWORDS (1024 / (8 * sizeof (unsigned long int)))"
.LASF368:
	.string	"__FLT64X_MAX_EXP__ 16384"
.LASF1171:
	.string	"_T_WCHAR_ "
.LASF2525:
	.string	"__glibcxx_want_invoke_r"
.LASF2300:
	.string	"__glibcxx_want_quoted_string_io"
.LASF42:
	.string	"__GNUC_WIDE_EXECUTION_CHARSET_NAME \"UTF-32LE\""
.LASF1996:
	.string	"_mm_maskz_mul_round_sch(U,A,B,R) _mm_maskz_fmul_round_sch ((U), (A), (B), (R))"
.LASF2560:
	.string	"__glibcxx_want_unreachable"
.LASF79:
	.string	"__UINTPTR_TYPE__ long unsigned int"
.LASF658:
	.string	"_POSIX_C_SOURCE"
.LASF1820:
	.ascii	"_MM256_REDUCE_OPERATOR_MAX_MIN_EP16(op) __m128i __T1 = _mm25"
	.ascii	"6_extracti128_si256 (__V, 0); __m128i __T2 = _mm256_extracti"
	.ascii	"128_si256 (__V, 1); __m128i __T3 = _mm_ ##op (__T1, __T2); _"
	.ascii	"_m128i __T4 = (__m128i)__builtin_shufflevector ((__v8hi)__T3"
	.ascii	", (__v8hi)__T3, 4, 5, 6, 7, 4, 5, 6, 7); __m128i __T5 = _mm_"
	.ascii	" ##op (__T3, __T4); __m128i __T6 = (__m128i)__builtin_shuffl"
	.ascii	"evector"
	.string	" ((__v8hi)__T5, (__v8hi)__T5, 2, 3, 2, 3, 4, 5, 6, 7); __m128i __T7 = _mm_ ##op (__T5, __T6); __m128i __T8 = (__m128i)__builtin_shufflevector ((__v8hi)__T7, (__v8hi)__T7, 1, 1, 2, 3, 4, 5, 6, 7); __v8hi __T9 = (__v8hi)_mm_ ##op (__T7, __T8); return __T9[0]"
.LASF1098:
	.string	"_GLIBCXX_USE_GET_NPROCS 1"
.LASF1249:
	.string	"RAND_MAX 2147483647"
.LASF1695:
	.string	"_MM_FLUSH_ZERO_MASK 0x8000"
.LASF868:
	.string	"_PSTL_PRAGMA_SIMD_ORDERED_MONOTONIC(PRM) "
.LASF390:
	.string	"__BFLT16_EPSILON__ 7.81250000000000000000000000000000000e-3BF16"
.LASF223:
	.string	"__UINTPTR_MAX__ 0xffffffffffffffffUL"
.LASF1751:
	.string	"_SIDD_UNIT_MASK 0x40"
.LASF183:
	.string	"__INT32_MAX__ 0x7fffffff"
.LASF1930:
	.string	"__DISABLE_AVX512VLBW__"
.LASF435:
	.string	"__GCC_ATOMIC_LLONG_LOCK_FREE 2"
.LASF258:
	.string	"__DBL_DENORM_MIN__ double(4.94065645841246544176568792868221372e-324L)"
.LASF1032:
	.string	"_GLIBCXX_HAVE_VWSCANF 1"
.LASF214:
	.string	"__INT_FAST32_WIDTH__ 64"
.LASF685:
	.string	"__USE_XOPEN_EXTENDED 1"
.LASF2359:
	.string	"__glibcxx_chrono 201907L"
.LASF608:
	.string	"_GLIBCXX_END_EXTERN_C }"
.LASF1940:
	.string	"_mm256_madd52hi_epu64(A,B,C) ((__m256i) __builtin_ia32_vpmadd52huq256 ((__v4di) (A), (__v4di) (B), (__v4di) (C)))"
.LASF237:
	.string	"__FLT_MAX__ 3.40282346638528859811704183484516925e+38F"
.LASF486:
	.string	"__FMA__ 1"
.LASF168:
	.string	"__LONG_LONG_WIDTH__ 64"
.LASF834:
	.string	"_GLIBCXX_USE_BUILTIN_TRAIT(BT) _GLIBCXX_HAS_BUILTIN(BT)"
.LASF829:
	.string	"_GLIBCXX_DOUBLE_IS_IEEE_BINARY64 1"
.LASF2223:
	.string	"UINT_LEAST32_WIDTH 32"
.LASF975:
	.string	"_GLIBCXX_HAVE_SECURE_GETENV 1"
.LASF1706:
	.string	"_MM_GET_DENORMALS_ZERO_MODE() (_mm_getcsr() & _MM_DENORMALS_ZERO_MASK)"
.LASF1986:
	.string	"__DISABLE_AVX512VP2INTERSECTVL__ "
.LASF2609:
	.string	"char"
.LASF1401:
	.string	"__SIZEOF_PTHREAD_BARRIER_T 32"
.LASF1793:
	.string	"_mm256_floor_ps(V) _mm256_round_ps ((V), _MM_FROUND_FLOOR)"
.LASF2027:
	.string	"__DISABLE_AVX512FP16VL__ "
.LASF1279:
	.string	"__INO64_T_TYPE __UQUAD_TYPE"
.LASF928:
	.string	"_GLIBCXX_HAVE_HYPOTL 1"
.LASF803:
	.string	"__stub_sigreturn "
.LASF1263:
	.string	"__SQUAD_TYPE long int"
.LASF2082:
	.string	"__DISABLE_AVXNECONVERT__ "
.LASF1232:
	.string	"__HAVE_DISTINCT_FLOAT32 0"
.LASF1659:
	.string	"__HRESET__"
.LASF114:
	.string	"__cpp_range_based_for 201603L"
.LASF109:
	.string	"__cpp_static_assert 201411L"
.LASF1842:
	.string	"_mm512_setr_epi32(e0,e1,e2,e3,e4,e5,e6,e7,e8,e9,e10,e11,e12,e13,e14,e15) _mm512_set_epi32(e15,e14,e13,e12,e11,e10,e9,e8,e7,e6,e5,e4,e3,e2,e1,e0)"
.LASF2664:
	.string	"uint_least16_t"
.LASF395:
	.string	"__BFLT16_IS_IEC_60559__ 0"
.LASF67:
	.string	"__UINT_LEAST16_TYPE__ short unsigned int"
.LASF52:
	.string	"__CHAR32_TYPE__ unsigned int"
.LASF1918:
	.string	"_AVX512BWINTRIN_H_INCLUDED "
.LASF810:
	.string	"_GLIBCXX_GTHREAD_USE_WEAK 0"
.LASF761:
	.string	"__attribute_warn_unused_result__ __attribute__ ((__warn_unused_result__))"
.LASF2250:
	.string	"__glibcxx_want_allocator_traits_is_always_equal"
.LASF128:
	.string	"__cpp_constexpr 202002L"
.LASF1606:
	.string	"_SERIALIZE_H_INCLUDED "
.LASF1776:
	.string	"_CMP_LE_OQ 0x12"
.LASF1119:
	.string	"_GLIBCXX_USE_UCHAR_C8RTOMB_MBRTOC8_FCHAR8_T 1"
.LASF325:
	.string	"__FLT64_DENORM_MIN__ 4.94065645841246544176568792868221372e-324F64"
.LASF1050:
	.string	"_GLIBCXX11_USE_C99_STDIO 1"
.LASF1191:
	.string	"WUNTRACED 2"
.LASF2315:
	.string	"__glibcxx_bool_constant 201505L"
.LASF2483:
	.string	"__glibcxx_want_format"
.LASF1367:
	.string	"htole64(x) __uint64_identity (x)"
.LASF659:
	.string	"_POSIX_C_SOURCE 200809L"
.LASF758:
	.string	"__attribute_nonnull__(params) __attribute__ ((__nonnull__ params))"
.LASF897:
	.string	"_GLIBCXX_HAVE_COSHL 1"
.LASF983:
	.string	"_GLIBCXX_HAVE_SINL 1"
.LASF105:
	.string	"__cpp_aggregate_nsdmi 201304L"
.LASF475:
	.string	"__AVX512CD__ 1"
.LASF2640:
	.string	"_ZSt3absd"
.LASF2638:
	.string	"_ZSt3abse"
.LASF2639:
	.string	"_ZSt3absf"
.LASF1954:
	.string	"__DISABLE_AVX5124VNNIW__"
.LASF1445:
	.string	"realloc"
.LASF123:
	.string	"__cpp_guaranteed_copy_elision 201606L"
.LASF2499:
	.string	"__glibcxx_want_jthread"
.LASF2642:
	.string	"_ZSt3absl"
.LASF515:
	.string	"__VPCLMULQDQ__ 1"
.LASF1128:
	.string	"_GLIBCXX_CSTDLIB 1"
.LASF765:
	.string	"__attribute_artificial__ __attribute__ ((__artificial__))"
.LASF292:
	.string	"__FLT16_DENORM_MIN__ 5.96046447753906250000000000000000000e-8F16"
.LASF2320:
	.string	"__glibcxx_want_has_unique_object_representations"
.LASF2641:
	.string	"_ZSt3absx"
.LASF2630:
	.string	"__intmax_t"
.LASF1540:
	.string	"_CLFLUSHOPTINTRIN_H_INCLUDED "
.LASF1291:
	.string	"__FSBLKCNT64_T_TYPE __UQUAD_TYPE"
.LASF1159:
	.string	"_SIZE_T_DEFINED "
.LASF275:
	.string	"__LDBL_EPSILON__ 1.08420217248550443400745280086994171e-19L"
.LASF495:
	.string	"__RDRND__ 1"
.LASF1630:
	.string	"__TBM__ 1"
.LASF1916:
	.string	"_mm_maskz_cvt_roundps_ph(A,B,C) _mm_maskz_cvtps_ph ((A), (B), (C))"
.LASF1550:
	.string	"__DISABLE_ENQCMD__ "
.LASF568:
	.string	"_GLIBCXX_NOEXCEPT_IF(...) noexcept(__VA_ARGS__)"
.LASF1836:
	.string	"_mm_mask_cvtss_sd(W,U,A,B) _mm_mask_cvt_roundss_sd ((W), (U), (A), (B), _MM_FROUND_CUR_DIRECTION)"
.LASF1723:
	.string	"_mm_test_all_ones(V) _mm_testc_si128 ((V), _mm_cmpeq_epi32 ((V), (V)))"
.LASF670:
	.string	"_DYNAMIC_STACK_SIZE_SOURCE"
.LASF1316:
	.string	"__STD_TYPE"
.LASF874:
	.string	"_PSTL_PRAGMA_MESSAGE_IMPL(x) _PSTL_PRAGMA(message(_PSTL_STRING_CONCAT(_PSTL_PRAGMA_LOCATION, x)))"
.LASF1409:
	.string	"_BITS_ATOMIC_WIDE_COUNTER_H "
.LASF1255:
	.string	"_SYS_TYPES_H 1"
.LASF2442:
	.string	"__glibcxx_span 202002L"
.LASF2147:
	.string	"_BITS_STDINT_LEAST_H 1"
.LASF2172:
	.string	"UINT_LEAST64_MAX (__UINT64_C(18446744073709551615))"
.LASF1268:
	.string	"__ULONG32_TYPE unsigned int"
.LASF1227:
	.string	"__HAVE_FLOAT32 1"
.LASF73:
	.string	"__INT_FAST64_TYPE__ long int"
.LASF1148:
	.string	"__need_NULL "
.LASF2187:
	.string	"UINTPTR_MAX (18446744073709551615UL)"
.LASF2245:
	.string	"__glibcxx_incomplete_container_elements 201505L"
.LASF1826:
	.string	"__EVEX512__"
.LASF925:
	.string	"_GLIBCXX_HAVE_GETS 1"
.LASF2552:
	.string	"__glibcxx_want_out_ptr"
.LASF26:
	.string	"__SIZEOF_LONG__ 8"
.LASF264:
	.string	"__LDBL_MANT_DIG__ 64"
.LASF2262:
	.string	"__glibcxx_want_enable_shared_from_this"
.LASF586:
	.string	"_GLIBCXX_END_INLINE_ABI_NAMESPACE(X) }"
.LASF329:
	.string	"__FP_FAST_FMAF64 1"
.LASF77:
	.string	"__UINT_FAST64_TYPE__ long unsigned int"
.LASF1561:
	.string	"__MOVDIRI__ 1"
.LASF1840:
	.string	"__DISABLE_AVX512F__"
.LASF1592:
	.string	"_RDSEEDINTRIN_H_INCLUDED "
.LASF1146:
	.string	"__need_size_t "
.LASF2218:
	.string	"INT_LEAST8_WIDTH 8"
.LASF523:
	.string	"__gnu_linux__ 1"
.LASF1368:
	.string	"be64toh(x) __bswap_64 (x)"
.LASF1415:
	.string	"__PTHREAD_RWLOCK_INITIALIZER(__flags) 0, 0, 0, 0, 0, 0, 0, 0, __PTHREAD_RWLOCK_ELISION_EXTRA, 0, __flags"
.LASF1647:
	.string	"__DISABLE_WAITPKG__"
.LASF2582:
	.string	"strcmp"
.LASF422:
	.string	"__GCC_HAVE_SYNC_COMPARE_AND_SWAP_2 1"
.LASF376:
	.string	"__FLT64X_HAS_DENORM__ 1"
.LASF861:
	.string	"_PSTL_CPP14_2RANGE_MISMATCH_EQUAL_PRESENT "
.LASF2071:
	.string	"_VPCLMULQDQINTRIN_H_INCLUDED "
.LASF1674:
	.string	"_GLIBCXX_STDLIB_H 1"
.LASF2046:
	.string	"_mm_maskz_cmul_pch(U,A,B) _mm_maskz_fcmul_pch ((U), (A), (B))"
.LASF2380:
	.string	"__glibcxx_want_shared_mutex"
.LASF1456:
	.string	"atoll"
.LASF179:
	.string	"__SIG_ATOMIC_MIN__ (-__SIG_ATOMIC_MAX__ - 1)"
.LASF1911:
	.string	"__DISABLE_AVX512VL__ "
.LASF599:
	.string	"_GLIBCXX_BEGIN_NAMESPACE_LDBL_OR_CXX11 _GLIBCXX_BEGIN_NAMESPACE_CXX11"
.LASF844:
	.string	"_PSTL_VERSION_PATCH (_PSTL_VERSION % 10)"
.LASF792:
	.string	"__attr_dealloc(dealloc,argno) __attribute__ ((__malloc__ (dealloc, argno)))"
.LASF2109:
	.string	"__AMX_BF16__ 1"
.LASF895:
	.string	"_GLIBCXX_HAVE_COSF 1"
.LASF1923:
	.string	"__DISABLE_AVX512DQ__"
.LASF1743:
	.string	"_SIDD_CMP_EQUAL_ORDERED 0x0c"
.LASF2197:
	.string	"WCHAR_MAX __WCHAR_MAX"
.LASF781:
	.string	"__LDBL_REDIR_NTH(name,proto) name proto __THROW"
.LASF1972:
	.string	"__DISABLE_AVX512VNNIVL__"
.LASF2674:
	.string	"uint_fast64_t"
.LASF222:
	.string	"__INTPTR_WIDTH__ 64"
.LASF1058:
	.string	"_GLIBCXX_ATOMIC_BUILTINS 1"
.LASF141:
	.string	"__cpp_concepts 202002L"
.LASF1505:
	.string	"_rotwl(a,b) __rolw((a), (b))"
.LASF1614:
	.string	"__encls_bc(leaf,b,c,retval) __asm__ __volatile__ (\"encls\\n\\t\" : \"=a\" (retval) : \"a\" (leaf), \"b\" (b), \"c\" (c) : \"cc\")"
.LASF766:
	.string	"__extern_inline extern __inline __attribute__ ((__gnu_inline__))"
.LASF1775:
	.string	"_CMP_LT_OQ 0x11"
.LASF1431:
	.string	"bsearch"
.LASF860:
	.string	"_PSTL_CPP17_EXECUTION_POLICIES_PRESENT (_MSC_VER >= 1912 && _MSVC_LANG >= 201703L) || (_GLIBCXX_RELEASE >= 9 && __GLIBCXX__ >= 20190503 && __cplusplus >= 201703L)"
.LASF1185:
	.string	"__need_wchar_t"
.LASF236:
	.string	"__FLT_DECIMAL_DIG__ 9"
.LASF1745:
	.string	"_SIDD_NEGATIVE_POLARITY 0x10"
.LASF2377:
	.string	"__glibcxx_scoped_lock 201703L"
.LASF1528:
	.string	"_BMIINTRIN_H_INCLUDED "
.LASF1514:
	.string	"_T_PTRDIFF "
.LASF714:
	.string	"__glibc_has_builtin(name) __has_builtin (name)"
.LASF1811:
	.string	"__DISABLE_AVXVNNIINT16__ "
.LASF1876:
	.string	"_mm_mask_rsqrt28_sd(W,U,A,B) _mm_mask_rsqrt28_round_sd ((W), (U), (A), (B), _MM_FROUND_CUR_DIRECTION)"
.LASF254:
	.string	"__DBL_MAX__ double(1.79769313486231570814527423731704357e+308L)"
.LASF1763:
	.string	"_CMP_NLT_US 0x05"
.LASF2015:
	.string	"_mm512_maskz_mul_pch(U,A,B) _mm512_maskz_fmul_pch ((U), (A), (B))"
.LASF2120:
	.string	"_tile_cmmimfp16ps(src1_dst,src2,src3) _tile_cmmimfp16ps_internal (src1_dst, src2, src3)"
.LASF1875:
	.string	"_mm_maskz_rcp28_ss(U,A,B) _mm_maskz_rcp28_round_ss ((U), (A), (B), _MM_FROUND_CUR_DIRECTION)"
.LASF2335:
	.string	"__glibcxx_not_fn 201603L"
.LASF335:
	.string	"__FLT128_MAX_EXP__ 16384"
.LASF1135:
	.string	"__GLIBC_USE_IEC_60559_BFP_EXT 1"
.LASF1780:
	.string	"_CMP_NLE_UQ 0x16"
.LASF1576:
	.string	"__pconfig_b(leaf,b,retval) __asm__ __volatile__ (\"pconfig\\n\\t\" : \"=a\" (retval) : \"a\" (leaf), \"b\" (b) : \"cc\")"
.LASF1116:
	.string	"_GLIBCXX_USE_ST_MTIM 1"
.LASF239:
	.string	"__FLT_MIN__ 1.17549435082228750796873653722224568e-38F"
.LASF664:
	.string	"_LARGEFILE64_SOURCE"
.LASF524:
	.string	"__linux 1"
.LASF2379:
	.string	"__glibcxx_shared_mutex 201505L"
.LASF2296:
	.string	"__glibcxx_want_generic_associative_lookup"
.LASF1802:
	.string	"__DISABLE_AVXIFMA__"
.LASF2522:
	.string	"__glibcxx_want_freestanding_optional"
.LASF710:
	.string	"__GLIBC_PREREQ(maj,min) ((__GLIBC__ << 16) + __GLIBC_MINOR__ >= ((maj) << 16) + (min))"
.LASF823:
	.string	"_GLIBCXX_USE_C99_STDLIB _GLIBCXX11_USE_C99_STDLIB"
.LASF934:
	.string	"_GLIBCXX_HAVE_ISNANL 1"
.LASF1822:
	.ascii	"_MM_REDUCE_OPERATOR_MAX_MIN_EP8(op) __m128i __T1 = (__m128i)"
	.ascii	"__builtin_shufflevector ((__v16qi)__V, (__v16qi)__V, 8, 9, 1"
	.ascii	"0, 11, 12, 13, 14, 15, 8, 9, 10, 11, 12, 13, 14, 15); __m128"
	.ascii	"i __T2 = _mm_ ##op (__V, __T1); __m128i __T3 = (__m128i)__bu"
	.ascii	"iltin_shufflevector ((__v16qi)__T2, (__v16qi)__T2, 4, 5, 6, "
	.ascii	"7, 4, 5, 6, 7, 8, 9, 10, 11, 12, 13, 14, 15); __m128i __T4 ="
	.ascii	" _mm_ ##op (__T2, __T3); __m128i __T5 = (__m128i)__builtin_s"
	.ascii	"hufflevector ((__v16qi)__T4, (__v16qi)__T4, 2, 3, 2, 3, 4, 5"
	.ascii	", 6, 7, 8, 9, 10, "
	.string	"11, 12, 13, 14, 15); __m128i __T6 = _mm_ ##op (__T4, __T5); __m128i __T7 = (__m128i)__builtin_shufflevector ((__v16qi)__T6, (__v16qi)__T6, 1, 1, 2, 3, 4, 5, 6, 7, 8, 9, 10, 11, 12, 13, 14, 15); __v16qi __T8 = (__v16qi)_mm_ ##op (__T6, __T7); return __T8[0]"
.LASF988:
	.string	"_GLIBCXX_HAVE_STDALIGN_H 1"
.LASF2003:
	.string	"__DISABLE_AVX512FP16__"
.LASF22:
	.string	"__FINITE_MATH_ONLY__ 0"
.LASF794:
	.string	"__attribute_returns_twice__ __attribute__ ((__returns_twice__))"
.LASF1235:
	.string	"__HAVE_DISTINCT_FLOAT64X 0"
.LASF1698:
	.ascii	"_MM_TRANSPOSE4_PS(row0,row1,row2,row3) do { __v4sf __r0 = (r"
	.ascii	"ow0), __r1 = (row1), __r2 = (row2), __r3 = (row3); __v4sf __"
	.ascii	"t0 = __builtin_ia32_unpcklps (__r0, __r1); __v4sf __t1 = __b"
	.ascii	"uiltin_ia32_unpcklps (__r2, __r3); __v4sf __t2 = __builtin_i"
	.ascii	"a32_unpckhps (__r0"
	.string	", __r1); __v4sf __t3 = __builtin_ia32_unpckhps (__r2, __r3); (row0) = __builtin_ia32_movlhps (__t0, __t1); (row1) = __builtin_ia32_movhlps (__t1, __t0); (row2) = __builtin_ia32_movlhps (__t2, __t3); (row3) = __builtin_ia32_movhlps (__t3, __t2); } while (0)"
.LASF892:
	.string	"_GLIBCXX_HAVE_CEILF 1"
.LASF19:
	.string	"__pie__ 2"
.LASF1328:
	.string	"__id_t_defined "
.LASF1568:
	.string	"__MOVDIR64B__"
.LASF305:
	.string	"__FLT32_NORM_MAX__ 3.40282346638528859811704183484516925e+38F32"
.LASF878:
	.string	"_GLIBCXX_HAVE_ACOSL 1"
.LASF1804:
	.string	"_AVXVNNIINT8INTRIN_H_INCLUDED "
.LASF887:
	.string	"_GLIBCXX_HAVE_ATANF 1"
.LASF1623:
	.string	"__enclu_generic(leaf,b,c,d,retval) __asm__ __volatile__(\"enclu\\n\\t\" : \"=a\" (retval), \"=b\" (b), \"=c\" (c), \"=d\" (d) : \"a\" (leaf), \"b\" (b), \"c\" (c), \"d\" (d) : \"cc\")"
.LASF555:
	.string	"_GLIBCXX20_DEPRECATED_SUGGEST(ALT) _GLIBCXX_DEPRECATED_SUGGEST(ALT)"
.LASF506:
	.string	"__CLZERO__ 1"
.LASF2396:
	.string	"__glibcxx_want_atomic_ref"
.LASF1413:
	.string	"_RWLOCK_INTERNAL_H "
.LASF1207:
	.string	"__W_EXITCODE(ret,sig) ((ret) << 8 | (sig))"
.LASF106:
	.string	"__cpp_variable_templates 201304L"
.LASF1671:
	.string	"_MMINTRIN_H_INCLUDED "
.LASF1123:
	.string	"_GLIBCXX_VERBOSE 1"
.LASF356:
	.string	"__FLT32X_MIN__ 2.22507385850720138309023271733240406e-308F32x"
.LASF2052:
	.string	"_SM3INTRIN_H_INCLUDED "
.LASF1998:
	.string	"_mm_mask_cmul_sch(W,U,A,B) _mm_mask_fcmul_sch ((W), (U), (A), (B))"
.LASF2295:
	.string	"__glibcxx_generic_associative_lookup 201304L"
.LASF647:
	.string	"_ISOC95_SOURCE 1"
.LASF1691:
	.string	"_MM_ROUND_NEAREST 0x0000"
.LASF1909:
	.string	"_AVX512CDINTRIN_H_INCLUDED "
.LASF1680:
	.string	"_MM_EXCEPT_OVERFLOW 0x0008"
.LASF729:
	.string	"__END_DECLS }"
.LASF674:
	.string	"__USE_ISOC11 1"
.LASF1016:
	.string	"_GLIBCXX_HAVE_S_ISREG 1"
.LASF573:
	.string	"_GLIBCXX_NOEXCEPT_PARM , bool _NE"
.LASF1330:
	.string	"__daddr_t_defined "
.LASF767:
	.string	"__extern_always_inline extern __always_inline __attribute__ ((__gnu_inline__))"
.LASF1777:
	.string	"_CMP_UNORD_S 0x13"
.LASF905:
	.string	"_GLIBCXX_HAVE_EXECINFO_H 1"
.LASF939:
	.string	"_GLIBCXX_HAVE_LIBINTL_H 1"
.LASF1197:
	.string	"__WALL 0x40000000"
.LASF2398:
	.string	"__glibcxx_want_atomic_value_initialization"
.LASF2635:
	.string	"int64_t"
.LASF732:
	.string	"__bos0(ptr) __builtin_object_size (ptr, 0)"
.LASF493:
	.string	"__POPCNT__ 1"
.LASF370:
	.string	"__FLT64X_DECIMAL_DIG__ 21"
.LASF2427:
	.string	"__glibcxx_want_constexpr_char_traits"
.LASF1346:
	.string	"__BYTE_ORDER __LITTLE_ENDIAN"
.LASF1642:
	.string	"__DISABLE_UINTR__"
.LASF1360:
	.string	"be16toh(x) __bswap_16 (x)"
.LASF2011:
	.string	"_MM512_REDUCE_OP"
.LASF2439:
	.string	"__glibcxx_want_remove_cvref"
.LASF1548:
	.string	"_ENQCMDINTRIN_H_INCLUDED "
.LASF639:
	.string	"__GLIBC_USE_DEPRECATED_GETS"
.LASF2574:
	.string	"_GLIBCXX_CSTRING 1"
.LASF315:
	.string	"__FLT64_DIG__ 15"
.LASF2231:
	.string	"UINT_FAST32_WIDTH __WORDSIZE"
.LASF426:
	.string	"__GCC_ATOMIC_BOOL_LOCK_FREE 2"
.LASF1477:
	.string	"__AVX512VL__"
.LASF2111:
	.string	"_tile_dpbf16ps_internal(dst,src1,src2) __asm__ volatile (\"{tdpbf16ps\\t%%tmm%c[_src2], %%tmm%c[_src1], %%tmm%c[_dst]\t\t\t    |tdpbf16ps\\ttmm%c[_dst], tmm%c[_src1], tmm%c[_src2]}\" :: [_dst]\"i\"(dst), [_src1]\"i\"(src1), [_src2]\"i\"(src2))"
.LASF407:
	.string	"__DEC64_MAX__ 9.999999999999999E384DD"
.LASF1856:
	.string	"_MM_CMPINT_NLT 0x5"
.LASF687:
	.string	"_LARGEFILE_SOURCE"
.LASF2253:
	.string	"__glibcxx_result_of_sfinae 201210L"
.LASF484:
	.string	"__AVX512BITALG__ 1"
.LASF885:
	.string	"_GLIBCXX_HAVE_ATAN2F 1"
.LASF1398:
	.string	"__SIZEOF_PTHREAD_MUTEX_T 40"
.LASF2663:
	.string	"uint_least8_t"
.LASF630:
	.string	"__USE_FILE_OFFSET64"
.LASF1919:
	.string	"__DISABLE_AVX512BW__ "
.LASF1209:
	.string	"__W_CONTINUED 0xffff"
.LASF1626:
	.string	"__enclv_generic(leaf,b,c,d,retval) __asm__ __volatile__(\"enclv\\n\\t\" : \"=a\" (retval), \"=b\" (b), \"=c\" (b), \"=d\" (d) : \"a\" (leaf), \"b\" (b), \"c\" (c), \"d\" (d) : \"cc\")"
.LASF1437:
	.string	"ldiv"
.LASF2670:
	.string	"int_fast64_t"
.LASF1722:
	.string	"_mm_test_all_zeros(M,V) _mm_testz_si128 ((M), (V))"
.LASF1070:
	.string	"_GLIBCXX_SYMVER_GNU 1"
.LASF840:
	.string	"_PSTL_CONFIG_H "
.LASF39:
	.string	"__FLOAT_WORD_ORDER__ __ORDER_LITTLE_ENDIAN__"
.LASF2571:
	.string	"strndupa(s,n) (__extension__ ({ const char *__old = (s); size_t __len = strnlen (__old, (n)); char *__new = (char *) __builtin_alloca (__len + 1); __new[__len] = '\\0'; (char *) memcpy (__new, __old, __len); }))"
.LASF2495:
	.string	"__glibcxx_want_erase_if"
.LASF2257:
	.string	"__glibcxx_is_swappable 201603L"
.LASF2411:
	.string	"__glibcxx_want_concepts"
.LASF2116:
	.string	"__AMX_COMPLEX__ 1"
.LASF2661:
	.string	"int_least32_t"
.LASF952:
	.string	"_GLIBCXX_HAVE_LOG10L 1"
.LASF2644:
	.string	"double"
.LASF2267:
	.string	"__glibcxx_exchange_function 201304L"
.LASF1545:
	.string	"__DISABLE_CMPCCXADD__ "
.LASF660:
	.string	"_XOPEN_SOURCE"
.LASF294:
	.string	"__FLT16_HAS_INFINITY__ 1"
.LASF1579:
	.string	"__PCONFIG__"
.LASF1363:
	.string	"htole32(x) __uint32_identity (x)"
.LASF1611:
	.string	"_SGXINTRIN_H_INCLUDED "
.LASF1733:
	.string	"_MM_MK_INSERTPS_NDX(S,D,M) (((S) << 6) | ((D) << 4) | (M))"
.LASF2679:
	.string	"__builtin_memcpy"
.LASF876:
	.string	"_PSTL_PRAGMA_MESSAGE_POLICIES(x) "
.LASF1772:
	.string	"_CMP_GT_OS 0x0e"
.LASF1289:
	.string	"__BLKCNT64_T_TYPE __SQUAD_TYPE"
.LASF2004:
	.string	"__AVX512FP16__"
.LASF1344:
	.string	"__PDP_ENDIAN 3412"
.LASF914:
	.string	"_GLIBCXX_HAVE_FINITEF 1"
.LASF1934:
	.string	"_AVX512IFMAINTRIN_H_INCLUDED "
.LASF438:
	.string	"__GCC_CONSTRUCTIVE_SIZE 64"
.LASF563:
	.string	"_GLIBCXX17_CONSTEXPR constexpr"
.LASF2317:
	.string	"__glibcxx_byte 201603L"
.LASF2425:
	.string	"__glibcxx_want_is_constant_evaluated"
.LASF935:
	.string	"_GLIBCXX_HAVE_ISWBLANK 1"
.LASF2059:
	.string	"__DISABLE_SHA512__ "
.LASF30:
	.string	"__SIZEOF_DOUBLE__ 8"
.LASF1347:
	.string	"__FLOAT_WORD_ORDER __BYTE_ORDER"
.LASF1837:
	.string	"_mm_maskz_cvtss_sd(U,A,B) _mm_maskz_cvt_roundss_sd ((U), (A), (B), _MM_FROUND_CUR_DIRECTION)"
.LASF1063:
	.string	"_GLIBCXX_MANGLE_SIZE_T m"
.LASF1299:
	.string	"__SUSECONDS64_T_TYPE __SQUAD_TYPE"
.LASF559:
	.string	"_GLIBCXX_NODISCARD [[__nodiscard__]]"
.LASF669:
	.string	"_ATFILE_SOURCE 1"
.LASF1342:
	.string	"__LITTLE_ENDIAN 1234"
.LASF1121:
	.string	"_GLIBCXX_USE_UTIMENSAT 1"
.LASF2355:
	.string	"__glibcxx_sample 201603L"
.LASF958:
	.string	"_GLIBCXX_HAVE_MEMORY_H 1"
.LASF306:
	.string	"__FLT32_MIN__ 1.17549435082228750796873653722224568e-38F32"
.LASF2081:
	.string	"__AVXNECONVERT__ 1"
.LASF1175:
	.string	"_BSD_WCHAR_T_ "
.LASF2238:
	.string	"PTRDIFF_WIDTH __WORDSIZE"
.LASF2506:
	.string	"__glibcxx_move_iterator_concept 202207L"
.LASF1002:
	.string	"_GLIBCXX_HAVE_SYS_IOCTL_H 1"
.LASF1833:
	.string	"_mm_maskz_scalef_sd(U,A,B) _mm_maskz_scalef_round_sd ((U), (A), (B), _MM_FROUND_CUR_DIRECTION)"
.LASF1248:
	.string	"__lldiv_t_defined 1"
.LASF2517:
	.string	"__glibcxx_want_expected"
.LASF2511:
	.string	"__glibcxx_want_smart_ptr_for_overwrite"
.LASF2168:
	.string	"INT_LEAST64_MAX (__INT64_C(9223372036854775807))"
.LASF753:
	.string	"__attribute_noinline__ __attribute__ ((__noinline__))"
.LASF1897:
	.string	"_mm512_maskz_rsqrt28_ps(U,A) _mm512_maskz_rsqrt28_round_ps(U, A, _MM_FROUND_CUR_DIRECTION)"
.LASF2393:
	.string	"__glibcxx_atomic_lock_free_type_aliases 201907L"
.LASF1721:
	.string	"_MM_FROUND_NEARBYINT (_MM_FROUND_CUR_DIRECTION | _MM_FROUND_NO_EXC)"
.LASF1492:
	.string	"__AVX512BF16__"
.LASF384:
	.string	"__BFLT16_MAX_EXP__ 128"
.LASF2618:
	.string	"__int32_t"
.LASF2441:
	.string	"__glibcxx_want_source_location"
.LASF2019:
	.string	"_mm512_cmul_pch(A,B) _mm512_fcmul_pch ((A), (B))"
.LASF1903:
	.string	"__AVX512ER__"
.LASF2039:
	.string	"_mm_mask_mul_pch(W,U,A,B) _mm_mask_fmul_pch ((W), (U), (A), (B))"
.LASF979:
	.string	"_GLIBCXX_HAVE_SINCOSL 1"
.LASF2619:
	.string	"__uint32_t"
.LASF1442:
	.string	"qsort"
.LASF1567:
	.string	"__DISABLE_MOVDIR64B__"
.LASF1275:
	.string	"__DEV_T_TYPE __UQUAD_TYPE"
.LASF634:
	.string	"__USE_GNU"
.LASF322:
	.string	"__FLT64_NORM_MAX__ 1.79769313486231570814527423731704357e+308F64"
.LASF1676:
	.string	"_MM_EXCEPT_MASK 0x003f"
.LASF1204:
	.string	"__WIFSTOPPED(status) (((status) & 0xff) == 0x7f)"
.LASF2624:
	.string	"__int_least16_t"
.LASF1319:
	.string	"__ino64_t_defined "
.LASF1055:
	.string	"_GLIBCXX98_USE_C99_STDIO 1"
.LASF1644:
	.string	"_WAITPKG_H_INCLUDED "
.LASF2079:
	.string	"__DISABLE_AVX512BF16__"
.LASF1302:
	.string	"__CLOCKID_T_TYPE __S32_TYPE"
.LASF21:
	.string	"__OPTIMIZE__ 1"
.LASF170:
	.string	"__WINT_WIDTH__ 32"
.LASF2309:
	.string	"__glibcxx_apply 201603L"
.LASF2129:
	.string	"__KL__"
.LASF2590:
	.string	"strncpy"
.LASF2214:
	.string	"INT32_WIDTH 32"
.LASF2254:
	.string	"__glibcxx_want_result_of_sfinae"
.LASF972:
	.string	"_GLIBCXX_HAVE_POWL 1"
.LASF1539:
	.string	"__CLDEMOTE__"
.LASF1730:
	.string	"_mm_ceil_ss(D,V) _mm_round_ss ((D), (V), _MM_FROUND_CEIL)"
.LASF2123:
	.string	"__AMX_COMPLEX__"
.LASF1549:
	.string	"__ENQCMD__ 1"
.LASF1759:
	.string	"_CMP_LT_OS 0x01"
.LASF1022:
	.string	"_GLIBCXX_HAVE_TIMESPEC_GET 1"
.LASF2468:
	.string	"__glibcxx_constexpr_functional 201907L"
.LASF2461:
	.string	"__glibcxx_want_constexpr_utility"
.LASF1069:
	.string	"_GLIBCXX_SYMVER 1"
.LASF460:
	.string	"__code_model_small__ 1"
.LASF2528:
	.string	"__glibcxx_want_ranges_to_container"
.LASF1265:
	.string	"__SWORD_TYPE long int"
.LASF1147:
	.string	"__need_wchar_t "
.LASF2095:
	.string	"_tile_zero_internal(dst) __asm__ volatile (\"{tilezero\\t%%tmm%c[_dst]|tilezero\\ttmm%c[_dst]}\" :: [_dst]\"i\"(dst))"
.LASF2154:
	.string	"INT16_MAX (32767)"
.LASF625:
	.string	"__USE_XOPEN2KXSI"
.LASF982:
	.string	"_GLIBCXX_HAVE_SINHL 1"
.LASF2299:
	.string	"__glibcxx_quoted_string_io 201304L"
.LASF2183:
	.string	"UINT_FAST32_MAX (18446744073709551615UL)"
.LASF837:
	.string	"_PSTL_PAR_BACKEND_SERIAL "
.LASF1867:
	.ascii	"__MM512_REDUCE_OP(op) __m256d __T1 = (__m256d) _mm512_extrac"
	.ascii	"t"
	.string	"f64x4_pd (__A, 1); __m256d __T2 = (__m256d) _mm512_extractf64x4_pd (__A, 0); __m256d __T3 = __T1 op __T2; __m128d __T4 = _mm256_extractf128_pd (__T3, 1); __m128d __T5 = _mm256_extractf128_pd (__T3, 0); __m128d __T6 = __T4 op __T5; return __T6[0] op __T6[1]"
.LASF1810:
	.string	"__AVXVNNIINT16__ 1"
.LASF1392:
	.string	"__blkcnt_t_defined "
.LASF537:
	.string	"_GLIBCXX_CXX_CONFIG_H 1"
.LASF1196:
	.string	"__WNOTHREAD 0x20000000"
.LASF1172:
	.string	"_T_WCHAR "
.LASF1868:
	.ascii	"__MM512_REDUCE_OP(op) __m256d __T1 = (__m256d) _mm512_extrac"
	.ascii	"tf64x4_pd (__A, 1); __m256d __T2 = (__m256d) _mm512_extractf"
	.ascii	"64x4_pd (__A, 0); __m256d __T3 = _mm256_ ##op (__T1, __T2); "
	.ascii	"__"
	.string	"m128d __T4 = _mm256_extractf128_pd (__T3, 1); __m128d __T5 = _mm256_extractf128_pd (__T3, 0); __m128d __T6 = _mm_ ##op (__T4, __T5); __m128d __T7 = (__m128d) __builtin_shuffle (__T6, (__v2di) { 1, 0 }); __m128d __T8 = _mm_ ##op (__T6, __T7); return __T8[0]"
.LASF1165:
	.string	"_SIZET_ "
.LASF2281:
	.string	"__glibcxx_transparent_operators 201510L"
.LASF54:
	.string	"__INT8_TYPE__ signed char"
.LASF2224:
	.string	"INT_LEAST64_WIDTH 64"
.LASF1419:
	.string	"alloca"
.LASF943:
	.string	"_GLIBCXX_HAVE_LIMIT_RSS 1"
.LASF2388:
	.string	"__glibcxx_want_assume_aligned"
.LASF1687:
	.string	"_MM_MASK_OVERFLOW 0x0400"
.LASF504:
	.string	"__SSE2_MATH__ 1"
.LASF423:
	.string	"__GCC_HAVE_SYNC_COMPARE_AND_SWAP_4 1"
.LASF890:
	.string	"_GLIBCXX_HAVE_AT_QUICK_EXIT 1"
.LASF1575:
	.string	"__DISABLE_PCONFIG__ "
.LASF462:
	.string	"__MMX__ 1"
.LASF1734:
	.string	"_MM_EXTRACT_FLOAT(D,S,N) { (D) = __builtin_ia32_vec_ext_v4sf ((__v4sf)(S), (N)); }"
.LASF2365:
	.string	"__glibcxx_hypot 201603L"
.LASF1307:
	.string	"__CPU_MASK_TYPE __SYSCALL_ULONG_TYPE"
.LASF1510:
	.string	"_STDDEF_H_ "
.LASF1532:
	.string	"__DISABLE_SHSTK__ "
.LASF1315:
	.string	"__TIME64_T_TYPE __TIME_T_TYPE"
.LASF1628:
	.string	"__SGX__"
.LASF2063:
	.string	"__SM4__ 1"
.LASF1675:
	.string	"_MM_SHUFFLE(fp3,fp2,fp1,fp0) (((fp3) << 6) | ((fp2) << 4) | ((fp1) << 2) | (fp0))"
.LASF92:
	.string	"__cpp_decltype 200707L"
.LASF809:
	.string	"_GLIBCXX_NATIVE_THREAD_ID pthread_self()"
.LASF1355:
	.string	"__bswap_constant_32(x) ((((x) & 0xff000000u) >> 24) | (((x) & 0x00ff0000u) >> 8) | (((x) & 0x0000ff00u) << 8) | (((x) & 0x000000ffu) << 24))"
.LASF1295:
	.string	"__CLOCK_T_TYPE __SYSCALL_SLONG_TYPE"
.LASF2440:
	.string	"__glibcxx_source_location 201907L"
.LASF316:
	.string	"__FLT64_MIN_EXP__ (-1021)"
.LASF146:
	.string	"__cpp_template_template_args 201611L"
.LASF1904:
	.string	"_AVX512PFINTRIN_H_INCLUDED "
.LASF1326:
	.string	"__off64_t_defined "
.LASF1311:
	.string	"__STATFS_MATCHES_STATFS64 1"
.LASF2205:
	.string	"UINT16_C(c) c"
.LASF2073:
	.string	"__DISABLE_AVX512BF16VL__ "
.LASF1399:
	.string	"__SIZEOF_PTHREAD_ATTR_T 56"
.LASF1418:
	.string	"_ALLOCA_H 1"
.LASF1475:
	.string	"__AVX512DQ__"
.LASF1198:
	.string	"__WCLONE 0x80000000"
.LASF795:
	.string	"__attribute_struct_may_alias__ __attribute__ ((__may_alias__))"
.LASF1106:
	.string	"_GLIBCXX_USE_NL_LANGINFO_L 1"
.LASF2306:
	.string	"__glibcxx_want_addressof_constexpr"
.LASF2479:
	.string	"__glibcxx_want_atomic_wait"
.LASF2601:
	.string	"5div_t"
.LASF2216:
	.string	"INT64_WIDTH 64"
.LASF2366:
	.string	"__glibcxx_want_hypot"
.LASF70:
	.string	"__INT_FAST8_TYPE__ signed char"
.LASF2584:
	.string	"strcpy"
.LASF2459:
	.string	"__glibcxx_want_interpolate"
.LASF2600:
	.string	"div_t"
.LASF1758:
	.string	"_CMP_EQ_OQ 0x00"
.LASF619:
	.string	"__USE_POSIX199309"
.LASF1593:
	.string	"_RTMINTRIN_H_INCLUDED "
.LASF2193:
	.string	"SIG_ATOMIC_MIN (-2147483647-1)"
.LASF1476:
	.string	"__AVX512BW__"
.LASF1999:
	.string	"_mm_maskz_cmul_sch(U,A,B) _mm_maskz_fcmul_sch ((U), (A), (B))"
.LASF522:
	.string	"__SEG_GS 1"
.LASF1427:
	.string	"at_quick_exit"
.LASF561:
	.string	"_GLIBCXX_USE_CONSTEXPR constexpr"
.LASF913:
	.string	"_GLIBCXX_HAVE_FINITE 1"
.LASF349:
	.string	"__FLT32X_MIN_EXP__ (-1021)"
.LASF1926:
	.ascii	"_MM256_AVX512_REDUCE_OPERATOR_BASIC_EPI16(op) __v8hi __T1 = "
	.ascii	"(__v8hi)_mm256_avx512_extracti128_si256 (__W, 0); __v8hi __T"
	.ascii	"2 = (__v8hi)_mm256_avx512_extracti128_si256 (__W, 1); __v8hi"
	.ascii	" __T3 = __T1 op __T2; __v8hi __T4 = __builtin_shufflevector "
	.ascii	"(__T3, __T3, 4, 5, 6, 7, 4, 5, 6"
	.string	", 7); __v8hi __T5 = __T3 op __T4; __v8hi __T6 = __builtin_shufflevector (__T5, __T5, 2, 3, 2, 3, 4, 5, 6, 7); __v8hi __T7 = __T5 op __T6; __v8hi __T8 = __builtin_shufflevector (__T7, __T7, 1, 1, 2, 3, 4, 5, 6, 7); __v8hi __T9 = __T7 op __T8; return __T9[0]"
.LASF1603:
	.string	"_XABORT_CODE(x) (((x) >> 24) & 0xFF)"
.LASF1517:
	.string	"_BSD_PTRDIFF_T_ "
.LASF1173:
	.string	"__WCHAR_T "
.LASF2066:
	.string	"__SM4__"
.LASF872:
	.string	"_PSTL_USE_NONTEMPORAL_STORES_IF_ALLOWED "
.LASF1791:
	.string	"_mm256_floor_pd(V) _mm256_round_pd ((V), _MM_FROUND_FLOOR)"
.LASF1317:
	.string	"__u_char_defined "
.LASF1902:
	.string	"__DISABLE_AVX512ER__"
.LASF532:
	.string	"__STDC_IEC_559__ 1"
.LASF2248:
	.string	"__glibcxx_want_uncaught_exceptions"
.LASF454:
	.string	"__ATOMIC_HLE_ACQUIRE 65536"
.LASF1633:
	.string	"__TBM__"
.LASF2132:
	.string	"__DISABLE_WIDEKL__"
.LASF1835:
	.string	"_mm_maskz_scalef_ss(U,A,B) _mm_maskz_scalef_round_ss ((U), (A), (B), _MM_FROUND_CUR_DIRECTION)"
.LASF406:
	.string	"__DEC64_MIN__ 1E-383DD"
.LASF1441:
	.string	"mbtowc"
.LASF193:
	.string	"__INT16_C(c) c"
.LASF1383:
	.string	"__FD_MASK(d) ((__fd_mask) (1UL << ((d) % __NFDBITS)))"
.LASF2373:
	.string	"__glibcxx_node_extract 201606L"
.LASF873:
	.string	"_PSTL_PRAGMA_LOCATION \" [Parallel STL message]: \""
.LASF1234:
	.string	"__HAVE_DISTINCT_FLOAT32X 0"
.LASF811:
	.string	"_GLIBCXX_CPU_DEFINES 1"
.LASF282:
	.string	"__FLT16_DIG__ 3"
.LASF1651:
	.string	"_XSAVECINTRIN_H_INCLUDED "
.LASF344:
	.string	"__FLT128_HAS_INFINITY__ 1"
.LASF2636:
	.string	"long long unsigned int"
.LASF28:
	.string	"__SIZEOF_SHORT__ 2"
.LASF2277:
	.string	"__glibcxx_null_iterators 201304L"
.LASF845:
	.string	"_PSTL_USAGE_WARNINGS 0"
.LASF1312:
	.string	"__KERNEL_OLD_TIMEVAL_MATCHES_TIMEVAL64 1"
.LASF985:
	.string	"_GLIBCXX_HAVE_SQRTF 1"
.LASF43:
	.string	"__GNUG__ 14"
.LASF817:
	.string	"_GLIBCXX_USE_STD_SPEC_FUNCS 1"
.LASF688:
	.string	"_LARGEFILE_SOURCE 1"
.LASF167:
	.string	"__LONG_WIDTH__ 64"
.LASF2447:
	.string	"__glibcxx_want_three_way_comparison"
.LASF185:
	.string	"__UINT8_MAX__ 0xff"
.LASF468:
	.string	"__SSE4_2__ 1"
.LASF1122:
	.string	"_GLIBCXX_USE_WCHAR_T 1"
.LASF2637:
	.string	"__compar_fn_t"
.LASF138:
	.string	"__cpp_impl_three_way_comparison 201907L"
.LASF2401:
	.string	"__glibcxx_want_bind_back"
.LASF1219:
	.string	"__HAVE_FLOAT128 1"
.LASF2432:
	.string	"__glibcxx_is_pointer_interconvertible 201907L"
.LASF529:
	.string	"__DECIMAL_BID_FORMAT__ 1"
.LASF2304:
	.string	"__glibcxx_want_string_udls"
.LASF854:
	.string	"_PSTL_PRAGMA_DECLARE_SIMD _PSTL_PRAGMA(omp declare simd)"
.LASF1974:
	.string	"__DISABLE_AVX512VPOPCNTDQVL__ "
.LASF1141:
	.string	"__GLIBC_USE_IEC_60559_FUNCS_EXT 1"
.LASF1844:
	.string	"_mm512_setr_ps(e0,e1,e2,e3,e4,e5,e6,e7,e8,e9,e10,e11,e12,e13,e14,e15) _mm512_set_ps(e15,e14,e13,e12,e11,e10,e9,e8,e7,e6,e5,e4,e3,e2,e1,e0)"
.LASF1958:
	.string	"_AVX512VBMI2VLINTRIN_H_INCLUDED "
.LASF1029:
	.string	"_GLIBCXX_HAVE_UTIME_H 1"
.LASF217:
	.string	"__UINT_FAST8_MAX__ 0xff"
.LASF1084:
	.string	"_GLIBCXX_USE_C99_MATH_TR1 1"
.LASF1062:
	.string	"_GLIBCXX_HOSTED __STDC_HOSTED__"
.LASF1754:
	.string	"_mm_aesdeclast_si128(X,Y) (__m128i) __builtin_ia32_aesdeclast128 ((__v2di) (X), (__v2di) (Y))"
.LASF331:
	.string	"__FLT128_MANT_DIG__ 113"
.LASF1059:
	.string	"_GLIBCXX_CAN_ALIGNAS_DESTRUCTIVE_SIZE 1"
.LASF1533:
	.string	"__DISABLE_SHSTK__"
.LASF741:
	.string	"__REDIRECT_NTHNL(name,proto,alias) name proto __THROWNL __asm__ (__ASMNAME (#alias))"
.LASF2043:
	.string	"_mm256_maskz_mul_pch(U,A,B) _mm256_maskz_fmul_pch ((U), (A), (B))"
.LASF2142:
	.string	"_STDINT_H 1"
.LASF257:
	.string	"__DBL_EPSILON__ double(2.22044604925031308084726333618164062e-16L)"
.LASF1028:
	.string	"_GLIBCXX_HAVE_USELOCALE 1"
.LASF205:
	.string	"__UINT_LEAST32_MAX__ 0xffffffffU"
.LASF1862:
	.ascii	"__MM512_REDUCE_OP(op) __m256i __T1 = (__m256i) _mm512_extrac"
	.ascii	"ti64x4_epi64 (__A, 1); __m256i __T2 = (__m256i) _mm512_extra"
	.ascii	"cti64x4_epi64 (__A, 0); __m256i __T3 = _mm256_ ##op (__T1, _"
	.ascii	"_T2); __m128i __T4 = (__m128i) _mm256_extracti128_si256 (__T"
	.ascii	"3, 1); __m128i __T5 = (__m128i) _mm256_extracti128_si256 (__"
	.ascii	"T3, 0); __m128i __T6 = _mm_ ##op (__T4, __T5); __m128i __T7 "
	.ascii	"= ("
	.string	"__m128i) __builtin_shuffle ((__v4si) __T6, (__v4si) { 2, 3, 0, 1 }); __m128i __T8 = _mm_ ##op (__T6, __T7); __m128i __T9 = (__m128i) __builtin_shuffle ((__v4si) __T8, (__v4si) { 1, 0, 1, 0 }); __v4si __T10 = (__v4si) _mm_ ##op (__T8, __T9); return __T10[0]"
.LASF126:
	.string	"__cpp_generic_lambdas 201707L"
.LASF1218:
	.string	"_BITS_FLOATN_H "
.LASF320:
	.string	"__FLT64_DECIMAL_DIG__ 17"
.LASF119:
	.string	"__cpp_noexcept_function_type 201510L"
.LASF581:
	.string	"_GLIBCXX_DEFAULT_ABI_TAG _GLIBCXX_ABI_TAG_CXX11"
.LASF583:
	.string	"_GLIBCXX_BEGIN_NAMESPACE_VERSION "
.LASF1100:
	.string	"_GLIBCXX_USE_LFS 1"
.LASF2467:
	.string	"__glibcxx_want_constexpr_numeric"
.LASF1015:
	.string	"_GLIBCXX_HAVE_SYS_UIO_H 1"
.LASF1089:
	.string	"_GLIBCXX_USE_CLOCK_MONOTONIC 1"
.LASF1136:
	.string	"__GLIBC_USE_IEC_60559_BFP_EXT_C23"
.LASF2008:
	.string	"_mm512_cmp_round_ph_mask(A,B,C,D) (__builtin_ia32_cmpph512_mask_round ((A), (B), (C), (-1), (D)))"
.LASF1638:
	.string	"__TSXLDTRK__"
.LASF307:
	.string	"__FLT32_EPSILON__ 1.19209289550781250000000000000000000e-7F32"
.LASF208:
	.string	"__UINT64_C(c) c ## UL"
.LASF1557:
	.string	"__DISABLE_LWP__ "
.LASF16:
	.string	"__ATOMIC_CONSUME 1"
.LASF775:
	.string	"__attribute_copy__"
.LASF801:
	.string	"__stub_revoke "
.LASF63:
	.string	"__INT_LEAST16_TYPE__ short int"
.LASF772:
	.string	"__glibc_unlikely(cond) __builtin_expect ((cond), 0)"
.LASF2497:
	.string	"__glibcxx_want_generic_unordered_lookup"
.LASF2286:
	.string	"__glibcxx_want_tuples_by_type"
.LASF1276:
	.string	"__UID_T_TYPE __U32_TYPE"
.LASF1200:
	.string	"__WTERMSIG(status) ((status) & 0x7f)"
.LASF2271:
	.string	"__glibcxx_integral_constant_callable 201304L"
.LASF1657:
	.string	"__DISABLE_HRESET__ "
.LASF2110:
	.string	"__DISABLE_AMX_BF16__ "
.LASF380:
	.string	"__BFLT16_MANT_DIG__ 8"
.LASF956:
	.string	"_GLIBCXX_HAVE_MBSTATE_T 1"
.LASF279:
	.string	"__LDBL_HAS_QUIET_NAN__ 1"
.LASF1830:
	.string	"_mm_mask_sqrt_ss(W,U,A,B) _mm_mask_sqrt_round_ss ((W), (U), (A), (B), _MM_FROUND_CUR_DIRECTION)"
.LASF2337:
	.string	"__glibcxx_type_trait_variable_templates 201510L"
.LASF683:
	.string	"__USE_XOPEN2K8 1"
.LASF736:
	.string	"__errordecl(name,msg) extern void name (void) __attribute__((__error__ (msg)))"
.LASF921:
	.string	"_GLIBCXX_HAVE_FREXPF 1"
.LASF1071:
	.string	"_GLIBCXX_USE_C11_UCHAR_CXX11 1"
.LASF1967:
	.string	"_mm_dpbusds_epi32(A,B,C) ((__m128i) __builtin_ia32_vpdpbusds_v4si ((__v4si) (A), (__v4si) (B), (__v4si) (C)))"
.LASF431:
	.string	"__GCC_ATOMIC_WCHAR_T_LOCK_FREE 2"
.LASF849:
	.string	"_PSTL_STRING_CONCAT(x,y) x #y"
.LASF2438:
	.string	"__glibcxx_remove_cvref 201711L"
.LASF64:
	.string	"__INT_LEAST32_TYPE__ int"
.LASF2395:
	.string	"__glibcxx_atomic_ref 201806L"
.LASF2050:
	.string	"__DISABLE_AVX512FP16VL__"
.LASF1017:
	.string	"_GLIBCXX_HAVE_TANF 1"
.LASF447:
	.string	"__SIZEOF_PTRDIFF_T__ 8"
.LASF812:
	.string	"_GLIBCXX_PSEUDO_VISIBILITY(V) "
.LASF2217:
	.string	"UINT64_WIDTH 64"
.LASF491:
	.string	"__LZCNT__ 1"
.LASF1036:
	.string	"_GLIBCXX_HAVE_WRITEV 1"
.LASF1020:
	.string	"_GLIBCXX_HAVE_TANL 1"
.LASF593:
	.string	"_GLIBCXX_LONG_DOUBLE_COMPAT"
.LASF693:
	.string	"__WORDSIZE 64"
.LASF1217:
	.string	"WIFCONTINUED(status) __WIFCONTINUED (status)"
.LASF1306:
	.string	"__SSIZE_T_TYPE __SWORD_TYPE"
.LASF2445:
	.string	"__glibcxx_want_ssize"
.LASF147:
	.string	"__cpp_threadsafe_static_init 200806L"
.LASF2246:
	.string	"__glibcxx_want_incomplete_container_elements"
.LASF1552:
	.string	"__ENQCMD__"
.LASF467:
	.string	"__SSE4_1__ 1"
.LASF361:
	.string	"__FLT32X_HAS_QUIET_NAN__ 1"
.LASF2667:
	.string	"int_fast8_t"
.LASF2375:
	.string	"__glibcxx_parallel_algorithm 201603L"
.LASF41:
	.string	"__GNUC_EXECUTION_CHARSET_NAME \"UTF-8\""
.LASF668:
	.string	"_ATFILE_SOURCE"
.LASF1960:
	.string	"__DISABLE_AVX512VBMI2VL__"
.LASF1025:
	.string	"_GLIBCXX_HAVE_UCHAR_H 1"
.LASF1843:
	.string	"_mm512_setr_pd(e0,e1,e2,e3,e4,e5,e6,e7) _mm512_set_pd(e7,e6,e5,e4,e3,e2,e1,e0)"
.LASF1435:
	.string	"getenv"
.LASF806:
	.string	"_GLIBCXX_NO_OBSOLETE_ISINF_ISNAN_DYNAMIC __GLIBC_PREREQ(2,23)"
.LASF1663:
	.string	"__DISABLE_USER_MSR__"
.LASF2328:
	.string	"__glibcxx_want_is_invocable"
.LASF793:
	.string	"__attr_dealloc_free __attr_dealloc (__builtin_free, 1)"
.LASF180:
	.string	"__SIG_ATOMIC_WIDTH__ 32"
.LASF249:
	.string	"__DBL_MIN_EXP__ (-1021)"
.LASF366:
	.string	"__FLT64X_MIN_EXP__ (-16381)"
.LASF2585:
	.string	"strcspn"
.LASF1389:
	.string	"FD_ISSET(fd,fdsetp) __FD_ISSET (fd, fdsetp)"
.LASF1720:
	.string	"_MM_FROUND_RINT (_MM_FROUND_CUR_DIRECTION | _MM_FROUND_RAISE_EXC)"
.LASF492:
	.string	"__CRC32__ 1"
.LASF2534:
	.string	"__glibcxx_want_ranges_repeat"
.LASF1033:
	.string	"_GLIBCXX_HAVE_WCHAR_H 1"
.LASF655:
	.string	"_ISOC2Y_SOURCE 1"
.LASF1236:
	.string	"__HAVE_DISTINCT_FLOAT128X __HAVE_FLOAT128X"
.LASF1866:
	.ascii	"__MM512_REDUCE_OP(op) __m512i __T1 = _mm512_shuffle_i64x2 (_"
	.ascii	"_A, __A, 0x4e); __m512i __T2 = _mm512_ ##op (__A, __T1); __m"
	.ascii	"512i __T3 = (__m512i) __builtin_shuffle ("
	.string	"(__v8di) __T2, (__v8di) { 2, 3, 0, 1, 6, 7, 4, 5 }); __m512i __T4 = _mm512_ ##op (__T2, __T3); __m512i __T5 = (__m512i) __builtin_shuffle ((__v8di) __T4, (__v8di) { 1, 0, 3, 2, 5, 4, 7, 6 }); __v8di __T6 = (__v8di) _mm512_ ##op (__T4, __T5); return __T6[0]"
.LASF1444:
	.string	"rand"
.LASF2466:
	.string	"__glibcxx_constexpr_numeric 201911L"
.LASF424:
	.string	"__GCC_HAVE_SYNC_COMPARE_AND_SWAP_8 1"
.LASF474:
	.string	"__AVX512F__ 1"
.LASF747:
	.string	"__attribute_alloc_size__(params) __attribute__ ((__alloc_size__ params))"
.LASF2031:
	.string	"_mm256_mask_cmp_ph_mask(A,B,C,D) (__builtin_ia32_cmpph256_mask ((B), (C), (D), (A)))"
.LASF1006:
	.string	"_GLIBCXX_HAVE_SYS_RESOURCE_H 1"
.LASF2415:
	.string	"__glibcxx_want_destroying_delete"
.LASF657:
	.string	"_POSIX_SOURCE 1"
.LASF1948:
	.string	"__DISABLE_AVX5124FMAPS__ "
.LASF1605:
	.string	"__RTM__"
.LASF50:
	.string	"__CHAR8_TYPE__ unsigned char"
.LASF1047:
	.string	"_GLIBCXX_DARWIN_USE_64_BIT_INODE 1"
.LASF2084:
	.string	"__AVXNECONVERT__"
.LASF2565:
	.string	"__glibcxx_want_text_encoding"
.LASF1420:
	.string	"alloca(size) __builtin_alloca (size)"
.LASF400:
	.string	"__DEC32_MAX__ 9.999999E96DF"
.LASF2190:
	.string	"UINTMAX_MAX (__UINT64_C(18446744073709551615))"
.LASF2137:
	.string	"_GLIBCXX_CSTDINT 1"
.LASF2112:
	.string	"_tile_dpbf16ps(dst,src1,src2) _tile_dpbf16ps_internal (dst, src1, src2)"
.LASF1518:
	.string	"___int_ptrdiff_t_h "
.LASF2581:
	.string	"strchr"
.LASF651:
	.string	"_ISOC11_SOURCE 1"
.LASF345:
	.string	"__FLT128_HAS_QUIET_NAN__ 1"
.LASF1652:
	.string	"_XSAVEOPTINTRIN_H_INCLUDED "
.LASF1580:
	.string	"_POPCNTINTRIN_H_INCLUDED "
.LASF774:
	.string	"__attribute_nonstring__ __attribute__ ((__nonstring__))"
.LASF1303:
	.string	"__TIMER_T_TYPE void *"
.LASF1425:
	.string	"aligned_alloc"
.LASF1962:
	.string	"_AVX512VNNIVLINTRIN_H_INCLUDED "
.LASF1966:
	.string	"_mm256_dpbusds_epi32(A,B,C) ((__m256i) __builtin_ia32_vpdpbusds_v8si ((__v8si) (A), (__v8si) (B), (__v8si) (C)))"
.LASF1795:
	.string	"__AVXVNNI__ 1"
.LASF1789:
	.string	"_CMP_TRUE_US 0x1f"
.LASF359:
	.string	"__FLT32X_HAS_DENORM__ 1"
.LASF917:
	.string	"_GLIBCXX_HAVE_FLOORF 1"
.LASF1845:
	.string	"_mm512_undefined _mm512_undefined_ps"
.LASF722:
	.string	"__COLD __attribute__ ((__cold__))"
.LASF1728:
	.string	"_mm_floor_sd(D,V) _mm_round_sd ((D), (V), _MM_FROUND_FLOOR)"
.LASF1358:
	.string	"htobe16(x) __bswap_16 (x)"
.LASF852:
	.string	"_PSTL_GCC_VERSION (__GNUC__ * 10000 + __GNUC_MINOR__ * 100 + __GNUC_PATCHLEVEL__)"
.LASF311:
	.string	"__FLT32_HAS_QUIET_NAN__ 1"
.LASF2287:
	.string	"__glibcxx_robust_nonmodifying_seq_ops 201304L"
.LASF707:
	.string	"__GNU_LIBRARY__ 6"
.LASF1331:
	.string	"__key_t_defined "
.LASF2666:
	.string	"uint_least64_t"
.LASF1293:
	.string	"__FSFILCNT64_T_TYPE __UQUAD_TYPE"
.LASF2198:
	.string	"WINT_MIN (0u)"
.LASF1920:
	.string	"__DISABLE_AVX512BW__"
.LASF452:
	.string	"__SIZEOF_FLOAT80__ 16"
.LASF1653:
	.string	"_XSAVESINTRIN_H_INCLUDED "
.LASF2235:
	.string	"UINTPTR_WIDTH __WORDSIZE"
.LASF1250:
	.string	"EXIT_FAILURE 1"
.LASF2091:
	.string	"_tile_stream_loadd_internal(dst,base,stride) __asm__ volatile (\"{tileloaddt1\\t(%0,%1,1), %%tmm%c[_dst]|tileloaddt1\\ttmm%c[_dst], [%0+%1*1]}\" :: \"r\" ((const void*) (base)), \"r\" ((__PTRDIFF_TYPE__) (stride)), [_dst]\"i\"(dst))"
.LASF2491:
	.string	"__glibcxx_want_constexpr_string"
.LASF1554:
	.string	"_LZCNTINTRIN_H_INCLUDED "
.LASF1211:
	.string	"WEXITSTATUS(status) __WEXITSTATUS (status)"
.LASF1737:
	.string	"_SIDD_UWORD_OPS 0x01"
.LASF124:
	.string	"__cpp_nontype_template_parameter_auto 201606L"
.LASF416:
	.string	"__DEC128_SUBNORMAL_MIN__ 0.000000000000000000000000000000001E-6143DL"
.LASF1640:
	.string	"__UINTR__ 1"
.LASF2244:
	.string	"__glibcxx_want_freestanding_cstring "
.LASF2369:
	.string	"__glibcxx_math_special_functions 201603L"
.LASF611:
	.string	"__NO_CTYPE 1"
.LASF841:
	.string	"_PSTL_VERSION 17000"
.LASF1009:
	.string	"_GLIBCXX_HAVE_SYS_SOCKET_H 1"
.LASF283:
	.string	"__FLT16_MIN_EXP__ (-13)"
.LASF1988:
	.string	"_AVX512FP16INTRIN_H_INCLUDED "
.LASF1702:
	.string	"_MM_DENORMALS_ZERO_MASK 0x0040"
.LASF2282:
	.string	"__glibcxx_want_transparent_operators"
.LASF1162:
	.string	"__DEFINED_size_t "
.LASF1731:
	.string	"_mm_floor_ps(V) _mm_round_ps ((V), _MM_FROUND_FLOOR)"
.LASF1648:
	.string	"__WAITPKG__"
.LASF830:
	.string	"_GLIBCXX_HAS_BUILTIN(B) __has_builtin(B)"
.LASF2421:
	.string	"__glibcxx_want_int_pow2"
.LASF1984:
	.string	"__AVX512VP2INTERSECT__"
.LASF2397:
	.string	"__glibcxx_atomic_value_initialization 201911L"
.LASF1715:
	.string	"_MM_FROUND_NO_EXC 0x08"
.LASF1075:
	.string	"_GLIBCXX_USE_C99_CTYPE 1"
.LASF173:
	.string	"__INTMAX_MAX__ 0x7fffffffffffffffL"
.LASF2579:
	.string	"memset"
.LASF1807:
	.string	"__DISABLE_AVXVNNIINT8__"
.LASF1411:
	.string	"__PTHREAD_MUTEX_HAVE_PREV 1"
.LASF1551:
	.string	"__DISABLE_ENQCMD__"
.LASF2345:
	.string	"__glibcxx_gcd_lcm 201606L"
.LASF516:
	.string	"__AVX512BF16__ 1"
.LASF2419:
	.string	"__glibcxx_want_endian"
.LASF1201:
	.string	"__WSTOPSIG(status) __WEXITSTATUS(status)"
.LASF2230:
	.string	"INT_FAST32_WIDTH __WORDSIZE"
.LASF2658:
	.string	"uint64_t"
.LASF2494:
	.string	"__glibcxx_erase_if 202002L"
.LASF1677:
	.string	"_MM_EXCEPT_INVALID 0x0001"
.LASF755:
	.string	"__attribute_deprecated_msg__(msg) __attribute__ ((__deprecated__ (msg)))"
.LASF984:
	.string	"_GLIBCXX_HAVE_SOCKATMARK 1"
.LASF2201:
	.string	"INT16_C(c) c"
.LASF373:
	.string	"__FLT64X_MIN__ 3.36210314311209350626267781732175260e-4932F64x"
.LASF856:
	.string	"_PSTL_PRAGMA_FORCEINLINE "
.LASF2356:
	.string	"__glibcxx_want_sample"
.LASF1917:
	.string	"__DISABLE_AVX512VL__"
.LASF715:
	.string	"__glibc_has_extension(ext) __has_extension (ext)"
.LASF930:
	.string	"_GLIBCXX_HAVE_INTTYPES_H 1"
.LASF1290:
	.string	"__FSBLKCNT_T_TYPE __SYSCALL_ULONG_TYPE"
.LASF463:
	.string	"__SSE__ 1"
.LASF261:
	.string	"__DBL_HAS_QUIET_NAN__ 1"
.LASF1914:
	.string	"_mm256_maskz_cvt_roundps_ph(A,B,C) _mm256_maskz_cvtps_ph ((A), (B), (C))"
.LASF603:
	.string	"_GLIBCXX_ASSERT_FAIL(_Condition) std::__glibcxx_assert_fail(__FILE__, __LINE__, __PRETTY_FUNCTION__, #_Condition)"
.LASF637:
	.string	"__GLIBC_USE_ISOC23"
.LASF2402:
	.string	"__glibcxx_starts_ends_with 201711L"
.LASF396:
	.string	"__DEC32_MANT_DIG__ 7"
.LASF632:
	.string	"__USE_ATFILE"
.LASF567:
	.string	"_GLIBCXX_NOEXCEPT noexcept"
.LASF585:
	.string	"_GLIBCXX_BEGIN_INLINE_ABI_NAMESPACE(X) inline namespace X {"
.LASF241:
	.string	"__FLT_DENORM_MIN__ 1.40129846432481707092372958328991613e-45F"
.LASF1601:
	.string	"_XABORT_DEBUG (1 << 4)"
.LASF2448:
	.string	"__glibcxx_to_address 201711L"
.LASF1669:
	.string	"__DISABLE_GENERAL_REGS_ONLY__"
.LASF350:
	.string	"__FLT32X_MIN_10_EXP__ (-307)"
.LASF1864:
	.ascii	"__MM512_REDUCE_OP(op) __m256 __T1 = (__m256) _mm512_extractf"
	.ascii	"64x4_pd ((__m512d) __A, 1); __m256 __T2 = (__m256) _mm512_ex"
	.ascii	"tractf64x4_pd ((__m512d) __A, 0); __m256 __T3 = _mm256_ ##op"
	.ascii	" (__T1, __T2); __m128 __T4 = _mm256_extractf128_ps (__T3, 1)"
	.ascii	"; __m128 __T5 = _mm256_extractf128_ps (__T3, 0); __m1"
	.string	"28 __T6 = _mm_ ##op (__T4, __T5); __m128 __T7 = __builtin_shuffle (__T6, (__v4si) { 2, 3, 0, 1 }); __m128 __T8 = _mm_ ##op (__T6, __T7); __m128 __T9 = __builtin_shuffle (__T8, (__v4si) { 1, 0, 1, 0 }); __m128 __T10 = _mm_ ##op (__T8, __T9); return __T10[0]"
.LASF1414:
	.string	"__PTHREAD_RWLOCK_ELISION_EXTRA 0, { 0, 0, 0, 0, 0, 0, 0 }"
.LASF526:
	.string	"__unix 1"
.LASF777:
	.string	"__LDOUBLE_REDIRECTS_TO_FLOAT128_ABI 0"
.LASF278:
	.string	"__LDBL_HAS_INFINITY__ 1"
.LASF2660:
	.string	"int_least16_t"
.LASF1212:
	.string	"WTERMSIG(status) __WTERMSIG (status)"
.LASF2682:
	.string	"_ZN9__gnu_cxx3divExx"
.LASF757:
	.string	"__attribute_format_strfmon__(a,b) __attribute__ ((__format__ (__strfmon__, a, b)))"
.LASF2256:
	.string	"__glibcxx_want_shared_ptr_arrays"
.LASF2598:
	.string	"long unsigned int"
.LASF923:
	.string	"_GLIBCXX_HAVE_GETENTROPY 1"
.LASF290:
	.string	"__FLT16_MIN__ 6.10351562500000000000000000000000000e-5F16"
.LASF2185:
	.string	"INTPTR_MIN (-9223372036854775807L-1)"
.LASF1752:
	.string	"_WMMINTRIN_H_INCLUDED "
.LASF672:
	.string	"__GLIBC_USE_ISOC2Y 1"
.LASF1710:
	.string	"_MM_FROUND_TO_NEG_INF 0x01"
.LASF1454:
	.string	"llabs"
.LASF1139:
	.string	"__GLIBC_USE_IEC_60559_EXT 1"
.LASF2192:
	.string	"PTRDIFF_MAX (9223372036854775807L)"
.LASF238:
	.string	"__FLT_NORM_MAX__ 3.40282346638528859811704183484516925e+38F"
.LASF2451:
	.string	"__glibcxx_want_to_array"
.LASF1711:
	.string	"_MM_FROUND_TO_POS_INF 0x02"
.LASF1994:
	.string	"_mm_mul_round_sch(A,B,R) _mm_fmul_round_sch ((A), (B), (R))"
.LASF994:
	.string	"_GLIBCXX_HAVE_STRINGS_H 1"
.LASF966:
	.string	"_GLIBCXX_HAVE_O_NONBLOCK 1"
.LASF534:
	.string	"__STDC_IEC_559_COMPLEX__ 1"
.LASF2240:
	.string	"SIZE_WIDTH __WORDSIZE"
.LASF1825:
	.string	"_AVX512FINTRIN_H_INCLUDED "
.LASF31:
	.string	"__SIZEOF_LONG_DOUBLE__ 16"
.LASF2181:
	.string	"UINT_FAST8_MAX (255)"
.LASF71:
	.string	"__INT_FAST16_TYPE__ long int"
.LASF1253:
	.string	"_BITS_TYPES_LOCALE_T_H 1"
.LASF740:
	.string	"__REDIRECT_NTH(name,proto,alias) name proto __THROW __asm__ (__ASMNAME (#alias))"
.LASF1562:
	.string	"__DISABLE_MOVDIRI__ "
.LASF1907:
	.string	"__DISABLE_AVX512PF__"
.LASF326:
	.string	"__FLT64_HAS_DENORM__ 1"
.LASF1636:
	.string	"__DISABLE_TSXLDTRK__ "
.LASF2322:
	.string	"__glibcxx_want_hardware_interference_size"
.LASF337:
	.string	"__FLT128_DECIMAL_DIG__ 36"
.LASF1465:
	.string	"__SSE__"
.LASF1155:
	.string	"__SIZE_T "
.LASF1026:
	.string	"_GLIBCXX_HAVE_UNISTD_H 1"
.LASF2138:
	.string	"__STDC_LIMIT_MACROS"
.LASF2150:
	.string	"INT16_MIN (-32767-1)"
.LASF459:
	.string	"__tune_znver4__ 1"
.LASF1832:
	.string	"_mm_mask_scalef_sd(W,U,A,B) _mm_mask_scalef_round_sd ((W), (U), (A), (B), _MM_FROUND_CUR_DIRECTION)"
.LASF1831:
	.string	"_mm_maskz_sqrt_ss(U,A,B) _mm_maskz_sqrt_round_ss ((U), (A), (B), _MM_FROUND_CUR_DIRECTION)"
.LASF1285:
	.string	"__PID_T_TYPE __S32_TYPE"
.LASF544:
	.string	"_GLIBCXX_VISIBILITY(V) __attribute__ ((__visibility__ (#V)))"
.LASF103:
	.string	"__cpp_return_type_deduction 201304L"
.LASF1458:
	.string	"strtoull"
.LASF1525:
	.string	"_GCC_MAX_ALIGN_T "
.LASF1906:
	.string	"__DISABLE_AVX512PF__ "
.LASF513:
	.string	"__GFNI__ 1"
.LASF2496:
	.string	"__glibcxx_generic_unordered_lookup 201811L"
.LASF1660:
	.string	"_USER_MSRINTRIN_H_INCLUDED "
.LASF1574:
	.string	"__PCONFIG__ 1"
.LASF1578:
	.string	"__DISABLE_PCONFIG__"
.LASF2487:
	.string	"__glibcxx_want_constexpr_complex"
.LASF2261:
	.string	"__glibcxx_enable_shared_from_this 201603L"
.LASF2612:
	.string	"__int8_t"
.LASF2099:
	.string	"__AMX_INT8__ 1"
.LASF2471:
	.string	"__glibcxx_want_constexpr_algorithms"
.LASF272:
	.string	"__LDBL_MAX__ 1.18973149535723176502126385303097021e+4932L"
.LASF1666:
	.string	"__DISABLE_PTWRITE__ "
.LASF1487:
	.string	"__F16C__"
.LASF310:
	.string	"__FLT32_HAS_INFINITY__ 1"
.LASF869:
	.string	"_PSTL_PRAGMA_SIMD_ORDERED_MONOTONIC_2ARGS(PRM1,PRM2) "
.LASF415:
	.string	"__DEC128_EPSILON__ 1E-33DL"
.LASF1150:
	.string	"__SIZE_T__ "
.LASF1453:
	.string	"_Exit"
.LASF97:
	.string	"__cpp_initializer_lists 200806L"
.LASF1376:
	.string	"____sigset_t_defined "
.LASF2233:
	.string	"UINT_FAST64_WIDTH 64"
.LASF1044:
	.string	"_GLIBCXX_PACKAGE_URL \"\""
.LASF554:
	.string	"_GLIBCXX20_DEPRECATED [[__deprecated__]]"
.LASF1484:
	.string	"__AVX512VPOPCNTDQ__"
.LASF66:
	.string	"__UINT_LEAST8_TYPE__ unsigned char"
.LASF1281:
	.string	"__NLINK_T_TYPE __SYSCALL_ULONG_TYPE"
.LASF536:
	.string	"__STDC_ISO_10646__ 201706L"
.LASF267:
	.string	"__LDBL_MIN_10_EXP__ (-4931)"
.LASF1744:
	.string	"_SIDD_POSITIVE_POLARITY 0x00"
.LASF735:
	.string	"__warnattr(msg) __attribute__((__warning__ (msg)))"
.LASF1821:
	.ascii	"_MM_REDUCE_OPERATOR_BASIC_EPI8(op) __v16qi __T1 = (__v16qi)_"
	.ascii	"_W; __v16qi __T2 = __builtin_shufflevector (__T1, __T1, 8, 9"
	.ascii	", 10, 11, 12, 13, 14, 15, 8, 9, 10, 11, 12, 13, 14, 15); __v"
	.ascii	"16qi __T3 = __T1 op __T2; __v16qi __T4 = __builtin_shuffleve"
	.ascii	"ctor (__T3, __T3, 4, 5, 6, 7, 4, 5, 6, 7, 8, 9, 10, 11, 12, "
	.ascii	"13, 14, 15); __v16qi __T5 = __T3 op __T4; __v16qi __T6 = __b"
	.ascii	"uiltin_shuff"
	.string	"levector (__T5, __T5, 2, 3, 2, 3, 4, 5, 6, 7, 8, 9, 10, 11, 12, 13, 14, 15); __v16qi __T7 = __T5 op __T6; __v16qi __T8 = __builtin_shufflevector (__T7, __T7, 1, 1, 2, 3, 4, 5, 6, 7, 8, 9, 10, 11, 12, 13, 14, 15); __v16qi __T9 = __T7 op __T8; return __T9[0]"
.LASF726:
	.string	"__STRING(x) #x"
.LASF686:
	.string	"__USE_UNIX98 1"
.LASF1853:
	.string	"_MM_CMPINT_LE 0x2"
.LASF1537:
	.string	"__DISABLE_CLDEMOTE__ "
.LASF1625:
	.string	"__enclv_cd(leaf,c,d,retval) __asm__ __volatile__(\"enclv\\n\\t\" : \"=a\" (retval) : \"a\" (leaf), \"c\" (c), \"d\" (d) : \"cc\")"
.LASF1565:
	.string	"__MOVDIR64B__ 1"
.LASF148:
	.string	"__cpp_char8_t 202207L"
.LASF601:
	.string	"_GLIBCXX_HAVE_IS_CONSTANT_EVALUATED 1"
.LASF602:
	.string	"_GLIBCXX_VERBOSE_ASSERT 1"
.LASF684:
	.string	"__USE_XOPEN 1"
.LASF681:
	.string	"__USE_POSIX199506 1"
.LASF1489:
	.string	"__SSE2_MATH__"
.LASF2385:
	.string	"__glibcxx_unordered_map_try_emplace 201411L"
.LASF1980:
	.string	"_AVX512VP2INTERSECTINTRIN_H_INCLUDED "
.LASF2611:
	.string	"unsigned int"
.LASF623:
	.string	"__USE_UNIX98"
.LASF859:
	.string	"_PSTL_PRAGMA_SIMD_EXCLUSIVE_SCAN(PRM) _PSTL_PRAGMA(omp scan exclusive(PRM))"
.LASF2346:
	.string	"__glibcxx_want_gcd_lcm"
.LASF1369:
	.string	"le64toh(x) __uint64_identity (x)"
.LASF1496:
	.string	"_lrotl(a,b) __rolq((a), (b))"
.LASF1667:
	.string	"__DISABLE_PTWRITE__"
.LASF1483:
	.string	"__AVX512BITALG__"
.LASF2279:
	.string	"__glibcxx_transformation_trait_aliases 201304L"
.LASF995:
	.string	"_GLIBCXX_HAVE_STRING_H 1"
.LASF125:
	.string	"__cpp_init_captures 201803L"
.LASF2474:
	.string	"__glibcxx_constexpr_memory 201811L"
.LASF750:
	.string	"__attribute_const__ __attribute__ ((__const__))"
.LASF760:
	.string	"__returns_nonnull __attribute__ ((__returns_nonnull__))"
.LASF2016:
	.string	"_mm512_mul_round_pch(A,B,R) _mm512_fmul_round_pch ((A), (B), (R))"
.LASF2323:
	.string	"__glibcxx_invoke 201411L"
.LASF2671:
	.string	"uint_fast8_t"
.LASF2327:
	.string	"__glibcxx_is_invocable 201703L"
.LASF2001:
	.string	"_mm_mask_cmul_round_sch(W,U,A,B,R) _mm_mask_fcmul_round_sch ((W), (U), (A), (B), (R))"
.LASF888:
	.string	"_GLIBCXX_HAVE_ATANL 1"
.LASF2457:
	.string	"__glibcxx_want_constexpr_iterator"
.LASF1598:
	.string	"_XABORT_RETRY (1 << 1)"
.LASF1053:
	.string	"_GLIBCXX98_USE_C99_COMPLEX 1"
.LASF691:
	.string	"__USE_LARGEFILE 1"
.LASF1584:
	.string	"__DISABLE_PREFETCHI__ "
.LASF62:
	.string	"__INT_LEAST8_TYPE__ signed char"
.LASF782:
	.string	"__LDBL_REDIR2_DECL(name) "
.LASF44:
	.string	"__SIZE_TYPE__ long unsigned int"
.LASF268:
	.string	"__LDBL_MAX_EXP__ 16384"
.LASF785:
	.string	"__REDIRECT_NTH_LDBL(name,proto,alias) __REDIRECT_NTH (name, proto, alias)"
.LASF1615:
	.string	"__encls_bcd(leaf,b,c,d,retval) __asm__ __volatile__(\"encls\\n\\t\" : \"=a\" (retval) : \"a\" (leaf), \"b\" (b), \"c\" (c), \"d\" (d) : \"cc\")"
.LASF2616:
	.string	"short int"
.LASF517:
	.string	"__MMX_WITH_SSE__ 1"
.LASF1257:
	.string	"__S16_TYPE short int"
.LASF1873:
	.string	"_mm_maskz_rcp28_sd(U,A,B) _mm_maskz_rcp28_round_sd ((U), (A), (B), _MM_FROUND_CUR_DIRECTION)"
.LASF8:
	.string	"__GNUC_MINOR__ 3"
.LASF494:
	.string	"__FSGSBASE__ 1"
.LASF4:
	.string	"__STDC_UTF_16__ 1"
.LASF1716:
	.string	"_MM_FROUND_NINT (_MM_FROUND_TO_NEAREST_INT | _MM_FROUND_RAISE_EXC)"
.LASF2249:
	.string	"__glibcxx_allocator_traits_is_always_equal 201411L"
.LASF99:
	.string	"__cpp_nsdmi 200809L"
.LASF1886:
	.string	"_mm512_rcp28_pd(A) _mm512_rcp28_round_pd(A, _MM_FROUND_CUR_DIRECTION)"
.LASF23:
	.string	"_LP64 1"
.LASF1086:
	.string	"_GLIBCXX_USE_C99_STDINT_TR1 1"
.LASF88:
	.string	"__cpp_raw_strings 200710L"
.LASF2444:
	.string	"__glibcxx_ssize 201902L"
.LASF2117:
	.string	"__DISABLE_AMX_COMPLEX__ "
.LASF1269:
	.string	"__S64_TYPE long int"
.LASF1151:
	.string	"_SIZE_T "
.LASF1385:
	.string	"FD_SETSIZE __FD_SETSIZE"
.LASF1682:
	.string	"_MM_EXCEPT_INEXACT 0x0020"
.LASF2075:
	.string	"_mm_cvtneps_pbh(A) (__m128bh) __builtin_ia32_cvtneps2bf16_v4sf (A)"
.LASF219:
	.string	"__UINT_FAST32_MAX__ 0xffffffffffffffffUL"
.LASF85:
	.string	"__cpp_binary_literals 201304L"
.LASF496:
	.string	"__F16C__ 1"
.LASF1531:
	.string	"__SHSTK__ 1"
.LASF2542:
	.string	"__glibcxx_want_ranges_iota"
.LASF210:
	.string	"__INT_FAST8_WIDTH__ 8"
.LASF176:
	.string	"__UINTMAX_C(c) c ## UL"
.LASF2280:
	.string	"__glibcxx_want_transformation_trait_aliases"
.LASF2210:
	.string	"INT8_WIDTH 8"
.LASF709:
	.string	"__GLIBC_MINOR__ 42"
.LASF1504:
	.string	"_rdtsc() __rdtsc()"
.LASF45:
	.string	"__PTRDIFF_TYPE__ long int"
.LASF992:
	.string	"_GLIBCXX_HAVE_STRERROR_L 1"
.LASF1521:
	.string	"__DEFINED_ptrdiff_t "
.LASF457:
	.string	"__znver4 1"
.LASF201:
	.string	"__UINT_LEAST8_MAX__ 0xff"
.LASF1215:
	.string	"WIFSIGNALED(status) __WIFSIGNALED (status)"
.LASF2556:
	.string	"__glibcxx_want_string_contains"
.LASF2575:
	.string	"memchr"
.LASF676:
	.string	"__USE_ISOC95 1"
.LASF592:
	.string	"_GLIBCXX_END_NAMESPACE_ALGO "
.LASF2372:
	.string	"__glibcxx_want_memory_resource"
.LASF2064:
	.string	"__DISABLE_SM4__ "
.LASF189:
	.string	"__INT_LEAST8_MAX__ 0x7f"
.LASF2436:
	.string	"__glibcxx_make_obj_using_allocator 201811L"
.LASF199:
	.string	"__INT64_C(c) c ## L"
.LASF472:
	.string	"__AVX__ 1"
.LASF587:
	.string	"_GLIBCXX_STD_C std"
.LASF1796:
	.string	"__DISABLE_AVXVNNIVL__ "
.LASF963:
	.string	"_GLIBCXX_HAVE_NETINET_IN_H 1"
.LASF820:
	.string	"_GLIBCXX_USE_C99_MATH _GLIBCXX11_USE_C99_MATH"
.LASF1132:
	.string	"__GLIBC_USE_LIB_EXT2"
.LASF2414:
	.string	"__glibcxx_destroying_delete 201806L"
.LASF9:
	.string	"__GNUC_PATCHLEVEL__ 1"
	.section	.debug_line_str,"MS",@progbits,1
.LASF0:
	.string	"matmul9_L2_tiles.cpp"
.LASF1:
	.string	"/home/olaf/zen4-lab/matmul"
	.ident	"GCC: (GNU) 14.3.1 20251226"
	.section	.note.GNU-stack,"",@progbits
